ccopy_reg
_reconstructor
p0
(cpandas.core.frame
DataFrame
p1
c__builtin__
object
p2
Ntp3
Rp4
(dp5
S'_metadata'
p6
(lp7
sS'_typ'
p8
S'dataframe'
p9
sS'_data'
p10
g0
(cpandas.core.internals
BlockManager
p11
g2
Ntp12
Rp13
((lp14
cpandas.indexes.base
_new_Index
p15
(cpandas.indexes.base
Index
p16
(dp17
S'data'
p18
cnumpy.core.multiarray
_reconstruct
p19
(cnumpy
ndarray
p20
(I0
tp21
S'b'
p22
tp23
Rp24
(I1
(I4
tp25
cnumpy
dtype
p26
(S'O8'
p27
I0
I1
tp28
Rp29
(I3
S'|'
p30
NNNI-1
I-1
I63
tp31
bI00
(lp32
Vcode
p33
aVname
p34
aVgooglecode
p35
aVtype
p36
atp37
bsS'name'
p38
Nstp39
Rp40
ag15
(cpandas.indexes.numeric
Int64Index
p41
(dp42
g18
g19
(g20
(I0
tp43
g22
tp44
Rp45
(I1
(I0
tp46
g26
(S'i8'
p47
I0
I1
tp48
Rp49
(I3
S'<'
p50
NNNI-1
I-1
I0
tp51
bI00
S''
p52
tp53
bsg38
Nstp54
Rp55
a(lp56
g19
(g20
(I0
tp57
g22
tp58
Rp59
(I1
(I1
I0
tp60
g49
I00
g52
tp61
bag19
(g20
(I0
tp62
g22
tp63
Rp64
(I1
(I3
I0
tp65
g29
I00
(lp66
tp67
ba(lp68
g15
(g16
(dp69
g18
g19
(g20
(I0
tp70
g22
tp71
Rp72
(I1
(I1
tp73
g29
I00
(lp74
g33
atp75
bsg38
Nstp76
Rp77
ag15
(g16
(dp78
g18
g19
(g20
(I0
tp79
g22
tp80
Rp81
(I1
(I3
tp82
g29
I00
(lp83
g34
ag35
ag36
atp84
bsg38
Nstp85
Rp86
a(dp87
S'0.14.1'
p88
(dp89
S'axes'
p90
g14
sS'blocks'
p91
(lp92
(dp93
S'mgr_locs'
p94
c__builtin__
slice
p95
(I0
I1
I1
tp96
Rp97
sS'values'
p98
g59
sa(dp99
g94
g95
(I1
I4
I1
tp100
Rp101
sg98
g64
sasstp102
bsb.