(dp0
V036200
p1
V\uc720\ub2c8\uc148
p2
sV066790
p3
V\uc528\uc528\uc5d0\uc2a4
p4
sV086040
p5
V\ubc14\uc774\uc624\ud1a1\uc2a4\ud14d
p6
sV241180
p7
VTIGER \uc77c\ubcf8\ub2c8\ucf00\uc774225
p8
sV005110
p9
V\ud55c\ucc3d
p10
sV071200
p11
V\uc778\ud53c\ub2c8\ud2b8\ud5ec\uc2a4\ucf00\uc5b4
p12
sV018260
p13
V\uc0bc\uc131\uc5d0\uc2a4\ub514\uc5d0\uc2a4
p14
sV000250
p15
V\uc0bc\ucc9c\ub2f9\uc81c\uc57d
p16
sV014100
p17
V\ubcf4\ub839\uba54\ub514\uc559\uc2a4
p18
sV030000
p19
V\uc81c\uc77c\uae30\ud68d
p20
sV010130
p21
V\uace0\ub824\uc544\uc5f0
p22
sV051915
p23
VLG\ud654\ud559\uc6b0
p24
sV051910
p25
VLG\ud654\ud559
p26
sV009830
p27
V\ud55c\ud654\ucf00\ubbf8\uce7c
p28
sV012600
p29
V\uccad\ud638\ucef4\ub137
p30
sV009835
p31
V\ud55c\ud654\ucf00\ubbf8\uce7c\uc6b0
p32
sV071840
p33
V\ub86f\ub370\ud558\uc774\ub9c8\ud2b8
p34
sV046070
p35
V\ucf54\ub2e4\ucf54
p36
sV032940
p37
V\uc6d0\uc775
p38
sV011390
p39
V\ubd80\uc0b0\uc0b0\uc5c5
p40
sV005680
p41
V\uc0bc\uc601\uc804\uc790
p42
sV057050
p43
V\ud604\ub300\ud648\uc1fc\ud551
p44
sV052020
p45
V\uc5d0\uc2a4\ud2f0\ud050\ube0c
p46
sV114470
p47
VKOSEF \uad6d\uace0\ucc44
p48
sV227830
p49
VARIRANG \ucf54\uc2a4\ud53c
p50
sV009580
p51
V\ubb34\ub9bcP&P
p52
sV005750
p53
V\ub300\ub9bcB&Co
p54
sV043580
p55
V\uc5d0\uc784\ud558\uc774
p56
sV031440
p57
V\uc2e0\uc138\uacc4\ud478\ub4dc
p58
sV004370
p59
V\ub18d\uc2ec
p60
sV083350
p61
V\ub3d9\ubd81\uc54410\ud638
p62
sV004150
p63
V\ud55c\uc194\ud640\ub529\uc2a4
p64
sV003680
p65
V\ud55c\uc131\uae30\uc5c5
p66
sV011170
p67
V\ub86f\ub370\ucf00\ubbf8\uce7c
p68
sV042370
p69
V\ube44\uce20\ub85c\ud14c\ud06c
p70
sV004970
p71
V\uc2e0\ub77c\uad50\uc5ed
p72
sV081580
p73
V\uc131\uc6b0\uc804\uc790
p74
sV140890
p75
V\ud2b8\ub7ec\uc2a4\uc81c7\ud638
p76
sV008500
p77
V\uc77c\uc815\uc2e4\uc5c5
p78
sV089590
p79
V\uc81c\uc8fc\ud56d\uacf5
p80
sV010950
p81
VS-Oil
p82
sV010955
p83
VS-Oil\uc6b0
p84
sV008290
p85
V\uc6d0\ud48d\ubb3c\uc0b0
p86
sV139480
p87
V\uc774\ub9c8\ud2b8
p88
sV032540
p89
VTJ\ubbf8\ub514\uc5b4
p90
sV023430
p91
V\uc544\uc774\uc774
p92
sV086830
p93
V\uc2e0\uc591\uc624\ub77c\ucef4
p94
sV012800
p95
V\ub300\ucc3d
p96
sV007070
p97
VGS\ub9ac\ud14c\uc77c
p98
sV067390
p99
V\uc544\uc2a4\ud2b8
p100
sV007980
p101
V\ud0dc\ud3c9\uc591\ubb3c\uc0b0
p102
sV244660
p103
VKODEX \ud004\ub9ac\ud2f0Plus
p104
sV072870
p105
V\uba54\uac00\uc2a4\ud130\ub514
p106
sV045520
p107
V\ud06c\ub9b0\uc564\uc0ac\uc774\uc5b8\uc2a4
p108
sV058850
p109
VKTcs
p110
sV023890
p111
V\uc544\ud2b8\ub77c\uc2a4BX
p112
sV003350
p113
V\ud55c\uad6d\ud654\uc7a5\ud488\uc81c\uc870
p114
sV046210
p115
V\ud30c\ub098\uc9c4
p116
sV084990
p117
V\ubc14\uc774\ub85c\uba54\ub4dc
p118
sV042600
p119
V\uc0c8\ub85c\ub2c9\uc2a4
p120
sV008470
p121
V\ubd80\uc2a4\ud0c0
p122
sV008870
p123
V\uae08\ube44
p124
sV058450
p125
V\uc77c\uc57c
p126
sV007210
p127
V\ubcbd\uc0b0
p128
sV048910
p129
V\ub300\uc6d0\ubbf8\ub514\uc5b4
p130
sV059100
p131
V\uc544\uc774\ucef4\ud3ec\ub10c\ud2b8
p132
sV003220
p133
V\ub300\uc6d0\uc81c\uc57d
p134
sV520010
p135
V\ub300\uc6b0 \uc6d0\uc720\uc120\ubb3c\ud63c\ud569 ETN(H)
p136
sV520011
p137
V\ub300\uc6b0 \uc778\ubc84\uc2a4 \uc6d0\uc720\uc120\ubb3c\ud63c\ud569 ETN(H)
p138
sV138040
p139
V\uba54\ub9ac\uce20\uae08\uc735\uc9c0\uc8fc
p140
sV080470
p141
V\uc131\ucc3d\uc624\ud1a0\ud14d
p142
sV003530
p143
V\ud55c\ud654\ud22c\uc790\uc99d\uad8c
p144
sV003535
p145
V\ud55c\ud654\ud22c\uc790\uc99d\uad8c\uc6b0
p146
sV081970
p147
V\ud55c\uc194\ub125\uc2a4\uc9c0
p148
sV167860
p149
VKOSEF 10\ub144\uad6d\uace0\ucc44 \ub808\ubc84\ub9ac\uc9c0
p150
sV225130
p151
VKINDEX \uace8\ub4dc\uc120\ubb3c \ub808\ubc84\ub9ac\uc9c0(\ud569\uc131 H)
p152
sV217780
p153
VTIGER \ucc28\uc774\ub098A\uc778\ubc84\uc2a4(\ud569\uc131)
p154
sV007690
p155
V\uad6d\ub3c4\ud654\ud559
p156
sV190150
p157
VARIRANG \ubc14\ubca8 \ucc44\uad8c
p158
sV002240
p159
V\uace0\ub824\uc81c\uac15
p160
sV039980
p161
V\ub9ac\ub178\uc2a4
p162
sV084370
p163
V\uc720\uc9c4\ud14c\ud06c
p164
sV006580
p165
V\ub300\uc591\uc81c\uc9c0
p166
sV036930
p167
V\uc8fc\uc131\uc5d4\uc9c0\ub2c8\uc5b4\ub9c1
p168
sV090430
p169
V\uc544\ubaa8\ub808\ud37c\uc2dc\ud53d
p170
sV021045
p171
V\ub300\ud638\ud53c\uc564\uc528\uc6b0
p172
sV021040
p173
V\ub300\ud638\ud53c\uc564\uc528
p174
sV021820
p175
V\uc138\uc6d0\uc815\uacf5
p176
sV016250
p177
V\uc774\ud14c\ud06c\uac74\uc124
p178
sV001040
p179
VCJ
p180
sV001045
p181
VCJ\uc6b0
p182
sV099140
p183
VKODEX China H
p184
sV001680
p185
V\ub300\uc0c1
p186
sV001685
p187
V\ub300\uc0c1\uc6b0
p188
sV002790
p189
V\uc544\ubaa8\ub808G
p190
sV123700
p191
VSJM
p192
sV001689
p193
V\ub300\uc0c13\uc6b0B
p194
sV002795
p195
V\uc544\ubaa8\ub808G\uc6b0
p196
sV016380
p197
V\ub3d9\ubd80\uc81c\ucca0
p198
sV016385
p199
V\ub3d9\ubd80\uc81c\ucca0\uc6b0
p200
sV017250
p201
V\uc778\ud130\uc5e0
p202
sV157490
p203
VTIGER \uc18c\ud504\ud2b8\uc6e8\uc5b4
p204
sV082800
p205
V\ub8e8\ubbf8\ub9c8\uc774\ud06c\ub85c
p206
sV016670
p207
V\ud3ec\ube44\uc2a4\ud2f0\uc564\uc528
p208
sV226490
p209
VKODEX \ucf54\uc2a4\ud53c
p210
sV025270
p211
V\ubd80\uc0b0\ubc29\uc9c1
p212
sV044340
p213
V\uc704\ub2c9\uc2a4
p214
sV019550
p215
VSBI\uc778\ubca0\uc2a4\ud2b8\uba3c\ud2b8
p216
sV006920
p217
V\ubaa8\ud5e8\uc988
p218
sV017810
p219
V\ud480\ubb34\uc6d0
p220
sV000400
p221
V\ub86f\ub370\uc190\ud574\ubcf4\ud5d8
p222
sV007280
p223
V\ud55c\uad6d\ud2b9\uc218\ud615\uac15
p224
sV060370
p225
VKT\uc11c\ube0c\ub9c8\ub9b0
p226
sV214390
p227
V\uacbd\ubcf4\uc81c\uc57d
p228
sV001465
p229
VBYC\uc6b0
p230
sV001460
p231
VBYC
p232
sV065650
p233
V\uba54\ub514\ud504\ub860
p234
sV033560
p235
V\ube14\ub8e8\ucf64
p236
sV002460
p237
V\ud654\uc131\uc0b0\uc5c5
p238
sV570009
p239
VTRUE \ucf54\ub9ac\uc544\ud504\ub9ac\ubbf8\uc5b4 ETN
p240
sV570006
p241
VTRUE \uc778\ubc84\uc2a4 \ucc28\uc774\ub098H ETN(H)
p242
sV570007
p243
VTRUE \uc704\uc548\ud654 \uc911\uad6d5\ub144\uad6d\ucc44 ETN
p244
sV570004
p245
VTRUE \uc778\ubc84\uc2a4 \uc720\ub85c\uc2a4\ud0c1\uc2a450 ETN(H)
p246
sV570005
p247
VTRUE \ubaa9\ud45c\ubcc0\ub3d9\uc13120 \ucf54\uc2a4\ud53c\uc120\ubb3c ETN
p248
sV570002
p249
VTRUE \ucf54\uc2a4\ud53c \uc120\ubb3c\ub9e4\ub3c4 \ud48b\ub9e4\ub3c4 ETN
p250
sV570003
p251
VTRUE \ube455 \ub3d9\uc77c\uac00\uc911 ETN
p252
sV570001
p253
VTRUE \ucf54\uc2a4\ud53c \uc120\ubb3c\ub9e4\uc218 \ucf5c\ub9e4\ub3c4 ETN
p254
sV020150
p255
V\uc77c\uc9c4\uba38\ud2f0\ub9ac\uc5bc\uc988
p256
sV017650
p257
V\ub300\ub9bc\uc81c\uc9c0
p258
sV063080
p259
V\uac8c\uc784\ube4c
p260
sV183710
p261
VKBSTAR \uc8fc\uc2dd\ud63c\ud569
p262
sV061970
p263
V\uc5d8\ube44\uc138\ubbf8\ucf58
p264
sV087730
p265
V\ub124\ud328\uc2a4\uc2e0\uc18c\uc7ac
p266
sV016920
p267
V\uce74\uc2a4
p268
sV069080
p269
V\uc6f9\uc820
p270
sV114260
p271
VKODEX \uad6d\uace0\ucc44
p272
sV060280
p273
V\ud050\ub809\uc18c
p274
sV071320
p275
V\uc9c0\uc5ed\ub09c\ubc29\uacf5\uc0ac
p276
sV030720
p277
V\ub3d9\uc6d0\uc218\uc0b0
p278
sV025900
p279
V\ub3d9\ud654\uae30\uc5c5
p280
sV003415
p281
V\uc30d\uc6a9\uc591\ud68c\uc6b0
p282
sV001260
p283
V\ub0a8\uad11\ud1a0\uac74
p284
sV003410
p285
V\uc30d\uc6a9\uc591\ud68c
p286
sV174350
p287
VTIGER \ub85c\uc6b0\ubcfc
p288
sV060570
p289
V\uc544\uc774\ub9ac\ubc84
p290
sV145210
p291
V\uc138\ud654\uc544\uc774\uc5e0\uc528
p292
sV065500
p293
V\uc624\ub9ac\uc5d4\ud2b8\uc815\uacf5
p294
sV181480
p295
VKINDEX \ubbf8\uad6d\ub9ac\uce20\ubd80\ub3d9\uc0b0(\ud569\uc131 H)
p296
sV057500
p297
VSKC \uc194\ubbf9\uc2a4
p298
sV060590
p299
V\uc528\ud2f0\uc528\ubc14\uc774\uc624
p300
sV029530
p301
V\uc2e0\ub3c4\ub9ac\ucf54
p302
sV014280
p303
V\uae08\uac15\uacf5\uc5c5
p304
sV005160
p305
V\ub3d9\uad6d\uc0b0\uc5c5
p306
sV014285
p307
V\uae08\uac15\uacf5\uc5c5\uc6b0
p308
sV000220
p309
V\uc720\uc720\uc81c\uc57d
p310
sV000227
p311
V\uc720\uc720\uc81c\uc57d2\uc6b0B
p312
sV000225
p313
V\uc720\uc720\uc81c\uc57d1\uc6b0
p314
sV010140
p315
V\uc0bc\uc131\uc911\uacf5\uc5c5
p316
sV010145
p317
V\uc0bc\uc131\uc911\uacf5\uc6b0
p318
sV051905
p319
VLG\uc0dd\ud65c\uac74\uac15\uc6b0
p320
sV086450
p321
V\ub3d9\uad6d\uc81c\uc57d
p322
sV051900
p323
VLG\uc0dd\ud65c\uac74\uac15
p324
sV005300
p325
V\ub86f\ub370\uce60\uc131
p326
sV071850
p327
V\uce90\uc2a4\ud14d\ucf54\ub9ac\uc544
p328
sV005305
p329
V\ub86f\ub370\uce60\uc131\uc6b0
p330
sV004365
p331
V\uc138\ubc29\uc6b0
p332
sV004360
p333
V\uc138\ubc29
p334
sV023150
p335
VMH\uc5d0\ud0c4\uc62c
p336
sV073190
p337
V\ub514\ube44\ucf00\uc774
p338
sV181710
p339
VNHN\uc5d4\ud130\ud14c\uc778\uba3c\ud2b8
p340
sV064290
p341
V\uc778\ud14d\ud50c\ub7ec\uc2a4
p342
sV035510
p343
V\uc2e0\uc138\uacc4 I&C
p344
sV005945
p345
VNH\ud22c\uc790\uc99d\uad8c\uc6b0
p346
sV012700
p347
V\ub9ac\ub4dc\ucf54\ud504
p348
sV005940
p349
VNH\ud22c\uc790\uc99d\uad8c
p350
sV034120
p351
VSBS
p352
sV004415
p353
V\uc11c\uc6b8\uc2dd\ud488\uc6b0
p354
sV004410
p355
V\uc11c\uc6b8\uc2dd\ud488
p356
sV004140
p357
V\ub3d9\ubc29
p358
sV067010
p359
V\uc774\uc528\uc5d0\uc2a4
p360
sV010960
p361
V\uc0bc\ud638\uac1c\ubc1c
p362
sV004960
p363
V\ud55c\uc2e0\uacf5\uc601
p364
sV011160
p365
V\ub450\uc0b0\uac74\uc124
p366
sV105010
p367
VTIGER \ub77c\ud2f4
p368
sV008060
p369
V\ub300\ub355\uc804\uc790
p370
sV018700
p371
V\ubc14\ub978\uc190
p372
sV004560
p373
V\ud604\ub300\ube44\uc564\uc9c0\uc2a4\ud2f8
p374
sV03473K
p375
VSK\uc6b0
p376
sV052690
p377
V\ud55c\uc804\uae30\uc220
p378
sV192090
p379
VTIGER \ucc28\uc774\ub098A300
p380
sV101530
p381
V\ud574\ud0dc\uc81c\uacfc\uc2dd\ud488
p382
sV008260
p383
VNI\uc2a4\ud2f8
p384
sV003780
p385
V\uc9c4\uc591\uc0b0\uc5c5
p386
sV015260
p387
V\uc5d0\uc774\uc5d4\ud53c
p388
sV105630
p389
V\ud55c\uc138\uc2e4\uc5c5
p390
sV041190
p391
V\uc6b0\ub9ac\uae30\uc220\ud22c\uc790
p392
sV219390
p393
VKBSTAR \ubbf8\uad6d\uc6d0\uc720\uc0dd\uc0b0\uae30\uc5c5(\ud569\uc131 H)
p394
sV003030
p395
V\uc138\uc544\uc81c\uac15
p396
sV244670
p397
VKODEX \ubc38\ub958Plus
p398
sV082740
p399
V\ub450\uc0b0\uc5d4\uc9c4
p400
sV032080
p401
V\uc544\uc988\ud14dWB
p402
sV011760
p403
V\ud604\ub300\uc0c1\uc0ac
p404
sV247780
p405
VKODEX \uac00\uce58\ud22c\uc790
p406
sV011780
p407
V\uae08\ud638\uc11d\uc720
p408
sV104120
p409
V\uc2e0\uc131\uc5d0\ud504\uc5d0\uc774
p410
sV210540
p411
V\ub514\uc640\uc774\ud30c\uc6cc
p412
sV004780
p413
V\ub300\ub959\uc81c\uad00
p414
sV139230
p415
VTIGER 200 \uc911\uacf5\uc5c5
p416
sV002320
p417
V\ud55c\uc9c4
p418
sV013720
p419
V\uccad\ubcf4\uc0b0\uc5c5
p420
sV077500
p421
V\uc720\ub2c8\ud018\uc2a4\ud2b8
p422
sV520009
p423
V\ub300\uc6b0 \ub808\ubc84\ub9ac\uc9c0 \uc6d0\uc720\uc120\ubb3c\ud63c\ud569 ETN(H)
p424
sV222170
p425
VARIRANG S&P \ubc30\ub2f9\uc131\uc7a5
p426
sV520003
p427
V\ub300\uc6b0 \uc6d0\uc790\uc7ac \uc120\ubb3c ETN(H)
p428
sV094280
p429
V\ud6a8\uc131ITX
p430
sV520001
p431
V\ub300\uc6b0 \ub85c\uc6b0\ubcfc ETN
p432
sV520007
p433
V\ub300\uc6b0 \uc778\ubc84\uc2a4 \uc5d0\ub108\uc9c0\ud654\ud559 Core5 ETN
p434
sV520006
p435
V\ub300\uc6b0 \uc5d0\ub108\uc9c0\ud654\ud559 Core5 ETN
p436
sV007197
p437
V\ud55c\uc194\uc544\ud2b8\uc6d0\uc81c\uc9c02\uc6b0B
p438
sV520004
p439
V\ub300\uc6b0 \uc804\uae30\uc804\uc790 Core5 ETN
p440
sV214320
p441
V\uc774\ub178\uc158
p442
sV002810
p443
V\uc0bc\uc601\ubb34\uc5ed
p444
sV007660
p445
V\uc774\uc218\ud398\ud0c0\uc2dc\uc2a4
p446
sV054210
p447
V\uc774\ub79c\ud14d
p448
sV067900
p449
V\uc640\uc774\uc5d4\ud14d
p450
sV007330
p451
V\ud478\ub978\uc800\ucd95\uc740\ud589
p452
sV048870
p453
V\ucf54\uc544\ub85c\uc9c1
p454
sV044060
p455
V\uc870\uad11ILI
p456
sV032790
p457
V\uc5e0\uc820\ud50c\ub7ec\uc2a4
p458
sV051630
p459
V\uc9c4\uc591\ud654\ud559
p460
sV052900
p461
VKMH\ud558\uc774\ud14d
p462
sV002250
p463
V\uc54c\ubcf4\uc820\ucf54\ub9ac\uc544
p464
sV058530
p465
V\uc774\ud050\uc2a4\uc564\uc790\ub8e8
p466
sV082920
p467
V\ube44\uce20\ub85c\uc140
p468
sV033170
p469
V\uc2dc\uadf8\ub124\ud2f1\uc2a4
p470
sV024840
p471
V\uac11\uc744\uba54\ud0c8
p472
sV067830
p473
V\uc138\uc774\ube0c\uc874I&C
p474
sV025000
p475
VKPX\ucf00\ubbf8\uce7c
p476
sV048470
p477
V\ub300\ub3d9\uc2a4\ud2f8
p478
sV039860
p479
V\ub098\ub178\uc5d4\ud14d
p480
sV134790
p481
V\ud300\uc2a4
p482
sV002787
p483
V\uc9c4\ud765\uae30\uc5c52\uc6b0B
p484
sV002785
p485
V\uc9c4\ud765\uae30\uc5c5\uc6b0B
p486
sV075580
p487
V\uc138\uc9c4\uc911\uacf5\uc5c5
p488
sV002780
p489
V\uc9c4\ud765\uae30\uc5c5
p490
sV073240
p491
V\uae08\ud638\ud0c0\uc774\uc5b4
p492
sV053980
p493
V\uc624\uc0c1\uc790\uc774\uc5d8
p494
sV001070
p495
V\ub300\ud55c\ubc29\uc9c1
p496
sV004080
p497
V\uc2e0\ud765
p498
sV044490
p499
V\ud0dc\uc6c5
p500
sV002070
p501
V\ub0a8\uc601\ube44\ube44\uc548
p502
sV037270
p503
VYG PLUS
p504
sV069410
p505
V\uc5d4\ud154\uc2a4
p506
sV007530
p507
V\uc601\uc2e0\uae08\uc18d
p508
sV037070
p509
V\ud30c\uc138\ucf54
p510
sV091090
p511
V\uc138\uc6d0\uc140\ub860\ud14d
p512
sV021960
p513
V\ucf00\uc774\ube44\uce90\ud53c\ud0c8
p514
sV058820
p515
VCMG\uc81c\uc57d
p516
sV036890
p517
V\uc9c4\uc131\ud2f0\uc774\uc528
p518
sV019540
p519
V\uc77c\uc9c0\ud14c\ud06c
p520
sV229720
p521
VKODEX KTOP30
p522
sV020560
p523
V\uc544\uc2dc\uc544\ub098\ud56d\uacf5
p524
sV108450
p525
VKINDEX \uc0bc\uc131\uadf8\ub8f9SW
p526
sV016800
p527
V\ud37c\uc2dc\uc2a4
p528
sV039240
p529
V\uacbd\ub0a8\uc2a4\ud2f8
p530
sV025860
p531
V\ub0a8\ud574\ud654\ud559
p532
sV001780
p533
V\uc54c\ub8e8\ucf54
p534
sV010620
p535
V\ud604\ub300\ubbf8\ud3ec\uc870\uc120
p536
sV570011
p537
VTRUE \ub808\ubc84\ub9ac\uc9c0 \uc5d4\uc120\ubb3c ETN
p538
sV570010
p539
VTRUE \uc5d4\uc120\ubb3c ETN
p540
sV570013
p541
VTRUE \uc720\ub85c\uc120\ubb3c ETN
p542
sV570012
p543
VTRUE \uc778\ubc84\uc2a4 \uc5d4\uc120\ubb3c ETN
p544
sV090150
p545
V\uad11\uc9c4\uc708\ud14d
p546
sV050860
p547
V\uc544\uc138\uc544\ud14d
p548
sV033600
p549
V\uc774\uc820\ud14d
p550
sV026910
p551
V\uad11\uc9c4\uc2e4\uc5c5
p552
sV183700
p553
VKBSTAR \ucc44\uad8c\ud63c\ud569
p554
sV001527
p555
V\ub3d9\uc5912\uc6b0B
p556
sV001525
p557
V\ub3d9\uc591\uc6b0
p558
sV001250
p559
VGS\uae00\ub85c\ubc8c
p560
sV001520
p561
V\ub3d9\uc591
p562
sV000300
p563
V\ub300\uc720\uc2e0\uc18c\uc7ac
p564
sV035290
p565
V\uc5d0\uc774\uc6d0\uc564
p566
sV001529
p567
V\ub3d9\uc5913\uc6b0B
p568
sV133820
p569
V\ud654\uc778\ubca0\uc2a4\ud2f8
p570
sV043100
p571
V\uc194\uace0\ubc14\uc774\uc624
p572
sV053050
p573
V\uc9c0\uc5d0\uc2a4\uc774
p574
sV060560
p575
V\ud648\uc13c\ud0c0
p576
sV110570
p577
V\ub125\uc194\ub860
p578
sV155660
p579
VDSR
p580
sV065510
p581
V\ud734\ube44\uce20
p582
sV109070
p583
VKGP
p584
sV105780
p585
VKBSTAR 5\ub300\uadf8\ub8f9\uc8fc
p586
sV066980
p587
V\ud558\uc774\uc38c
p588
sV052220
p589
ViMBC
p590
sV029780
p591
V\uc0bc\uc131\uce74\ub4dc
p592
sV043610
p593
VKT\ubba4\uc9c1
p594
sV000230
p595
V\uc77c\ub3d9\uc81c\uc57d
p596
sV009450
p597
V\uacbd\ub3d9\ub098\ube44\uc5d4
p598
sV047050
p599
V\ud3ec\uc2a4\ucf54\ub300\uc6b0
p600
sV036090
p601
V\uc704\uc9c0\ud2b8
p602
sV028300
p603
V\uc5d0\uc774\uce58\uc5d8\ube44
p604
sV032960
p605
V\ub3d9\uc77c\uae30\uc5f0
p606
sV011370
p607
V\uc11c\ud55c
p608
sV004310
p609
V\ud604\ub300\uc57d\ud488
p610
sV018620
p611
V\uc6b0\uc9c4\ube44\uc564\uc9c0
p612
sV000120
p613
VCJ\ub300\ud55c\ud1b5\uc6b4
p614
sV035720
p615
V\uce74\uce74\uc624
p616
sV101140
p617
V\uc544\ud2f0\uc2a4
p618
sV071460
p619
V\ub300\uc720\uc704\ub2c8\uc544
p620
sV086890
p621
V\uc774\uc218\uc571\uc9c0\uc2a4
p622
sV015890
p623
V\ud0dc\uacbd\uc0b0\uc5c5
p624
sV005950
p625
V\uc774\uc218\ud654\ud559
p626
sV031860
p627
V\uc5d0\uc774\ubaa8\uc158
p628
sV004130
p629
V\ub300\ub355GDS
p630
sV004135
p631
V\ub300\ub355GDS\uc6b0
p632
sV067000
p633
V\uc870\uc774\uc2dc\ud2f0
p634
sV118000
p635
V\uc6b0\ub9ac\ub4e4\ud734\ube0c\ub808\uc778
p636
sV139130
p637
VDGB\uae08\uc735\uc9c0\uc8fc
p638
sV009070
p639
VKCTC
p640
sV011280
p641
V\ud0dc\ub9bc\ud3ec\uc7a5
p642
sV035610
p643
V\uc194\ubcf8
p644
sV085910
p645
V\ub124\uc624\ud2f0\uc2a4
p646
sV032560
p647
V\ud669\uae08\uc5d0\uc2a4\ud2f0
p648
sV034810
p649
V\ud574\uc131\uc0b0\uc5c5
p650
sV023450
p651
V\ub3d9\ub0a8\ud569\uc131
p652
sV069960
p653
V\ud604\ub300\ubc31\ud654\uc810
p654
sV036670
p655
VKCI
p656
sV153130
p657
VKODEX \ub2e8\uae30\ucc44\uad8c
p658
sV088790
p659
V\uc9c4\ub3c4
p660
sV247790
p661
VKODEX \uc131\uc7a5\ud22c\uc790
p662
sV052770
p663
V\uc640\uc774\ub514\uc628\ub77c\uc778
p664
sV043590
p665
V\ud06c\ub85c\ubc14\ud558\uc774\ud14d
p666
sV032980
p667
V\ubc14\uc774\uc628
p668
sV139220
p669
VTIGER 200 \uac74\uc124
p670
sV078600
p671
V\ub300\uc8fc\uc804\uc790\uc7ac\ub8cc
p672
sV003240
p673
V\ud0dc\uad11\uc0b0\uc5c5
p674
sV002310
p675
V\uc544\uc138\uc544\uc81c\uc9c0
p676
sV013990
p677
V\uc544\uac00\ubc29\ucef4\ud37c\ub2c8
p678
sV082640
p679
V\ub3d9\uc591\uc0dd\uba85
p680
sV090435
p681
V\uc544\ubaa8\ub808\ud37c\uc2dc\ud53d\uc6b0
p682
sV006260
p683
VLS
p684
sV036710
p685
V\uc2ec\ud14d\ud640\ub529\uc2a4
p686
sV045340
p687
V\ud1a0\ud0c8\uc18c\ud504\ud2b8
p688
sV067730
p689
V\ub85c\uc9c0\uc2dc\uc2a4
p690
sV022100
p691
V\ud3ec\uc2a4\ucf54 ICT
p692
sV152280
p693
VKOSEF 200 \uc120\ubb3c
p694
sV148070
p695
VKOSEF 10\ub144\uad6d\uace0\ucc44
p696
sV163560
p697
V\ub3d9\uc77c\uace0\ubb34\ubca8\ud2b8
p698
sV088130
p699
V\ub3d9\uc544\uc5d8\ud14d
p700
sV033160
p701
V\uc5e0\ucf00\uc774\uc804\uc790
p702
sV072950
p703
V\ube5b\uc0d8\uc804\uc790
p704
sV024850
p705
V\ud53c\uc5d0\uc2a4\uc5e0\uc528
p706
sV098560
p707
VTIGER \ubbf8\ub514\uc5b4\ud1b5\uc2e0
p708
sV038870
p709
V\uc5d0\ucf54\ubc14\uc774\uc624
p710
sV059120
p711
V\uc544\uc9c4\uc5d1\uc2a4\ud14d
p712
sV043370
p713
V\ud3c9\ud654\uc815\uacf5
p714
sV001060
p715
VJW\uc911\uc678\uc81c\uc57d
p716
sV001067
p717
VJW\uc911\uc678\uc81c\uc57d2\uc6b0B
p718
sV001065
p719
VJW\uc911\uc678\uc81c\uc57d\uc6b0
p720
sV033290
p721
V\ucf54\uc6f0\ud328\uc158
p722
sV060910
p723
V\ud504\ub9ac\uc820
p724
sV007540
p725
V\uc0d8\ud45c\uc2dd\ud488
p726
sV075970
p727
V\ub3d9\uad6d\uc54c\uc564\uc5d0\uc2a4
p728
sV019570
p729
V\uc81c\ubbf8\ub2c8\ud22c\uc790
p730
sV006490
p731
V\uc778\uc2a4\ucf54\ube44
p732
sV003800
p733
V\uc5d0\uc774\uc2a4\uce68\ub300
p734
sV006125
p735
VSK\ucf00\ubbf8\uce7c\uc6b0
p736
sV041510
p737
V\uc5d0\uc2a4\uc5e0
p738
sV006120
p739
VSK\ucf00\ubbf8\uce7c
p740
sV133690
p741
VTIGER \ub098\uc2a4\ub2e5100
p742
sV042510
p743
V\ub77c\uc628\uc2dc\ud050\uc5b4
p744
sV044960
p745
V\uc774-\uae00 \ubcb3
p746
sV002680
p747
V\ud55c\ud0d1
p748
sV001799
p749
V\ub300\ud55c\uc81c\ub2f93\uc6b0B
p750
sV044480
p751
V\uc720\ub2c8\ub354\uc2a4
p752
sV001790
p753
V\ub300\ud55c\uc81c\ub2f9
p754
sV001795
p755
V\ub300\ud55c\uc81c\ub2f9\uc6b0
p756
sV222200
p757
VARIRANG \uc2a4\ub9c8\ud2b8\ubca0\ud0c0 Quality
p758
sV052260
p759
VSK\ubc14\uc774\uc624\ub79c\ub4dc
p760
sV243890
p761
VTIGER 200\uc5d0\ub108\uc9c0\ud654\ud559\ub808\ubc84\ub9ac\uc9c0
p762
sV108590
p763
VTREX 200
p764
sV169950
p765
VKODEX \uc911\uad6d\ubcf8\ud1a0 A50
p766
sV238670
p767
VARIRANG \uc2a4\ub9c8\ud2b8\ubca0\ud0c0Quality\ucc44\uad8c\ud63c\ud569
p768
sV001880
p769
V\uc0bc\ud638
p770
sV033340
p771
V\uc88b\uc740\uc0ac\ub78c\ub4e4
p772
sV068290
p773
V\uc0bc\uc131\ucd9c\ud310\uc0ac
p774
sV033830
p775
V\ud2f0\ube44\uc528
p776
sV065690
p777
V\ub300\uc9c4\ub514\uc5e0\ud53c
p778
sV550023
p779
VQV \uace0\ub839\ud654 \ud14c\ub9c8 ETN
p780
sV000680
p781
VLS\ub124\ud2b8\uc6cd\uc2a4
p782
sV080010
p783
V\uc774\uc0c1\ub124\ud2b8\uc6cd\uc2a4
p784
sV004690
p785
V\uc0bc\ucc9c\ub9ac
p786
sV001530
p787
V\ub3d9\uc77c\ubc29\uc9c1
p788
sV027740
p789
V\ub9c8\ub2c8\ucee4
p790
sV053950
p791
V\uacbd\ub0a8\uc81c\uc57d
p792
sV001080
p793
V\ub9cc\ud638\uc81c\uac15
p794
sV005090
p795
V\uc0bc\uad11\uae00\ub77c\uc2a4
p796
sV048260
p797
V\uc624\uc2a4\ud15c\uc784\ud50c\ub780\ud2b8
p798
sV196220
p799
VKBSTAR \uc77c\ubcf8\ub808\ubc84\ub9ac\uc9c0(H)
p800
sV014580
p801
V\ubc31\uad11\uc18c\uc7ac
p802
sV009680
p803
V\ubaa8\ud1a0\ub2c9
p804
sV220130
p805
VSMART \uc911\uad6d\ubcf8\ud1a0 \uc911\uc18c\ud615 CSI500(\ud569\uc131 H)
p806
sV034020
p807
V\ub450\uc0b0\uc911\uacf5\uc5c5
p808
sV024720
p809
V\ud55c\uad6d\ucf5c\ub9c8\ud640\ub529\uc2a4
p810
sV009440
p811
VKC\uadf8\ub9b0\ud640\ub529\uc2a4
p812
sV103590
p813
V\uc77c\uc9c4\uc804\uae30
p814
sV102780
p815
VKODEX \uc0bc\uc131\uadf8\ub8f9
p816
sV047040
p817
V\ub300\uc6b0\uac74\uc124
p818
sV065450
p819
V\ube45\ud14d
p820
sV213500
p821
V\ud55c\uc194\uc81c\uc9c0
p822
sV014130
p823
V\ud55c\uc775\uc2a4\ud504\ub808\uc2a4
p824
sV131890
p825
VKINDEX \uc0bc\uc131\uadf8\ub8f9EW
p826
sV014710
p827
V\uc0ac\uc870\uc528\ud478\ub4dc
p828
sV063440
p829
V\uc5d0\ud504\uc5d4\uc528\uc560\ub4dc\uceec\uccd0
p830
sV011560
p831
V\uc138\ubcf4\uc5e0\uc774\uc528
p832
sV076610
p833
V\ud574\uc131\uc635\ud2f1\uc2a4
p834
sV009200
p835
V\ubb34\ub9bc\ud398\uc774\ud37c
p836
sV046390
p837
V\uc0bc\ud654\ub124\ud2b8\uc6cd\uc2a4
p838
sV062860
p839
V\ud2f0\uc5d8\uc544\uc774
p840
sV214420
p841
V\ud1a0\ub2c8\ubaa8\ub9ac
p842
sV014620
p843
V\uc131\uad11\ubca4\ub4dc
p844
sV015710
p845
V\ucf54\ucf64
p846
sV071670
p847
V\uc5d0\uc774\ud14c\ud06c\uc194\ub8e8\uc158
p848
sV015860
p849
V\uc77c\uc9c4\ud640\ub529\uc2a4
p850
sV029480
p851
V\ubc14\ub978\ud14c\ud06c\ub180\ub85c\uc9c0
p852
sV005430
p853
V\ud55c\uad6d\uacf5\ud56d
p854
sV079660
p855
V\uc0ac\uc870\ud574\ud45c
p856
sV037440
p857
V\ud76c\ub9bc
p858
sV500018
p859
V\uc2e0\ud55c \uad6c\ub9ac \uc120\ubb3c ETN(H)
p860
sV500019
p861
V\uc2e0\ud55c \ub808\ubc84\ub9ac\uc9c0 WTI\uc6d0\uc720 \uc120\ubb3c ETN(H)
p862
sV500012
p863
V\uc2e0\ud55c \uc778\ubc84\uc2a4 \ub2ec\ub7ec\uc778\ub371\uc2a4 \uc120\ubb3c ETN(H)
p864
sV500013
p865
V\uc2e0\ud55c \uc625\uc218\uc218 \uc120\ubb3c ETN(H)
p866
sV500010
p867
V\uc2e0\ud55c \uc778\ubc84\uc2a4 \ub2e4\uc6b0\uc874\uc2a4\uc9c0\uc218 \uc120\ubb3c ETN(H)
p868
sV500011
p869
V\uc2e0\ud55c \ub2ec\ub7ec\uc778\ub371\uc2a4 \uc120\ubb3c ETN(H)
p870
sV500016
p871
V\uc2e0\ud55c \uae08 \uc120\ubb3c ETN(H)
p872
sV500017
p873
V\uc2e0\ud55c \uc740 \uc120\ubb3c ETN(H)
p874
sV500014
p875
V\uc2e0\ud55c \uc778\ubc84\uc2a4 \uc625\uc218\uc218 \uc120\ubb3c ETN(H)
p876
sV500015
p877
V\uc2e0\ud55c WTI\uc6d0\uc720 \uc120\ubb3c ETN(H)
p878
sV089890
p879
V\uace0\ub824\ubc18\ub3c4\uccb4
p880
sV023530
p881
V\ub86f\ub370\uc1fc\ud551
p882
sV101280
p883
VKODEX Japan
p884
sV031980
p885
V\ud53c\uc5d0\uc2a4\ucf00\uc774
p886
sV004540
p887
V\uae68\ub057\ud55c\ub098\ub77c
p888
sV053160
p889
V\ud504\ub9ac\uc5e0\uc2a4
p890
sV004545
p891
V\uae68\ub057\ud55c\ub098\ub77c\uc6b0
p892
sV013520
p893
V\ud654\uc2b9\uc54c\uc564\uc5d0\uc774
p894
sV003010
p895
V\ud61c\uc778
p896
sV023440
p897
V\uc81c\uc77c\uc81c\uac15
p898
sV032350
p899
V\ub86f\ub370\uad00\uad11\uac1c\ubc1c
p900
sV045510
p901
V\uc815\uc6d0\uc5d4\uc2dc\uc2a4
p902
sV012030
p903
V\ub3d9\ubd80
p904
sV102960
p905
VKODEX \uc870\uc120
p906
sV050320
p907
V\uc5d0\uc2a4\uc544\uc774\ud2f0\uae00\ub85c\ubc8c
p908
sV032750
p909
V\uc0bc\uc9c4
p910
sV008420
p911
V\ubb38\ubc30\ucca0\uac15
p912
sV081660
p913
V\ud720\ub77c\ucf54\ub9ac\uc544
p914
sV003495
p915
V\ub300\ud55c\ud56d\uacf5\uc6b0
p916
sV003490
p917
V\ub300\ud55c\ud56d\uacf5
p918
sV042420
p919
V\ub124\uc624\uc704\uc988\ud640\ub529\uc2a4
p920
sV004430
p921
V\uc1a1\uc6d0\uc0b0\uc5c5
p922
sV049070
p923
V\uc778\ud0d1\uc2a4
p924
sV053300
p925
V\ud55c\uad6d\uc815\ubcf4\uc778\uc99d
p926
sV003300
p927
V\ud55c\uc77c\uc2dc\uba58\ud2b8
p928
sV003650
p929
V\ubbf8\ucc3d\uc11d\uc720
p930
sV003475
p931
V\uc720\uc548\ud0c0\uc99d\uad8c\uc6b0
p932
sV200020
p933
VKODEX \ubbf8\uad6dIT(\ud569\uc131)
p934
sV002300
p935
V\ud55c\uad6d\uc81c\uc9c0
p936
sV170900
p937
V\ub3d9\uc544\uc5d0\uc2a4\ud2f0
p938
sV037620
p939
V\ubbf8\ub798\uc5d0\uc14b\uc99d\uad8c
p940
sV012450
p941
V\ud55c\ud654\ud14c\ud06c\uc708
p942
sV211210
p943
V\ub9c8\uc774\ud2f0 \ucf54\uc2a4\ud53c\uace0\ubc30\ub2f9
p944
sV222190
p945
VARIRANG \uc2a4\ub9c8\ud2b8\ubca0\ud0c0 Momentum
p946
sV002870
p947
V\uc2e0\ud48d\uc81c\uc9c0
p948
sV204450
p949
VKODEX China H \ub808\ubc84\ub9ac\uc9c0(H)
p950
sV068930
p951
V\ub514\uc9c0\ud138\ub300\uc131
p952
sV054780
p953
V\ud0a4\uc774\uc2a4\ud2b8
p954
sV006805
p955
V\ubbf8\ub798\uc5d0\uc14b\ub300\uc6b0\uc6b0
p956
sV006800
p957
V\ubbf8\ub798\uc5d0\uc14b\ub300\uc6b0
p958
sV036640
p959
VHRS
p960
sV058220
p961
V\uc544\ub9ac\uc628
p962
sV007820
p963
V\uc5d0\uc2a4\uc5e0\ucf54\uc5b4
p964
sV032190
p965
V\ub2e4\uc6b0\ub370\uc774\ud0c0
p966
sV079650
p967
V\uc11c\uc0b0
p968
sV190160
p969
VARIRANG \ub2e8\uae30\uc720\ub3d9\uc131
p970
sV002270
p971
V\ub86f\ub370\ud478\ub4dc
p972
sV007310
p973
V\uc624\ub69c\uae30
p974
sV033110
p975
V\uc774\ub514
p976
sV008930
p977
V\ud55c\ubbf8\uc0ac\uc774\uc5b8\uc2a4
p978
sV038460
p979
V\ubc14\uc774\uc624\uc2a4\ub9c8\ud2b8
p980
sV129260
p981
V\uc778\ud130\uc9c0\uc2a4
p982
sV046440
p983
VKG\ubaa8\ube4c\ub9ac\uc5b8\uc2a4
p984
sV051490
p985
V\ub098\ub77c\uc5e0\uc564\ub514
p986
sV054300
p987
V\ud32c\uc2a4\ud0c0\uc5d4\ud130\ud504\ub77c\uc774\uc988
p988
sV152180
p989
VTIGER \uc0dd\ud65c\ud544\uc218\ud488
p990
sV210980
p991
VSK\ub514\uc564\ub514
p992
sV074610
p993
V\uc774\uc5d4\uc4f0\ub9ac
p994
sV073640
p995
V\uc0bc\uc6d0\ud14c\ud06c
p996
sV006570
p997
V\ub300\ub9bc\ud1b5\uc0c1
p998
sV043340
p999
V\uc5d0\uc388\ud14c\ud06c
p1000
sV020760
p1001
V\uc77c\uc9c4\ub514\uc2a4\ud50c
p1002
sV060900
p1003
V\ud37c\uc2dc\ud53d\ubc14\uc774\uc624
p1004
sV045970
p1005
V\ucf54\uc544\uc2dc\uc544\ud640\ub529\uc2a4
p1006
sV090080
p1007
V\ud3c9\ud654\uc0b0\uc5c5
p1008
sV039310
p1009
V\uc138\uc911
p1010
sV233740
p1011
VKODEX \ucf54\uc2a4\ub2e5150 \ub808\ubc84\ub9ac\uc9c0
p1012
sV054950
p1013
V\uc81c\uc774\ube0c\uc774\uc5e0
p1014
sV036500
p1015
V\uc5d0\uc2a4\uc5d0\uc2a4\ucef4\ud14d
p1016
sV039790
p1017
V\uc704\ub178\ubc14
p1018
sV036120
p1019
VSCI\ud3c9\uac00\uc815\ubcf4
p1020
sV102280
p1021
V\uc30d\ubc29\uc6b8
p1022
sV042500
p1023
V\ub9c1\ub124\ud2b8
p1024
sV001430
p1025
V\uc138\uc544\ubca0\uc2a4\ud2f8
p1026
sV017510
p1027
V\uc138\uba85\uc804\uae30
p1028
sV000430
p1029
V\ub300\uc6d0\uac15\uc5c5
p1030
sV036420
p1031
V\uc81c\uc774\ucf58\ud150\ud2b8\ub9ac
p1032
sV069500
p1033
VKODEX 200
p1034
sV006370
p1035
V\ub300\uad6c\ubc31\ud654\uc810
p1036
sV002690
p1037
V\ub3d9\uc77c\uc81c\uac15
p1038
sV083650
p1039
V\ube44\uc5d0\uc774\uce58\uc544\uc774
p1040
sV047920
p1041
V\uc528\ud2b8\ub9ac
p1042
sV043290
p1043
V\ucf00\uc774\ub9e5
p1044
sV065660
p1045
V\uc548\ud2b8\ub85c\uc820
p1046
sV002450
p1047
V\uc0bc\uc775\uc545\uae30
p1048
sV243880
p1049
VTIGER 200IT\ub808\ubc84\ub9ac\uc9c0
p1050
sV090370
p1051
V\uc544\ube44\uc2a4\ud0c0
p1052
sV065060
p1053
V\uc9c0\uc5d4\ucf54
p1054
sV000327
p1055
V\ub178\ub8e8\ud640\ub529\uc2a42\uc6b0B
p1056
sV000325
p1057
V\ub178\ub8e8\ud640\ub529\uc2a4\uc6b0
p1058
sV065680
p1059
V\uc6b0\uc8fc\uc77c\ub809\ud2b8\ub85c
p1060
sV000320
p1061
V\ub178\ub8e8\ud640\ub529\uc2a4
p1062
sV044820
p1063
V\ucf54\uc2a4\ub9e5\uc2a4\ube44\ud2f0\uc544\uc774
p1064
sV020180
p1065
V\ub300\uc2e0\uc815\ubcf4\ud1b5\uc2e0
p1066
sV006200
p1067
V\ud55c\uad6d\uc804\uc790\ud640\ub529\uc2a4
p1068
sV079810
p1069
V\ub514\uc774\uc5d4\ud2f0
p1070
sV078070
p1071
V\uc720\ube44\ucffc\uc2a4
p1072
sV010770
p1073
V\ud3c9\ud654\ud640\ub529\uc2a4
p1074
sV034230
p1075
V\ud30c\ub77c\ub2e4\uc774\uc2a4
p1076
sV174360
p1077
VKBSTAR \uc911\uad6d\ubcf8\ud1a0\ub300\ud615\uc8fcCSI100
p1078
sV039130
p1079
V\ud558\ub098\ud22c\uc5b4
p1080
sV136490
p1081
V\uc120\uc9c4
p1082
sV033240
p1083
V\uc790\ud654\uc804\uc790
p1084
sV072130
p1085
V\uc720\uc5d4\uc824
p1086
sV066620
p1087
V\uad6d\ubcf4\ub514\uc790\uc778
p1088
sV065530
p1089
V\uc804\ud30c\uae30\uc9c0\uad6d
p1090
sV196230
p1091
VKBSTAR \ub2e8\uae30\ud1b5\uc548\ucc44
p1092
sV000210
p1093
V\ub300\ub9bc\uc0b0\uc5c5
p1094
sV111770
p1095
V\uc601\uc6d0\ubb34\uc5ed
p1096
sV000215
p1097
V\ub300\ub9bc\uc0b0\uc5c5\uc6b0
p1098
sV009470
p1099
V\uc0bc\ud654\uc804\uae30
p1100
sV001340
p1101
V\ubc31\uad11\uc0b0\uc5c5
p1102
sV065440
p1103
V\uc774\ub8e8\uc628
p1104
sV214980
p1105
VKODEX \ub2e8\uae30\ucc44\uad8cPLUS
p1106
sV010170
p1107
V\ub300\ud55c\uad11\ud1b5\uc2e0
p1108
sV130680
p1109
VTIGER \uc6d0\uc720\uc120\ubb3c(H)
p1110
sV009780
p1111
V\uc5e0\uc5d0\uc2a4\uc528
p1112
sV009270
p1113
V\uc2e0\uc6d0
p1114
sV083310
p1115
V\uc5d8\uc624\ud2f0\ubca0\ud060
p1116
sV148040
p1117
VPIONEER SRI
p1118
sV068240
p1119
V\ub2e4\uc6d0\uc2dc\uc2a4
p1120
sV009275
p1121
V\uc2e0\uc6d0\uc6b0
p1122
sV000105
p1123
V\uc720\ud55c\uc591\ud589\uc6b0
p1124
sV056090
p1125
V\uc720\uc564\uc544\uc774
p1126
sV000100
p1127
V\uc720\ud55c\uc591\ud589
p1128
sV064550
p1129
V\ubc14\uc774\uc624\ub2c8\uc544
p1130
sV029960
p1131
V\ucf54\uc5d4\ud14d
p1132
sV086790
p1133
V\ud558\ub098\uae08\uc735\uc9c0\uc8fc
p1134
sV018880
p1135
V\ud55c\uc628\uc2dc\uc2a4\ud15c
p1136
sV046970
p1137
V\uc6b0\ub9ac\ub85c
p1138
sV036180
p1139
V\uc601\uc778\ud504\ub7f0\ud2f0\uc5b4
p1140
sV219900
p1141
VKINDEX \uc911\uad6d\ubcf8\ud1a0\ub808\ubc84\ub9ac\uc9c0(\ud569\uc131)
p1142
sV056360
p1143
V\ucf54\uc704\ubc84
p1144
sV005420
p1145
V\ucf54\uc2a4\ubaa8\ud654\ud559
p1146
sV500009
p1147
V\uc2e0\ud55c \ub2e4\uc6b0\uc874\uc2a4\uc9c0\uc218 \uc120\ubb3c ETN(H)
p1148
sV500008
p1149
V\uc2e0\ud55c \uc778\ubc84\uc2a4 \uad6c\ub9ac \uc120\ubb3c ETN(H)
p1150
sV128940
p1151
V\ud55c\ubbf8\uc57d\ud488
p1152
sV026150
p1153
V\ud2b9\uc218\uac74\uc124
p1154
sV095720
p1155
V\uc6c5\uc9c4\uc53d\ud06c\ube45
p1156
sV500001
p1157
V\uc2e0\ud55c K200 USD \uc120\ubb3c \ubc14\uc774\uc140 ETN
p1158
sV089790
p1159
V\uc81c\uc774\ud2f0
p1160
sV500003
p1161
V\uc2e0\ud55c \uc778\ubc84\uc2a4 WTI\uc6d0\uc720 \uc120\ubb3c ETN(H)
p1162
sV500002
p1163
V\uc2e0\ud55c USD K200 \uc120\ubb3c \ubc14\uc774\uc140 ETN
p1164
sV500005
p1165
V\uc2e0\ud55c \uc778\ubc84\uc2a4 \ube0c\ub80c\ud2b8\uc6d0\uc720 \uc120\ubb3c ETN(H)
p1166
sV500004
p1167
V\uc2e0\ud55c \ube0c\ub80c\ud2b8\uc6d0\uc720 \uc120\ubb3c ETN(H)
p1168
sV500007
p1169
V\uc2e0\ud55c \uc778\ubc84\uc2a4 \uc740 \uc120\ubb3c ETN(H)
p1170
sV500006
p1171
V\uc2e0\ud55c \uc778\ubc84\uc2a4 \uae08 \uc120\ubb3c ETN(H)
p1172
sV043910
p1173
V\uc790\uc5f0\uacfc\ud658\uacbd
p1174
sV032500
p1175
V\ucf00\uc774\uc5e0\ub354\ube14\uc720
p1176
sV008250
p1177
V\uc774\uac74\uc0b0\uc5c5
p1178
sV082270
p1179
V\uc82c\ubc31\uc2a4
p1180
sV005880
p1181
V\ub300\ud55c\ud574\uc6b4
p1182
sV031310
p1183
V\uc544\uc774\uc988\ube44\uc804
p1184
sV053450
p1185
V\uc138\ucf54\ub2c9\uc2a4
p1186
sV004200
p1187
V\uace0\ub824\uac1c\ubc1c
p1188
sV009300
p1189
V\uc0bc\uc544\uc81c\uc57d
p1190
sV004060
p1191
VSG\uc138\uacc4\ubb3c\uc0b0
p1192
sV051780
p1193
V\ud050\ub85c\ud640\ub529\uc2a4
p1194
sV089530
p1195
V\uc5d0\uc774\ud2f0\uc138\ubbf8\ucf58
p1196
sV034830
p1197
V\ud55c\uad6d\ud1a0\uc9c0\uc2e0\ud0c1
p1198
sV004590
p1199
V\ud55c\uad6d\uac00\uad6c
p1200
sV102970
p1201
VKODEX \uc99d\uad8c
p1202
sV004840
p1203
VDRB\ub3d9\uc77c
p1204
sV139200
p1205
V\ud558\uc774\uace8\ub4dc2\ud638
p1206
sV003480
p1207
V\ud55c\uc9c4\uc911\uacf5\uc5c5\ud640\ub529\uc2a4
p1208
sV004440
p1209
V\ub300\ub9bc\uc528\uc5d4\uc5d0\uc2a4
p1210
sV105190
p1211
VKINDEX 200
p1212
sV003310
p1213
V\ub300\uc8fc\uc0b0\uc5c5
p1214
sV052790
p1215
V\uc561\ud1a0\uc988\uc18c\ud504\ud2b8
p1216
sV104110
p1217
V\uc2e0\uc131\uc774\uc5d4\uc9c0
p1218
sV003465
p1219
V\uc720\ud654\uc99d\uad8c\uc6b0
p1220
sV003460
p1221
V\uc720\ud654\uc99d\uad8c
p1222
sV002990
p1223
V\uae08\ud638\uc0b0\uc5c5
p1224
sV038070
p1225
V\uc11c\ub9b0\ubc14\uc774\uc624
p1226
sV002995
p1227
V\uae08\ud638\uc0b0\uc5c5\uc6b0
p1228
sV211260
p1229
VKINDEX \ubc30\ub2f9\uc131\uc7a5
p1230
sV082660
p1231
V\uc0bc\uc6b0\uc5e0\uc2a4
p1232
sV222180
p1233
VARIRANG \uc2a4\ub9c8\ud2b8\ubca0\ud0c0 Value
p1234
sV007815
p1235
V\ucf54\ub9ac\uc544\uc368\uc6b0
p1236
sV007810
p1237
V\ucf54\ub9ac\uc544\uc368\ud0a4\ud2b8
p1238
sV046890
p1239
V\uc11c\uc6b8\ubc18\ub3c4\uccb4
p1240
sV019170
p1241
V\uc2e0\ud48d\uc81c\uc57d
p1242
sV002840
p1243
V\ubbf8\uc6d0\uc0c1\uc0ac
p1244
sV019175
p1245
V\uc2e0\ud48d\uc81c\uc57d\uc6b0
p1246
sV139660
p1247
VKOSEF \ub2ec\ub7ec\uc778\ubc84\uc2a4\uc120\ubb3c
p1248
sV003000
p1249
V\ubd80\uad11\uc57d\ud488
p1250
sV002200
p1251
V\uc218\ucd9c\ud3ec\uc7a5
p1252
sV048530
p1253
V\uc778\ud2b8\ub860\ubc14\uc774\uc624
p1254
sV036460
p1255
V\ud55c\uad6d\uac00\uc2a4\uacf5\uc0ac
p1256
sV218420
p1257
VKODEX \ubbf8\uad6d\uc5d0\ub108\uc9c0(\ud569\uc131)
p1258
sV091170
p1259
VKODEX \uc740\ud589
p1260
sV049800
p1261
V\uc6b0\uc9c4\ud50c\ub77c\uc784
p1262
sV00781K
p1263
V\ucf54\ub9ac\uc544\uc368\ud0a4\ud2b82\uc6b0B
p1264
sV041440
p1265
V\uc5d0\ubc84\ub2e4\uc784
p1266
sV019770
p1267
V\uc11c\uc5f0\ud0d1\uba54\ud0c8
p1268
sV#152550
p1269
V\ud55c\uad6dANKOR\uc720\uc804
p1270
sV066575
p1271
VLG\uc804\uc790\uc6b0
p1272
sV012205
p1273
V\uacc4\uc591\uc804\uae30\uc6b0
p1274
sV232590
p1275
VKINDEX \uace8\ub4dc\uc120\ubb3c \uc778\ubc84\uc2a42X(\ud569\uc131 H)
p1276
sV012200
p1277
V\uacc4\uc591\uc804\uae30
p1278
sV074600
p1279
V\uc6d0\uc775QnC
p1280
sV049480
p1281
V\uc624\ud508\ubca0\uc774\uc2a4
p1282
sV016580
p1283
V\ud658\uc778\uc81c\uc57d
p1284
sV073070
p1285
V\ub125\uc13c\ud14c\ud06c
p1286
sV025540
p1287
V\ud55c\uad6d\ub2e8\uc790
p1288
sV083790
p1289
V\ud06c\ub9ac\uc2a4\ud0c8
p1290
sV024890
p1291
V\ub300\uc6d0\ud654\uc131
p1292
sV080220
p1293
V\uc81c\uc8fc\ubc18\ub3c4\uccb4
p1294
sV051170
p1295
V\uc36c\ucf54\uc5b4
p1296
sV044380
p1297
V\uc8fc\uc5f0\ud14c\ud06c
p1298
sV019590
p1299
V\uc5e0\ubca4\ucc98\ud22c\uc790
p1300
sV006140
p1301
V\ud53c\uc81c\uc774\uc804\uc790
p1302
sV016100
p1303
V\ub9ac\ub354\uc2a4\ucf54\uc2a4\uba54\ud2f1
p1304
sV016360
p1305
V\uc0bc\uc131\uc99d\uad8c
p1306
sV001420
p1307
V\ud0dc\uc6d0\ubb3c\uc0b0
p1308
sV000910
p1309
V\uc720\ub2c8\uc628
p1310
sV069510
p1311
V\uc5d0\uc2a4\ud14d
p1312
sV050540
p1313
V\uc5e0\ud53c\uc528
p1314
sV059210
p1315
V\uba54\ud0c0\ubc14\uc774\uc624\uba54\ub4dc
p1316
sV138930
p1317
VBNK\uae08\uc735\uc9c0\uc8fc
p1318
sV006360
p1319
VGS\uac74\uc124
p1320
sV074150
p1321
V\uc5e0\uc81c\uc774\ube44
p1322
sV226980
p1323
VKODEX 200 \uc911\uc18c\ud615
p1324
sV083640
p1325
V\uc778\ucf58
p1326
sV047440
p1327
V\ub808\uc774\uc820
p1328
sV039230
p1329
V\uc194\ube0c\ub808\uc778\uc774\uc5d4\uc9c0
p1330
sV002420
p1331
V\uc138\uae30\uc0c1\uc0ac
p1332
sV017180
p1333
V\uba85\ubb38\uc81c\uc57d
p1334
sV037330
p1335
V\uc778\uc9c0\ub514\uc2a4\ud50c\ub808
p1336
sV161490
p1337
VARIRANG \ubc29\uc5b4\uc8fc
p1338
sV033320
p1339
V\uc81c\uc774\uc528\ud604\uc2dc\uc2a4\ud15c
p1340
sV008355
p1341
V\ub0a8\uc120\uc54c\ubbf8\uc6b0
p1342
sV020400
p1343
V\ub300\ub3d9\uae08\uc18d
p1344
sV010690
p1345
V\ud654\uc2e0
p1346
sV060240
p1347
V\ub8fd\ud22c\ucf54\ub9ac\uc544
p1348
sV000590
p1349
VCS\ud640\ub529\uc2a4
p1350
sV001515
p1351
VSK\uc99d\uad8c\uc6b0
p1352
sV001510
p1353
VSK\uc99d\uad8c
p1354
sV034220
p1355
VLG\ub514\uc2a4\ud50c\ub808\uc774
p1356
sV219480
p1357
VKODEX S&P500\uc120\ubb3c(H)
p1358
sV033920
p1359
V\ubb34\ud559
p1360
sV033250
p1361
V\uccb4\uc2dc\uc2a4
p1362
sV024090
p1363
V\ub514\uc528\uc5e0
p1364
sV030210
p1365
VKTB\ud22c\uc790\uc99d\uad8c
p1366
sV143460
p1367
VKINDEX \ubc38\ub958\ub300\ud615
p1368
sV228800
p1369
VTIGER \uc5ec\ud589\ub808\uc800
p1370
sV087010
p1371
V\ud3a9\ud2b8\ub860
p1372
sV084180
p1373
V\uc218\uc131
p1374
sV009460
p1375
V\ud55c\ucc3d\uc81c\uc9c0
p1376
sV161000
p1377
V\uc560\uacbd\uc720\ud654
p1378
sV570008
p1379
VTRUE \uc139\ud130\ud0d1\ud53d ETN
p1380
sV034590
p1381
V\uc778\ucc9c\ub3c4\uc2dc\uac00\uc2a4
p1382
sV026960
p1383
V\ub3d9\uc11c
p1384
sV069330
p1385
V\uc720\uc544\uc774\ub514
p1386
sV060480
p1387
V\uad6d\uc77c\uc2e0\ub3d9
p1388
sV025870
p1389
V\uc2e0\ub77c\uc5d0\uc2a4\uc9c0
p1390
sV005180
p1391
V\ube59\uadf8\ub808
p1392
sV036260
p1393
V\uc774\ub9e4\uc9c4\uc544\uc2dc\uc544
p1394
sV035080
p1395
V\uc778\ud130\ud30c\ud06c\ud640\ub529\uc2a4
p1396
sV042660
p1397
V\ub300\uc6b0\uc870\uc120\ud574\uc591
p1398
sV052300
p1399
VW\ud640\ub529\ucef4\ud37c\ub2c8
p1400
sV056080
p1401
V\uc720\uc9c4\ub85c\ubd07
p1402
sV040610
p1403
VSG&G
p1404
sV100220
p1405
V\ube44\uc0c1\uad50\uc721
p1406
sV550022
p1407
VQV \uc0ac\ubb3c\uc778\ud130\ub137 \ud14c\ub9c8 ETN
p1408
sV004920
p1409
V\uc528\uc544\uc774\ud14c\ud06c
p1410
sV550020
p1411
VQV 2\ucc28\uc804\uc9c0 \ud14c\ub9c8 ETN
p1412
sV100910
p1413
VKOSEF KRX100
p1414
sV550026
p1415
VQV KTOP30 ETN
p1416
sV550024
p1417
VQV \uc218\uc790\uc6d0 \ud14c\ub9c8 ETN
p1418
sV550025
p1419
VQV HMR \ud14c\ub9c8 ETN
p1420
sV005980
p1421
V\uc131\uc9c0\uac74\uc124
p1422
sV005450
p1423
V\uc2e0\ud55c
p1424
sV032680
p1425
V\uc18c\ud504\ud2b8\uc13c
p1426
sV032685
p1427
V\uc18c\ud504\ud2b8\uc13c\uc6b0
p1428
sV052670
p1429
V\uc81c\uc77c\ubc14\uc774\uc624
p1430
sV141240
p1431
VARIRANG K100EW
p1432
sV061460
p1433
V\ud55c\uc9c4\ud53c\uc564\uc528
p1434
sV015590
p1435
V\ub300\uacbd\uae30\uacc4
p1436
sV185750
p1437
V\uc885\uadfc\ub2f9
p1438
sV101060
p1439
VSBS\ubbf8\ub514\uc5b4\ud640\ub529\uc2a4
p1440
sV092230
p1441
VKPX\ud640\ub529\uc2a4
p1442
sV057680
p1443
V\uc634\ub2c8\ud154
p1444
sV009310
p1445
V\ucc38\uc5d4\uc9c0\ub2c8\uc5b4\ub9c1
p1446
sV035420
p1447
VNAVER
p1448
sV215620
p1449
V\ud765\uad6d S&P \ub85c\uc6b0\ubcfc
p1450
sV530015
p1451
V\uc0bc\uc131 \ubbf8\uad6d \ub300\ud615 \uc131\uc7a5\uc8fc ETN(H)
p1452
sV093050
p1453
VLF
p1454
sV067160
p1455
V\uc544\ud504\ub9ac\uce74TV
p1456
sV012690
p1457
V\ubaa8\ub098\ub9ac\uc790
p1458
sV005850
p1459
V\uc5d0\uc2a4\uc5d8
p1460
sV015020
p1461
V\uc774\uc2a4\ud0c0\ucf54
p1462
sV065770
p1463
VCS
p1464
sV139270
p1465
VTIGER 200 \uae08\uc735
p1466
sV078650
p1467
V\ucf54\ub80c
p1468
sV090980
p1469
V\ucf54\ub9ac\uc54402\ud638
p1470
sV152870
p1471
V\ud30c\uc6cc K200
p1472
sV004450
p1473
V\uc0bc\ud654\uc655\uad00
p1474
sV004100
p1475
V\ud0dc\uc591\uae08\uc18d
p1476
sV004105
p1477
V\ud0dc\uc591\uae08\uc18d\uc6b0
p1478
sV023600
p1479
V\uc0bc\ubcf4\ud310\uc9c0
p1480
sV003670
p1481
V\ud3ec\uc2a4\ucf54\ucf10\ud14d
p1482
sV152500
p1483
VKINDEX \ub808\ubc84\ub9ac\uc9c0
p1484
sV003450
p1485
V\ud604\ub300\uc99d\uad8c
p1486
sV049720
p1487
V\uace0\ub824\uc2e0\uc6a9\uc815\ubcf4
p1488
sV105560
p1489
VKB\uae08\uc735
p1490
sV038060
p1491
V\ub8e8\uba58\uc2a4
p1492
sV003100
p1493
V\uc120\uad11
p1494
sV097750
p1495
VTREX \uc911\uc18c\ud615\uac00\uce58
p1496
sV153270
p1497
VKOSEF 100
p1498
sV003580
p1499
V\ub3d9\uc6d0
p1500
sV138250
p1501
V\uc5d4\uc5d0\uc2a4\uc1fc\ud551
p1502
sV068790
p1503
VDMS
p1504
sV003070
p1505
V\ucf54\uc624\ub871\uae00\ub85c\ubc8c
p1506
sV023460
p1507
VCNH
p1508
sV045300
p1509
V\uc131\uc6b0\ud14c\ud06c\ub860
p1510
sV003075
p1511
V\ucf54\uc624\ub871\uae00\ub85c\ubc8c\uc6b0
p1512
sV008350
p1513
V\ub0a8\uc120\uc54c\ubbf8\ub284
p1514
sV013870
p1515
V\uc9c0\uc5e0\ube44\ucf54\ub9ac\uc544
p1516
sV049120
p1517
V\ud30c\uc778\ub514\uc564\uc528
p1518
sV053210
p1519
V\uc2a4\uce74\uc774\ub77c\uc774\ud504
p1520
sV002210
p1521
V\ub3d9\uc131\uc81c\uc57d
p1522
sV049830
p1523
V\uc2b9\uc77c
p1524
sV204320
p1525
V\ub9cc\ub3c4
p1526
sV091160
p1527
VKODEX \ubc18\ub3c4\uccb4
p1528
sV099350
p1529
V\ud558\ub098\ub2c8\ucf082\ud638
p1530
sV007370
p1531
V\uc9c4\uc591\uc81c\uc57d
p1532
sV048830
p1533
V\uc5d4\ud53c\ucf00\uc774
p1534
sV039420
p1535
V\ucf00\uc774\uc5d8\ub137
p1536
sV007570
p1537
V\uc77c\uc591\uc57d\ud488
p1538
sV033130
p1539
V\ub514\uc9c0\ud2c0\uc870\uc120
p1540
sV065940
p1541
V\ucf00\uc774\uc5d0\uc2a4\uc528\ube44
p1542
sV054670
p1543
V\ub300\ud55c\ub274\ud31c
p1544
sV072710
p1545
V\ub18d\uc2ec\ud640\ub529\uc2a4
p1546
sV005320
p1547
V\uad6d\ub3d9
p1548
sV211900
p1549
VKODEX \ubc30\ub2f9\uc131\uc7a5
p1550
sV038880
p1551
V\uc544\uc774\uc5d0\uc774
p1552
sV001630
p1553
V\uc885\uadfc\ub2f9\ud640\ub529\uc2a4
p1554
sV016590
p1555
V\uc2e0\ub300\uc591\uc81c\uc9c0
p1556
sV025550
p1557
V\ud55c\uad6d\uc120\uc7ac
p1558
sV007575
p1559
V\uc77c\uc591\uc57d\ud488\uc6b0
p1560
sV168490
p1561
V\ud55c\uad6d\ud328\ub7ec\ub7a0
p1562
sV085310
p1563
V\uc5d4\ucf00\uc774
p1564
sV051160
p1565
V\uc9c0\uc5b4\uc18c\ud504\ud2b8
p1566
sV003850
p1567
V\ubcf4\ub839\uc81c\uc57d
p1568
sV007770
p1569
V\ud55c\uc77c\ud654\ud559
p1570
sV108675
p1571
VLG\ud558\uc6b0\uc2dc\uc2a4\uc6b0
p1572
sV108670
p1573
VLG\ud558\uc6b0\uc2dc\uc2a4
p1574
sV082850
p1575
V\uc6b0\ub9ac\uc774\ud2f0\uc544\uc774
p1576
sV046940
p1577
V\uc6b0\uc6d0\uac1c\ubc1c
p1578
sV233160
p1579
VTIGER \ucf54\uc2a4\ub2e5150 \ub808\ubc84\ub9ac\uc9c0
p1580
sV024950
p1581
V\uc0bc\ucc9c\ub9ac\uc790\uc804\uac70
p1582
sV038530
p1583
V\ucf54\uc544\ud06c\ub85c\uc2a4
p1584
sV033790
p1585
V\uc11c\ud654\uc815\ubcf4\ud1b5\uc2e0
p1586
sV042520
p1587
V\ud55c\uc2a4\ubc14\uc774\uc624\uba54\ub4dc
p1588
sV027970
p1589
V\uc138\ud558
p1590
sV156080
p1591
VKODEX MSCI KOREA
p1592
sV039200
p1593
V\uc624\uc2a4\ucf54\ud14d
p1594
sV138920
p1595
VKODEX \ucf69\uc120\ubb3c(H)
p1596
sV001745
p1597
VSK\ub124\ud2b8\uc6cd\uc2a4\uc6b0
p1598
sV064800
p1599
V\ud544\ub9c1\ud06c
p1600
sV001740
p1601
VSK\ub124\ud2b8\uc6cd\uc2a4
p1602
sV003920
p1603
V\ub0a8\uc591\uc720\uc5c5
p1604
sV033640
p1605
V\ub124\ud328\uc2a4
p1606
sV033310
p1607
V\ub514\ucf00\uc774\ub514\uc564\uc544\uc774
p1608
sV003925
p1609
V\ub0a8\uc591\uc720\uc5c5\uc6b0
p1610
sV041650
p1611
V\uc0c1\uc2e0\ube0c\ub808\uc774\ud06c
p1612
sV017370
p1613
V\uc6b0\uc2e0\uc2dc\uc2a4\ud15c
p1614
sV090355
p1615
V\ub178\ub8e8\ud398\uc778\ud2b8\uc6b0
p1616
sV144600
p1617
VKODEX \uc740\uc120\ubb3c(H)
p1618
sV090350
p1619
V\ub178\ub8e8\ud398\uc778\ud2b8
p1620
sV195870
p1621
V\ud574\uc131\ub514\uc5d0\uc2a4
p1622
sV060250
p1623
VNHN\ud55c\uad6d\uc0ac\uc774\ubc84\uacb0\uc81c
p1624
sV006220
p1625
V\uc81c\uc8fc\uc740\ud589
p1626
sV051370
p1627
V\uc778\ud130\ud50c\ub809\uc2a4
p1628
sV001290
p1629
V\uace8\ub4e0\ube0c\ub9bf\uc9c0\uc99d\uad8c
p1630
sV001560
p1631
V\uc81c\uc77c\uc5f0\ub9c8
p1632
sV084680
p1633
V\uc774\uc6d4\ub4dc
p1634
sV002720
p1635
V\uad6d\uc81c\uc57d\ud488
p1636
sV030200
p1637
VKT
p1638
sV025950
p1639
V\ub3d9\uc2e0\uac74\uc124
p1640
sV061250
p1641
V\ud654\uc77c\uc57d\ud488
p1642
sV087220
p1643
V\uc2a4\ud2f8\ud50c\ub77c\uc6cc
p1644
sV036620
p1645
V\ubc84\ucd94\uc5bc\ud14d
p1646
sV228810
p1647
VTIGER \ubbf8\ub514\uc5b4\ucee8\ud150\uce20
p1648
sV061040
p1649
V\uc54c\uc5d0\ud504\ud14d
p1650
sV009410
p1651
V\ud0dc\uc601\uac74\uc124
p1652
sV042700
p1653
V\ud55c\ubbf8\ubc18\ub3c4\uccb4
p1654
sV001360
p1655
V\uc0bc\uc131\uc81c\uc57d
p1656
sV009415
p1657
V\ud0dc\uc601\uac74\uc124\uc6b0
p1658
sV000760
p1659
V\uc774\ud654\uc0b0\uc5c5
p1660
sV043650
p1661
V\uad6d\uc21c\ub2f9
p1662
sV011930
p1663
V\uc2e0\uc131\uc194\ub77c\uc5d0\ub108\uc9c0
p1664
sV085620
p1665
V\ubbf8\ub798\uc5d0\uc14b\uc0dd\uba85
p1666
sV038540
p1667
V\ud14d\uc140\ub124\ud2b8\ucef4
p1668
sV011330
p1669
V\uc720\ub2c8\ucf10
p1670
sV090970
p1671
V\ucf54\ub9ac\uc54401\ud638
p1672
sV005620
p1673
V\ub300\uc131\ud569\ub3d9\uc9c0\uc8fc
p1674
sV005190
p1675
V\ub3d9\uc131\ud654\ud559
p1676
sV027390
p1677
V\ud55c\ud654\uac24\ub7ec\ub9ac\uc544\ud0c0\uc784\uc6d4\ub4dc
p1678
sV039830
p1679
V\uc624\ub85c\ub77c
p1680
sV166400
p1681
VTIGER \ucee4\ubc84\ub4dcC200
p1682
sV035760
p1683
VCJ\uc624\uc1fc\ud551
p1684
sV009520
p1685
V\ud3ec\uc2a4\ucf54\uc5e0\ud14d
p1686
sV042670
p1687
V\ub450\uc0b0\uc778\ud504\ub77c\ucf54\uc5b4
p1688
sV114090
p1689
VGKL
p1690
sV500020
p1691
V\uc2e0\ud55c \ub808\ubc84\ub9ac\uc9c0 \ub2e4\uc6b0\uc874\uc2a4\uc9c0\uc218 \uc120\ubb3c ETN(H)
p1692
sV005440
p1693
V\ud604\ub300\uadf8\ub9b0\ud478\ub4dc
p1694
sV004910
p1695
V\uc870\uad11\ud398\uc778\ud2b8
p1696
sV082210
p1697
V\uc635\ud2b8\ub860\ud14d
p1698
sV092220
p1699
VKEC
p1700
sV032830
p1701
V\uc0bc\uc131\uc0dd\uba85
p1702
sV031330
p1703
V\uc5d0\uc2a4\uc5d0\uc774\uc5e0\ud2f0
p1704
sV009320
p1705
V\ub300\uc6b0\ubd80\ud488
p1706
sV052400
p1707
V\ucf54\ub098\uc544\uc774
p1708
sV004000
p1709
V\ub86f\ub370\uc815\ubc00\ud654\ud559
p1710
sV076080
p1711
V\uc6f0\ud06c\ub860\ud55c\ud14d
p1712
sV067170
p1713
V\uc624\ud14d
p1714
sV150460
p1715
VTIGER \uc911\uad6d\uc18c\ube44\ud14c\ub9c8
p1716
sV054800
p1717
V\uc544\uc774\ub514\uc2a4\ud640\ub529\uc2a4
p1718
sV011790
p1719
VSKC
p1720
sV139260
p1721
VTIGER 200 IT
p1722
sV090990
p1723
V\ucf54\ub9ac\uc54403\ud638
p1724
sV077970
p1725
VSTX\uc5d4\uc9c4
p1726
sV026040
p1727
V\uc81c\uc774\uc5d0\uc2a4\ud2f0\ub098
p1728
sV005990
p1729
V\ub9e4\uc77c\uc720\uc5c5
p1730
sV088910
p1731
V\ub3d9\uc6b0
p1732
sV140700
p1733
VKODEX \ubcf4\ud5d8
p1734
sV004710
p1735
V\ud55c\uc194\ud14c\ud06c\ub2c9\uc2a4
p1736
sV007160
p1737
V\uc0ac\uc870\uc0b0\uc5c5
p1738
sV066310
p1739
V\ud050\uc5d0\uc2a4\uc544\uc774
p1740
sV023810
p1741
V\uc778\ud329
p1742
sV003470
p1743
V\uc720\uc548\ud0c0\uc99d\uad8c
p1744
sV204480
p1745
VTIGER \ucc28\uc774\ub098A\ub808\ubc84\ub9ac\uc9c0(\ud569\uc131)
p1746
sV067770
p1747
V\uc138\uc9c4\ud2f0\uc5d0\uc2a4
p1748
sV003060
p1749
V\uc288\ub12c\uc0dd\uba85\uacfc\ud559
p1750
sV088350
p1751
V\ud55c\ud654\uc0dd\uba85
p1752
sV012860
p1753
V\uc11c\uc5f0\uc804\uc790
p1754
sV053590
p1755
V\ud55c\uad6d\ud14c\ud06c\ub180\ub85c\uc9c0
p1756
sV053260
p1757
V\uae08\uac15\ucca0\uac15
p1758
sV006050
p1759
V\uad6d\uc601\uc9c0\uc564\uc5e0
p1760
sV122900
p1761
V\uc544\uc774\ub9c8\ucf13\ucf54\ub9ac\uc544
p1762
sV139310
p1763
VTIGER \uae08\uc18d\uc120\ubb3c(H)
p1764
sV002880
p1765
V\ub300\uc720\uc5d0\uc774\ud14d
p1766
sV072470
p1767
V\uc6b0\ub9ac\uc0b0\uc5c5\ud640\ub529\uc2a4
p1768
sV002220
p1769
V\ud55c\uc77c\ucca0\uac15
p1770
sV077280
p1771
V\ud55c\ucef4\uc9c0\uc5e0\ub514
p1772
sV086960
p1773
VMDS\ud14c\ud06c
p1774
sV013310
p1775
V\uc544\uc9c4\uc0b0\uc5c5
p1776
sV096760
p1777
VJW\ud640\ub529\uc2a4
p1778
sV065950
p1779
V\uc6f0\ud06c\ub860
p1780
sV041460
p1781
V\ud55c\uad6d\uc804\uc790\uc778\uc99d
p1782
sV038680
p1783
V\uc5d0\uc2a4\ub137
p1784
sV058370
p1785
V\uae08\uc131\ud14c\ud06c
p1786
sV176710
p1787
V\ud30c\uc6cc \uad6d\uace0\ucc44
p1788
sV068870
p1789
VLG\uc0dd\uba85\uacfc\ud559
p1790
sV068875
p1791
VLG\uc0dd\uba85\uacfc\ud559\uc6b0
p1792
sV003280
p1793
V\ud765\uc544\ud574\uc6b4
p1794
sV025560
p1795
V\ubbf8\ub798\uc0b0\uc5c5
p1796
sV001620
p1797
V\ub3d9\uad6d\uc2e4\uc5c5
p1798
sV078340
p1799
V\ucef4\ud22c\uc2a4
p1800
sV038500
p1801
V\ub3d9\uc591\uc2dc\uba58\ud2b8
p1802
sV036530
p1803
VS&T\ud640\ub529\uc2a4
p1804
sV006980
p1805
V\uc6b0\uc131\uc0ac\ub8cc
p1806
sV143860
p1807
VTIGER \ud5ec\uc2a4\ucf00\uc5b4
p1808
sV007340
p1809
V\ub3d9\uc544\ud0c0\uc774\uc5b4
p1810
sV099340
p1811
V\ud558\ub098\ub2c8\ucf081\ud638
p1812
sV066130
p1813
V\ud558\uce20
p1814
sV003080
p1815
V\uc131\ubcf4\ud654\ud559
p1816
sV024940
p1817
VPN\ud48d\ub144
p1818
sV120030
p1819
V\uc870\uc120\uc120\uc7ac
p1820
sV006340
p1821
V\ub300\uc6d0\uc804\uc120
p1822
sV006345
p1823
V\ub300\uc6d0\uc804\uc120\uc6b0
p1824
sV033780
p1825
VKT&G
p1826
sV138910
p1827
VKODEX \uad6c\ub9ac\uc120\ubb3c(H)
p1828
sV123890
p1829
V\ud55c\uad6d\uc790\uc0b0\uc2e0\ud0c1
p1830
sV002150
p1831
V\ub3c4\ud654\uc5d4\uc9c0\ub2c8\uc5b4\ub9c1
p1832
sV025890
p1833
V\ud55c\uad6d\uc8fc\uac15
p1834
sV034730
p1835
VSK
p1836
sV103130
p1837
V\uc6c5\uc9c4\uc5d0\ub108\uc9c0
p1838
sV001750
p1839
V\ud55c\uc591\uc99d\uad8c
p1840
sV038340
p1841
V\ub9ac\uc820
p1842
sV050760
p1843
V\uc5d0\uc2a4\ud3f4\ub9ac\ud14d
p1844
sV083660
p1845
VCSA \ucf54\uc2a4\ubbf9
p1846
sV048770
p1847
VTPC
p1848
sV044450
p1849
VKSS\ud574\uc6b4
p1850
sV060260
p1851
V\ub274\ubcf4\ud14d
p1852
sV052190
p1853
V\uc18c\ud504\ud2b8\ub9e5\uc2a4
p1854
sV000370
p1855
V\ud55c\ud654\uc190\ud574\ubcf4\ud5d8
p1856
sV051360
p1857
V\ud1a0\ube44\uc2a4
p1858
sV234790
p1859
VKINDEX \ucf54\uc2a4\ub2e5150 \ub808\ubc84\ub9ac\uc9c0
p1860
sV001570
p1861
V\uae08\uc591
p1862
sV084690
p1863
V\ub300\uc0c1\ud640\ub529\uc2a4
p1864
sV017960
p1865
V\ud55c\uad6d\uce74\ubcf8
p1866
sV084695
p1867
V\ub300\uc0c1\ud640\ub529\uc2a4\uc6b0
p1868
sV002710
p1869
VTCC\ub3d9\uc591
p1870
sV030270
p1871
V\uc5d0\uc2a4\ub9c8\ud06c
p1872
sV078000
p1873
V\ud154\ucf54\uc6e8\uc5b4
p1874
sV000970
p1875
V\ud55c\uad6d\uc8fc\ucca0\uad00
p1876
sV035600
p1877
VKG\uc774\ub2c8\uc2dc\uc2a4
p1878
sV040350
p1879
V\ud050\ub85c\ucef4
p1880
sV060310
p1881
V3S
p1882
sV033270
p1883
V\uc720\ub098\uc774\ud2f0\ub4dc\uc81c\uc57d
p1884
sV010780
p1885
V\uc544\uc774\uc5d0\uc2a4\ub3d9\uc11c
p1886
sV228820
p1887
VTIGER KTOP30
p1888
sV014990
p1889
V\uc778\ub514\uc5d0\ud504
p1890
sV078130
p1891
V\uad6d\uc77c\uc81c\uc9c0
p1892
sV047080
p1893
V\ud55c\ube5b\uc18c\ud504\ud2b8
p1894
sV017890
p1895
V\ud55c\uad6d\uc54c\ucf5c
p1896
sV000480
p1897
V\uc870\uc120\ub0b4\ud654
p1898
sV083470
p1899
VKJ\ud504\ub9ac\ud14d
p1900
sV234310
p1901
VKBSTAR V&S\uc140\ub809\ud2b8\ubc38\ub958
p1902
sV047770
p1903
V\ucf54\ub370\uc988\ucef4\ubc14\uc778
p1904
sV026940
p1905
V\ubd80\uad6d\ucca0\uac15
p1906
sV011320
p1907
V\uc720\ub2c8\ud06c
p1908
sV051980
p1909
V\ub125\uc2a4\ud2b8\ubc14\uc774\uc624\ud640\ub529\uc2a4
p1910
sV005610
p1911
V\uc0bc\ub9bd\uc2dd\ud488
p1912
sV014200
p1913
V\uad11\ub9bc
p1914
sV000155
p1915
V\ub450\uc0b0\uc6b0
p1916
sV000157
p1917
V\ub450\uc0b02\uc6b0B
p1918
sV000150
p1919
V\ub450\uc0b0
p1920
sV014190
p1921
V\uc6d0\uc775\ud050\ube0c
p1922
sV217770
p1923
VTIGER \uc6d0\uc720\uc778\ubc84\uc2a4\uc120\ubb3c(H)
p1924
sV227840
p1925
V\ud604\ub300\uc528\uc564\uc5d0\ud504
p1926
sV088290
p1927
V\uc774\uc6d0\ucef4\ud3ec\ud14d
p1928
sV018500
p1929
V\ub3d9\uc6d0\uae08\uc18d
p1930
sV031430
p1931
V\uc2e0\uc138\uacc4\uc778\ud130\ub0b4\uc154\ub0a0
p1932
sV000390
p1933
V\uc0bc\ud654\ud398\uc778\ud2b8
p1934
sV011810
p1935
VSTX
p1936
sV016710
p1937
V\ub300\uc131\ud640\ub529\uc2a4
p1938
sV009240
p1939
V\ud55c\uc0d8
p1940
sV005290
p1941
V\ub3d9\uc9c4\uc384\ubbf8\ucf10
p1942
sV068270
p1943
V\uc140\ud2b8\ub9ac\uc628
p1944
sV065560
p1945
V\ud050\ube0c\uc2a4
p1946
sV084670
p1947
V\ub3d9\uc591\uace0\uc18d
p1948
sV035150
p1949
V\ubc31\uc0b0
p1950
sV009180
p1951
V\ud55c\uc194\ub85c\uc9c0\uc2a4\ud2f1\uc2a4
p1952
sV083580
p1953
V\uc544\uc2dc\uc54411\ud638
p1954
sV005500
p1955
V\uc0bc\uc9c4\uc81c\uc57d
p1956
sV014440
p1957
V\uc601\ubcf4\ud654\ud559
p1958
sV550008
p1959
VQV \uc18c\ud504\ud2b8\uc6e8\uc5b4 TOP5 ETN
p1960
sV550009
p1961
VQV \ud558\ub4dc\uc6e8\uc5b4 TOP5 ETN
p1962
sV550004
p1963
VQV \ub871\uc20f K150 \ub9e4\uc218 \ub85c\uc6b0\ubcfc \ub9e4\ub3c4 ETN
p1964
sV550005
p1965
VQV \uc5d0\ub108\uc9c0 TOP5 ETN
p1966
sV550006
p1967
VQV \ub0b4\uc218\uc18c\ube44 TOP5 ETN
p1968
sV550007
p1969
VQV \uc870\uc120 TOP5 ETN
p1970
sV550001
p1971
VQV Big Vol ETN
p1972
sV550002
p1973
VQV WISE \ubc30\ub2f9 ETN
p1974
sV550003
p1975
VQV \uc2a4\ub9c8\ud2b8\ub9ac\ubc38\ub7f0\uc2f1 250/3 ETN
p1976
sV014680
p1977
V\ud55c\uc194\ucf00\ubbf8\uce7c
p1978
sV227930
p1979
VKINDEX \ucf54\uc2a4\ub2e5 150
p1980
sV025440
p1981
V\ub300\uc131\uc5d8\ud14d
p1982
sV000020
p1983
V\ub3d9\ud654\uc57d\ud488
p1984
sV004270
p1985
V\ub0a8\uc131
p1986
sV028080
p1987
V\ud734\ub9e5\uc2a4\ud640\ub529\uc2a4
p1988
sV042110
p1989
V\uc5d0\uc2a4\uc528\ub514
p1990
sV032820
p1991
V\uc6b0\ub9ac\uae30\uc220
p1992
sV100840
p1993
VS&TC
p1994
sV045060
p1995
V\uc624\uacf5
p1996
sV089980
p1997
V\uc0c1\uc544\ud504\ub860\ud14c\ud06c
p1998
sV009620
p1999
V\uc0bc\ubcf4\uc0b0\uc5c5
p2000
sV089470
p2001
V\ud604\ub300EP
p2002
sV011785
p2003
V\uae08\ud638\uc11d\uc720\uc6b0
p2004
sV004870
p2005
V\ud2f0\uc6e8\uc774\ud640\ub529\uc2a4
p2006
sV037460
p2007
V\uc0bc\uc9c0\uc804\uc790
p2008
sV005870
p2009
V\ud734\ub2c8\ub4dc
p2010
sV236460
p2011
VARIRANG \uc2a4\ub9c8\ud2b8\ubca0\ud0c0 LowVOL
p2012
sV011070
p2013
VLG\uc774\ub178\ud14d
p2014
sV014530
p2015
V\uadf9\ub3d9\uc720\ud654
p2016
sV003610
p2017
V\ubc29\ub9bc
p2018
sV033050
p2019
V\uc81c\uc774\uc5e0\uc544\uc774
p2020
sV053690
p2021
V\ud55c\ubbf8\uae00\ub85c\ubc8c
p2022
sV139250
p2023
VTIGER 200 \uc5d0\ub108\uc9c0\ud654\ud559
p2024
sV035200
p2025
V\ud504\ub7fc\ud30c\uc2a4\ud2b8
p2026
sV008110
p2027
V\ub300\ub3d9\uc804\uc790
p2028
sV140710
p2029
VKODEX \uc6b4\uc1a1
p2030
sV004700
p2031
V\uc870\uad11\ud53c\ud601
p2032
sV003120
p2033
V\uc77c\uc131\uc2e0\uc57d
p2034
sV077360
p2035
V\ub355\uc0b0\ud558\uc774\uba54\ud0c8
p2036
sV004490
p2037
V\uc138\ubc29\uc804\uc9c0
p2038
sV023800
p2039
V\uc778\uc9c0\ucee8\ud2b8\ub864\uc2a4
p2040
sV039290
p2041
V\uc778\ud3ec\ubc45\ud06c
p2042
sV138230
p2043
VKOSEF \ub2ec\ub7ec\uc120\ubb3c
p2044
sV008370
p2045
V\uc6d0\ud48d
p2046
sV025620
p2047
VSWH
p2048
sV900140
p2049
V\ucf54\ub77c\uc624\ud640\ub529\uc2a4
p2050
sV032640
p2051
VLG\uc720\ud50c\ub7ec\uc2a4
p2052
sV139320
p2053
VTIGER \uae08\uc740\uc120\ubb3c(H)
p2054
sV040910
p2055
V\uc544\uc774\uc528\ub514
p2056
sV003720
p2057
V\uc0bc\uc601\ud654\ud559
p2058
sV045390
p2059
V\ub300\uc544\ud2f0\uc544\uc774
p2060
sV003547
p2061
V\ub300\uc2e0\uc99d\uad8c2\uc6b0B
p2062
sV036190
p2063
V\uae08\ud654\ud53c\uc5d0\uc2a4\uc2dc
p2064
sV003545
p2065
V\ub300\uc2e0\uc99d\uad8c\uc6b0
p2066
sV003540
p2067
V\ub300\uc2e0\uc99d\uad8c
p2068
sV002230
p2069
V\ud53c\uc5d0\uc2a4\ud14d
p2070
sV066410
p2071
V\uce94\ub4e4\ubbf8\ub514\uc5b4
p2072
sV008970
p2073
V\ub3d9\uc591\ucca0\uad00
p2074
sV084870
p2075
VTBH\uae00\ub85c\ubc8c
p2076
sV096770
p2077
VSK\uc774\ub178\ubca0\uc774\uc158
p2078
sV096775
p2079
VSK\uc774\ub178\ubca0\uc774\uc158\uc6b0
p2080
sV147970
p2081
VTIGER \ubaa8\uba58\ud140
p2082
sV217790
p2083
VTIGER \uac00\uaca9\uc870\uc815
p2084
sV214330
p2085
V\uae08\ud638\uc5d0\uc774\uce58\ud2f0
p2086
sV004090
p2087
V\ud55c\uad6d\uc11d\uc720
p2088
sV007590
p2089
V\ub3d9\ubc29\uc544\uadf8\ub85c
p2090
sV036540
p2091
VSFA\ubc18\ub3c4\uccb4
p2092
sV064960
p2093
VS&T\ubaa8\ud2f0\ube0c
p2094
sV008800
p2095
V\ud589\ub0a8\uc790\uae30
p2096
sV049960
p2097
V\uc38c\ubc14\uc774\uc624\ud14d
p2098
sV012320
p2099
V\uacbd\ub3d9\uac00\uc2a4
p2100
sV016170
p2101
V\ub85c\uc5d4
p2102
sV036830
p2103
V\uc194\ube0c\ub808\uc778
p2104
sV069640
p2105
V\uc5e0\ucf00\uc774\ud2b8\ub80c\ub4dc
p2106
sV066430
p2107
V\uc2e0\ud6c4
p2108
sV066910
p2109
V\uc190\uc624\uacf5
p2110
sV042040
p2111
V\ucf00\uc774\ud53c\uc5e0\ud14c\ud06c
p2112
sV054050
p2113
V\ub18d\uc6b0\ubc14\uc774\uc624
p2114
sV089010
p2115
V\ucf10\ud2b8\ub85c\ub2c9\uc2a4
p2116
sV073110
p2117
V\uc5d8\uc5e0\uc5d0\uc2a4
p2118
sV006400
p2119
V\uc0bc\uc131SDI
p2120
sV168300
p2121
VKTOP 50
p2122
sV006405
p2123
V\uc0bc\uc131SDI\uc6b0
p2124
sV025880
p2125
V\ucf00\uc774\uc528\ud53c\ub4dc
p2126
sV043090
p2127
V\ud31c\uc2a4\uc6f0\ubc14\uc774\uc624
p2128
sV168580
p2129
VKINDEX \uc911\uad6d\ubcf8\ud1a0CSI300
p2130
sV002410
p2131
V\ubc94\uc591\uac74\uc601
p2132
sV002140
p2133
V\uace0\ub824\uc0b0\uc5c5
p2134
sV083930
p2135
V\uc544\ubc14\ucf54
p2136
sV084110
p2137
V\ud734\uc628\uc2a4\uae00\ub85c\ubc8c
p2138
sV123310
p2139
VTIGER \uc778\ubc84\uc2a4
p2140
sV013120
p2141
V\ub3d9\uc6d0\uac1c\ubc1c
p2142
sV122260
p2143
VKOSEF \ud1b5\uc548\ucc44
p2144
sV083610
p2145
V\uc544\uc2dc\uc54414\ud638
p2146
sV043260
p2147
V\uc131\ud638\uc804\uc790
p2148
sV033660
p2149
V\uc544\uc8fc\uce90\ud53c\ud0c8
p2150
sV036490
p2151
VSK\uba38\ud2f0\ub9ac\uc5bc\uc988
p2152
sV004565
p2153
V\ud604\ub300\ube44\uc564\uc9c0\uc2a4\ud2f8\uc6b0
p2154
sV237350
p2155
VKODEX 200 \ub300\ud615
p2156
sV027710
p2157
V\ud31c\uc2a4\ud1a0\ub9ac
p2158
sV001540
p2159
V\uc548\uad6d\uc57d\ud488
p2160
sV001810
p2161
V\ubb34\ub9bcSP
p2162
sV000815
p2163
V\uc0bc\uc131\ud654\uc7ac\uc6b0
p2164
sV000810
p2165
V\uc0bc\uc131\ud654\uc7ac
p2166
sV126560
p2167
V\ud604\ub300\uc5d0\uc774\uce58\uc528\uc5d4
p2168
sV030790
p2169
V\ub3d9\uc591\ub124\ud2b8\uc6cd\uc2a4
p2170
sV079950
p2171
V\uc778\ubca0\ub2c8\uc544
p2172
sV024110
p2173
V\uae30\uc5c5\uc740\ud589
p2174
sV159650
p2175
V\ud558\uc774\uace8\ub4dc8\ud638
p2176
sV002700
p2177
V\uc2e0\uc77c\uc0b0\uc5c5
p2178
sV035900
p2179
VJYP Ent.
p2180
sV047560
p2181
V\uc774\uc2a4\ud2b8\uc18c\ud504\ud2b8
p2182
sV033200
p2183
V\ubaa8\uc544\ud14d
p2184
sV060300
p2185
V\ub808\ub4dc\ub85c\ubc84
p2186
sV017550
p2187
V\uc218\uc0b0\uc911\uacf5\uc5c5
p2188
sV065150
p2189
VMPK
p2190
sV145990
p2191
V\uc0bc\uc591\uc0ac
p2192
sV136340
p2193
VKBSTAR \uc6b0\ub7c9\ud68c\uc0ac\ucc44
p2194
sV145995
p2195
V\uc0bc\uc591\uc0ac\uc6b0
p2196
sV017040
p2197
V\uad11\uba85\uc804\uae30
p2198
sV085370
p2199
V\ub8e8\ud2b8\ub85c\ub2c9
p2200
sV195920
p2201
VTIGER \uc77c\ubcf8(\ud569\uc131 H)
p2202
sV000700
p2203
V\uc720\uc218\ud640\ub529\uc2a4
p2204
sV001380
p2205
VSG\ucda9\ubc29
p2206
sV001140
p2207
V\uad6d\ubcf4
p2208
sV034300
p2209
V\uc2e0\uc138\uacc4\uac74\uc124
p2210
sV000490
p2211
V\ub300\ub3d9\uacf5\uc5c5
p2212
sV075180
p2213
V\uc0c8\ub860\uc624\ud1a0\ubaa8\ud2f0\ube0c
p2214
sV117700
p2215
VKODEX \uac74\uc124
p2216
sV010240
p2217
V\ud765\uad6d
p2218
sV097950
p2219
VCJ\uc81c\uc77c\uc81c\ub2f9
p2220
sV018680
p2221
V\uc11c\uc6b8\uc81c\uc57d
p2222
sV000140
p2223
V\ud558\uc774\ud2b8\uc9c4\ub85c\ud640\ub529\uc2a4
p2224
sV097955
p2225
VCJ\uc81c\uc77c\uc81c\ub2f9 \uc6b0
p2226
sV000145
p2227
V\ud558\uc774\ud2b8\uc9c4\ub85c\ud640\ub529\uc2a4\uc6b0
p2228
sV043710
p2229
V\uc11c\uc6b8\ub9ac\uac70
p2230
sV041920
p2231
V\uba54\ub514\uc544\ub098
p2232
sV052330
p2233
V\ucf54\ud14d
p2234
sV065570
p2235
V\uc0bc\uc601\uc774\uc5d4\uc528
p2236
sV170350
p2237
VTIGER \ubca0\ud0c0\ud50c\ub7ec\uc2a4
p2238
sV083590
p2239
V\uc544\uc2dc\uc54412\ud638
p2240
sV014830
p2241
V\uc720\ub2c8\ub4dc
p2242
sV009290
p2243
V\uad11\ub3d9\uc81c\uc57d
p2244
sV550019
p2245
VQV \uc804\uae30\ucc28 \ud14c\ub9c8 ETN
p2246
sV550018
p2247
VQV CHINEXT ETN(H)
p2248
sV550013
p2249
VQV \ud654\ud559 TOP5 ETN
p2250
sV550012
p2251
VQV \uc758\ub8cc TOP5 ETN
p2252
sV550011
p2253
VQV \uc790\ub3d9\ucc28 TOP5 ETN
p2254
sV550010
p2255
VQV \uc6b4\uc1a1 TOP5 ETN
p2256
sV550016
p2257
VQV \uac74\uc124 TOP5 ETN
p2258
sV550015
p2259
VQV \uc81c\uc57d TOP5 ETN
p2260
sV550014
p2261
VQV \ubc14\uc774\uc624 TOP5 ETN
p2262
sV087600
p2263
V\ud53d\uc140\ud50c\ub7ec\uc2a4
p2264
sV092200
p2265
V\ub514\uc544\uc774\uc528
p2266
sV189400
p2267
VARIRANG AC \uc6d4\ub4dc(\ud569\uc131 H)
p2268
sV052420
p2269
V\uc624\uc131\uc5d8\uc5d0\uc2a4\ud2f0
p2270
sV053110
p2271
V\uc18c\ub9ac\ubc14\ub2e4
p2272
sV000030
p2273
V\uc6b0\ub9ac\uc740\ud589
p2274
sV064350
p2275
V\ud604\ub300\ub85c\ud15c
p2276
sV160580
p2277
VTIGER \uad6c\ub9ac\uc2e4\ubb3c
p2278
sV004800
p2279
V\ud6a8\uc131
p2280
sV011230
p2281
V\uc0bc\ud654\uc804\uc790
p2282
sV011040
p2283
V\uacbd\ub3d9\uc81c\uc57d
p2284
sV015540
p2285
V\ud56b\ud14d
p2286
sV024880
p2287
V\ucf00\uc774\ud53c\uc5d0\ud504
p2288
sV080580
p2289
V\uc624\ud0a8\uc2a4\uc804\uc790
p2290
sV200250
p2291
VKOSEF \uc778\ub514\uc544(\ud569\uc131)
p2292
sV052600
p2293
V\ud55c\ub124\ud2b8
p2294
sV036010
p2295
V\uc544\ube44\ucf54\uc804\uc790
p2296
sV005860
p2297
V\ud55c\uc77c\uc0ac\ub8cc
p2298
sV079190
p2299
VEMW
p2300
sV026260
p2301
V\ubcf4\ud0c0\ubc14\uc774\uc624
p2302
sV093240
p2303
V\ud615\uc9c0\uc5d8\ub9ac\ud2b8
p2304
sV139240
p2305
VTIGER 200 \ucca0\uac15\uc18c\uc7ac
p2306
sV004890
p2307
V\ub3d9\uc77c\uc0b0\uc5c5
p2308
sV053060
p2309
V\uc138\ub3d9
p2310
sV227540
p2311
VTIGER 200 \ud5ec\uc2a4\ucf00\uc5b4
p2312
sV230480
p2313
VKOSEF \ubbf8\uad6d\ub2ec\ub7ec\uc120\ubb3c \uc778\ubc84\uc2a42X(\ud569\uc131)
p2314
sV002920
p2315
V\uc720\uc131\uae30\uc5c5
p2316
sV247800
p2317
VKODEX \ud134\uc5b4\ub77c\uc6b4\ub4dc\ud22c\uc790
p2318
sV152330
p2319
V\ucf54\ub9ac\uc544\uc624\ud1a0\uae00\ub77c\uc2a4
p2320
sV034940
p2321
V\uc870\uc544\uc81c\uc57d
p2322
sV058610
p2323
V\uc5d0\uc2a4\ud53c\uc9c0
p2324
sV012790
p2325
V\uc2e0\uc77c\uc81c\uc57d
p2326
sV004020
p2327
V\ud604\ub300\uc81c\ucca0
p2328
sV008560
p2329
V\uba54\ub9ac\uce20\uc885\uae08\uc99d\uad8c
p2330
sV067080
p2331
V\ub300\ud654\uc81c\uc57d
p2332
sV088800
p2333
V\uc5d0\uc774\uc2a4\ud14c\ud06c
p2334
sV003555
p2335
VLG\uc6b0
p2336
sV003550
p2337
VLG
p2338
sV009155
p2339
V\uc0bc\uc131\uc804\uae30\uc6b0
p2340
sV007610
p2341
V\uc120\ub3c4\uc804\uae30
p2342
sV023900
p2343
V\ud48d\uad6d\uc8fc\uc815
p2344
sV232080
p2345
VTIGER \ucf54\uc2a4\ub2e5150
p2346
sV088390
p2347
V\uc774\ub179\uc2a4
p2348
sV203780
p2349
VTIGER \ub098\uc2a4\ub2e5\ubc14\uc774\uc624
p2350
sV037760
p2351
V\uc384\ub2c8\ud2b8
p2352
sV050110
p2353
V\ucea0\uc2dc\uc2a4
p2354
sV064820
p2355
V\ucf00\uc774\ud504
p2356
sV192530
p2357
V\uad11\uc8fc\uc740\ud589
p2358
sV066590
p2359
V\uc6b0\uc218AMS
p2360
sV039340
p2361
V\ud55c\uad6d\uacbd\uc81cTV
p2362
sV002550
p2363
VKB\uc190\ud574\ubcf4\ud5d8
p2364
sV078935
p2365
VGS\uc6b0
p2366
sV016090
p2367
V\ub300\ud604
p2368
sV078930
p2369
VGS
p2370
sV044180
p2371
VKD\uac74\uc124
p2372
sV002390
p2373
V\ud55c\ub3c5
p2374
sV058430
p2375
V\ud3ec\uc2a4\ucf54\uac15\ud310
p2376
sV091000
p2377
V\ucf54\ub9ac\uc54404\ud638
p2378
sV007720
p2379
V\ub300\uba85\ucf54\ud37c\ub808\uc774\uc158
p2380
sV226380
p2381
VKINDEX \ud55c\ub958
p2382
sV041020
p2383
V\uc778\ud504\ub77c\uc6e8\uc5b4
p2384
sV066110
p2385
V\ud55c\ud504
p2386
sV012330
p2387
V\ud604\ub300\ubaa8\ube44\uc2a4
p2388
sV054040
p2389
V\ud55c\uad6d\ucef4\ud4e8\ud130
p2390
sV006740
p2391
V\uc601\ud48d\uc81c\uc9c0
p2392
sV115390
p2393
V\ub77d\uc564\ub77d
p2394
sV021240
p2395
V\ucf54\uc6e8\uc774
p2396
sV001770
p2397
V\uc2e0\ud654\uc2e4\uc5c5
p2398
sV002170
p2399
V\uc0bc\uc591\ud1b5\uc0c1
p2400
sV037370
p2401
VEG
p2402
sV092440
p2403
V\uae30\uc2e0\uc815\uae30
p2404
sV122090
p2405
VARIRANG KOSPI50
p2406
sV083600
p2407
V\uc544\uc2dc\uc54413\ud638
p2408
sV047400
p2409
V\uc30d\uc6a9\uba38\ud2f0\ub9ac\uc5bc
p2410
sV020710
p2411
V\uc2dc\uacf5\ud14c\ud06c
p2412
sV036480
p2413
V\ub300\uc131\ubbf8\uc0dd\ubb3c
p2414
sV001550
p2415
V\uc870\ube44
p2416
sV192820
p2417
V\ucf54\uc2a4\ub9e5\uc2a4
p2418
sV001800
p2419
V\uc624\ub9ac\uc628
p2420
sV017940
p2421
VE1
p2422
sV078020
p2423
V\uc774\ubca0\uc2a4\ud2b8\ud22c\uc790\uc99d\uad8c
p2424
sV520002
p2425
V\ub300\uc6b0 \ucc28\uc774\ub098 \ub300\ud45c\uc8fc 15 ETN(H)
p2426
sV025980
p2427
V\uc5d0\uba38\uc2a8\ud37c\uc2dc\ud53d
p2428
sV144620
p2429
V\ucf54\uc624\ub871\uba38\ud2f0\ub9ac\uc5bc
p2430
sV030520
p2431
V\ud55c\uae00\uacfc\ucef4\ud4e8\ud130
p2432
sV089030
p2433
V\ud14c\ud06c\uc719
p2434
sV520005
p2435
V\ub300\uc6b0 \uc778\ubc84\uc2a4 \uc804\uae30\uc804\uc790 Core5 ETN
p2436
sV065160
p2437
V\uc5d0\ud504\ud2f0\uc774\uc564\uc774
p2438
sV000950
p2439
V\uc804\ubc29
p2440
sV195930
p2441
VTIGER \uc720\ub85c\uc2a4\ud0c1\uc2a450(\ud569\uc131 H)
p2442
sV027580
p2443
V\uc0c1\ubcf4
p2444
sV123690
p2445
V\ud55c\uad6d\ud654\uc7a5\ud488
p2446
sV024740
p2447
V\ud55c\uc77c\ub2e8\uc870
p2448
sV079970
p2449
V\ud22c\ube44\uc18c\ud504\ud2b8
p2450
sV009420
p2451
V\ud55c\uc62c\ubc14\uc774\uc624\ud30c\ub9c8
p2452
sV001390
p2453
VKG\ucf00\ubbf8\uce7c
p2454
sV145850
p2455
VTREX \ud380\ub354\uba58\ud0c8 200
p2456
sV039010
p2457
V\ud604\ub300\ud1b5\uc2e0
p2458
sV002600
p2459
V\uc870\ud765
p2460
sV083450
p2461
VGST
p2462
sV053800
p2463
V\uc548\ub7a9
p2464
sV028670
p2465
V\ud32c\uc624\uc158
p2466
sV033500
p2467
V\ub3d9\uc131\ud654\uc778\ud14d
p2468
sV085670
p2469
V\ub274\ud504\ub809\uc2a4
p2470
sV064760
p2471
V\ud2f0\uc528\ucf00\uc774
p2472
sV590001
p2473
V\ubbf8\ub798\uc5d0\uc14b \ubbf8\uad6d \ubc14\uc774\ubc31 ETN(H)
p2474
sV590002
p2475
V\ubbf8\ub798\uc5d0\uc14b \uc77c\ubcf8 \ubc14\uc774\ubc31 ETN(H)
p2476
sV590003
p2477
V\ubbf8\ub798\uc5d0\uc14b \uc720\ub7fd \ub300\ud615\uc8fc ETN(H)
p2478
sV590004
p2479
V\ubbf8\ub798\uc5d0\uc14b \uc720\ub7fd \uc911\ud615\uc8fc ETN(H)
p2480
sV590005
p2481
V\ubbf8\ub798\uc5d0\uc14b \uc77c\ubcf8 \ub300\ud615\uc8fc ETN(H)
p2482
sV010470
p2483
V\uc624\ub9ac\ucf64
p2484
sV590007
p2485
V\ubbf8\ub798\uc5d0\uc14b \ubbf8\uad6d \ub300\ud615\uc8fc ETN(H)
p2486
sV590008
p2487
V\ubbf8\ub798\uc5d0\uc14b \ubbf8\uad6d \uc911\ud615\uc8fc ETN(H)
p2488
sV145670
p2489
VKINDEX \uc778\ubc84\uc2a4
p2490
sV011300
p2491
V\uc131\uc548
p2492
sV039610
p2493
V\ud654\uc131
p2494
sV041930
p2495
V\ub3d9\uc544\ud654\uc131
p2496
sV079370
p2497
V\uc81c\uc6b0\uc2a4
p2498
sV105840
p2499
V\uc6b0\uc9c4
p2500
sV02826K
p2501
V\uc0bc\uc131\ubb3c\uc0b0\uc6b0B
p2502
sV225030
p2503
VTIGER S&P500\uc778\ubc84\uc2a4\uc120\ubb3c(H)
p2504
sV056190
p2505
V\uc5d0\uc2a4\uc5d0\ud504\uc5d0\uc774
p2506
sV005070
p2507
V\ucf54\uc2a4\ubaa8\uc2e0\uc18c\uc7ac
p2508
sV014820
p2509
V\ub3d9\uc6d0\uc2dc\uc2a4\ud15c\uc988
p2510
sV055550
p2511
V\uc2e0\ud55c\uc9c0\uc8fc
p2512
sV014825
p2513
V\ub3d9\uc6d0\uc2dc\uc2a4\ud15c\uc988\uc6b0
p2514
sV084650
p2515
V\ub7a9\uc9c0\ub178\ubbf9\uc2a4
p2516
sV005250
p2517
V\ub179\uc2ed\uc790\ud640\ub529\uc2a4
p2518
sV005255
p2519
V\ub179\uc2ed\uc790\ud640\ub529\uc2a41\uc6b0
p2520
sV005257
p2521
V\ub179\uc2ed\uc790\ud640\ub529\uc2a42\uc6b0
p2522
sV004380
p2523
V\uc0bc\uc775THK
p2524
sV070960
p2525
V\uc6a9\ud3c9\ub9ac\uc870\ud2b8
p2526
sV046110
p2527
V\ud55c\uc77c\ub124\ud2b8\uc6cd\uc2a4
p2528
sV145270
p2529
V\ucf00\uc774\ud0d1\ub9ac\uce20
p2530
sV032800
p2531
V\ud310\ud0c0\uc9c0\uc624
p2532
sV043220
p2533
V\uc704\ub4dc\uc708\ub124\ud2b8\uc6cd
p2534
sV028260
p2535
V\uc0bc\uc131\ubb3c\uc0b0
p2536
sV001500
p2537
VHMC\ud22c\uc790\uc99d\uad8c
p2538
sV005380
p2539
V\ud604\ub300\ucc28
p2540
sV005387
p2541
V\ud604\ub300\ucc282\uc6b0B
p2542
sV005385
p2543
V\ud604\ub300\ucc28\uc6b0
p2544
sV008770
p2545
V\ud638\ud154\uc2e0\ub77c
p2546
sV000040
p2547
VKR\ubaa8\ud130\uc2a4
p2548
sV004250
p2549
VNPC
p2550
sV008775
p2551
V\ud638\ud154\uc2e0\ub77c\uc6b0
p2552
sV004255
p2553
VNPC\uc6b0
p2554
sV005670
p2555
V\ud478\ub4dc\uc6f0
p2556
sV009190
p2557
V\ub300\uc591\uae08\uc18d
p2558
sV052290
p2559
V\ud2b8\ub808\uc774\uc2a4
p2560
sV053610
p2561
V\ud504\ub85c\ud14d
p2562
sV026180
p2563
V\ud604\ub300\uc815\ubcf4\uae30\uc220
p2564
sV072520
p2565
V\ud0dc\uc591\uc528\uc564\uc5d8
p2566
sV104520
p2567
VKOSEF \ube14\ub8e8\uce69
p2568
sV046140
p2569
VSBS\ucf58\ud150\uce20\ud5c8\ube0c
p2570
sV036000
p2571
V\uc608\ub9bc\ub2f9
p2572
sV005810
p2573
V\ud48d\uc0b0\ud640\ub529\uc2a4
p2574
sV071280
p2575
V\ub85c\uccb4\uc2dc\uc2a4\ud15c\uc988
p2576
sV097230
p2577
V\ud55c\uc9c4\uc911\uacf5\uc5c5
p2578
sV085810
p2579
V\uc54c\ud2f0\uce90\uc2a4\ud2b8
p2580
sV004650
p2581
V\ucc3d\ud574\uc5d0\ud0c4\uc62c
p2582
sV227550
p2583
VTIGER 200 \uc0b0\uc5c5\uc7ac
p2584
sV005490
p2585
VPOSCO
p2586
sV009770
p2587
V\uc0bc\uc815\ud384\ud504
p2588
sV139290
p2589
VTIGER 200 \uacbd\uae30\uc18c\ube44\uc7ac
p2590
sV038620
p2591
V\uc704\uc988\ucf54\ud504
p2592
sV023350
p2593
V\ud55c\uad6d\uc885\ud569\uae30\uc220
p2594
sV034950
p2595
V\ud55c\uad6d\uae30\uc5c5\ud3c9\uac00
p2596
sV004720
p2597
V\uc6b0\ub9ac\ub4e4\uc81c\uc57d
p2598
sV089140
p2599
V\ub125\uc2a4\ud134
p2600
sV009970
p2601
V\uc601\uc6d0\ubb34\uc5ed\ud640\ub529\uc2a4
p2602
sV011690
p2603
V\uc720\uc591\ub514\uc564\uc720
p2604
sV054920
p2605
V\ud55c\ucef4\uc2dc\ud050\uc5b4
p2606
sV036170
p2607
V\uc528\ud2f0\uc5d8
p2608
sV058110
p2609
V\uba55\uc544\uc774\uc528\uc5d0\uc2a4
p2610
sV038110
p2611
V\uc5d0\ucf54\ud50c\ub77c\uc2a4\ud2f1
p2612
sV035460
p2613
V\uae30\uc0b0\ud154\ub808\ucf64
p2614
sV054450
p2615
V\ud154\ub808\uce69\uc2a4
p2616
sV008000
p2617
V\ub3c4\ub808\uc774\ucf00\ubbf8\uce7c
p2618
sV003560
p2619
VIHQ
p2620
sV003090
p2621
V\ub300\uc6c5
p2622
sV038290
p2623
V\ub9c8\ud06c\ub85c\uc820
p2624
sV050120
p2625
V\ub77c\uc774\ube0c\ud50c\ub809\uc2a4
p2626
sV019010
p2627
V\uadf8\ub79c\ub4dc\ubc31\ud654\uc810
p2628
sV058730
p2629
V\ub3d9\uc544\uc5d0\uc2a4\ud14d
p2630
sV023910
p2631
V\ub300\ud55c\uc57d\ud488
p2632
sV025770
p2633
V\ud55c\uad6d\uc815\ubcf4\ud1b5\uc2e0
p2634
sV054630
p2635
V\uc5d0\uc774\ub514\uce69\uc2a4
p2636
sV007110
p2637
V\uc77c\uc2e0\uc11d\uc7ac
p2638
sV200040
p2639
VKODEX \ubbf8\uad6d\uae08\uc735(\ud569\uc131)
p2640
sV003419
p2641
V\uc30d\uc6a9\uc591\ud68c3\uc6b0B
p2642
sV067630
p2643
V\uc5d0\uc774\uce58\uc5d8\ube44\uc0dd\uba85\uacfc\ud559
p2644
sV161510
p2645
VARIRANG \uace0\ubc30\ub2f9\uc8fc
p2646
sV001940
p2647
VKISCO\ud640\ub529\uc2a4
p2648
sV048410
p2649
V\ud604\ub300\uc544\uc774\ube44\ud2f0
p2650
sV002380
p2651
VKCC
p2652
sV058420
p2653
V\uc81c\uc774\uc6e8\uc774
p2654
sV143850
p2655
VTIGER S&P500\uc120\ubb3c(H)
p2656
sV036560
p2657
V\uc601\ud48d\uc815\ubc00
p2658
sV039570
p2659
V\uc544\uc774\ucf58\ud2b8\ub864\uc2a4
p2660
sV152100
p2661
VARIRANG 200
p2662
sV024910
p2663
V\uacbd\ucc3d\uc0b0\uc5c5
p2664
sV019300
p2665
V\ud0dc\ub9bc\ud398\uc774\ud37c
p2666
sV194370
p2667
V\uc81c\uc774\uc5d0\uc2a4\ucf54\ud37c\ub808\uc774\uc158
p2668
sV012340
p2669
V\ub274\uc778\ud14d
p2670
sV036810
p2671
V\uc5d0\ud504\uc5d0\uc2a4\ud2f0
p2672
sV069660
p2673
VKOSEF 200
p2674
sV006730
p2675
V\uc11c\ubd80T&D
p2676
sV019490
p2677
V\ud558\uc774\ud2b8\ub860
p2678
sV006880
p2679
V\uc2e0\uc1a1\ud640\ub529\uc2a4
p2680
sV006390
p2681
V\ud604\ub300\uc2dc\uba58\ud2b8
p2682
sV137610
p2683
VTIGER \ub18d\uc0b0\ubb3c\uc120\ubb3c(H)
p2684
sV080160
p2685
V\ubaa8\ub450\ud22c\uc5b4
p2686
sV003960
p2687
V\uc0ac\uc870\ub300\ub9bc
p2688
sV005960
p2689
V\ub3d9\ubd80\uac74\uc124
p2690
sV237370
p2691
VKODEX \ubc30\ub2f9\uc131\uc7a5\ucc44\uad8c\ud63c\ud569
p2692
sV021650
p2693
V\ud55c\uad6d\ud050\ube45
p2694
sV049470
p2695
VSGA
p2696
sV000547
p2697
V\ud765\uad6d\ud654\uc7ac2\uc6b0B
p2698
sV000545
p2699
V\ud765\uad6d\ud654\uc7ac\uc6b0
p2700
sV017680
p2701
V\ub370\ucf54\uc564\uc774
p2702
sV000540
p2703
V\ud765\uad6d\ud654\uc7ac
p2704
sV006060
p2705
V\ud654\uc2b9\uc778\ub354
p2706
sV010820
p2707
V\ud37c\uc2a4\ud14d
p2708
sV065170
p2709
V\ub125\uc2a4\ud2b8BT
p2710
sV002760
p2711
V\ubcf4\ub77d
p2712
sV030530
p2713
V\uc6d0\uc775\ud640\ub529\uc2a4
p2714
sV016880
p2715
V\uc6c5\uc9c4
p2716
sV036580
p2717
V\ud31c\uc2a4\ucf54
p2718
sV060980
p2719
V\ud55c\ub77c\ud640\ub529\uc2a4
p2720
sV079980
p2721
V\ud734\ube44\uc2a4
p2722
sV036030
p2723
VKTH
p2724
sV000720
p2725
V\ud604\ub300\uac74\uc124
p2726
sV000725
p2727
V\ud604\ub300\uac74\uc124\uc6b0
p2728
sV041830
p2729
V\uc778\ubc14\ub514
p2730
sV225800
p2731
VKOSEF \ubbf8\uad6d\ub2ec\ub7ec\uc120\ubb3c \ub808\ubc84\ub9ac\uc9c0(\ud569\uc131)
p2732
sV079960
p2733
V\ub3d9\uc591\uc774\uc5d4\ud53c
p2734
sV039020
p2735
V\uc774\uac74\ucc3d\ud638
p2736
sV071055
p2737
V\ud55c\uad6d\uae08\uc735\uc9c0\uc8fc\uc6b0
p2738
sV065350
p2739
V\uc2e0\uc131\ub378\ud0c0\ud14c\ud06c
p2740
sV245710
p2741
VKINDEX \ubca0\ud2b8\ub0a8VN30(\ud569\uc131)
p2742
sV053810
p2743
V\uc544\uc774\ud329\ud1a0\ub9ac
p2744
sV001120
p2745
VLG\uc0c1\uc0ac
p2746
sV033530
p2747
V\uc138\uc885\uacf5\uc5c5
p2748
sV085660
p2749
V\ucc28\ubc14\uc774\uc624\ud14d
p2750
sV010640
p2751
V\uc9c4\uc591\ud3f4\ub9ac
p2752
sV590013
p2753
V\ubbf8\ub798\uc5d0\uc14b \ubbf8\uad6d \ub9ac\uce20 ETN(H)
p2754
sV590012
p2755
V\ubbf8\ub798\uc5d0\uc14b \uae00\ub85c\ubc8c \ub9ac\uce20 ETN(H)
p2756
sV590011
p2757
V\ubbf8\ub798\uc5d0\uc14b \uc778\ubc84\uc2a4 S&P500 ETN(H)
p2758
sV590010
p2759
V\ubbf8\ub798\uc5d0\uc14b \ub808\ubc84\ub9ac\uc9c0 S&P500 ETN(H)
p2760
sV148020
p2761
VKBSTAR 200
p2762
sV086900
p2763
V\uba54\ub514\ud1a1\uc2a4
p2764
sV114100
p2765
VKBSTAR \uad6d\uace0\ucc44
p2766
sV089850
p2767
V\uc720\ube44\ubca8\ub85d\uc2a4
p2768
sV001230
p2769
V\ub3d9\uad6d\uc81c\uac15
p2770
sV119650
p2771
VKC\ucf54\ud2b8\ub810
p2772
sV100250
p2773
V\uc9c4\uc591\ud640\ub529\uc2a4
p2774
sV051390
p2775
VYW
p2776
sV064480
p2777
V\ube0c\ub9ac\uc9c0\ud14d
p2778
sV070590
p2779
V\ud55c\uc194\uc778\ud2f0\ud050\ube0c
p2780
sV039670
p2781
V\uc2a4\ud3ec\uce20\uc11c\uc6b8
p2782
sV068330
p2783
V\uc77c\uc2e0\ubc14\uc774\uc624
p2784
sV011200
p2785
V\ud604\ub300\uc0c1\uc120
p2786
sV130730
p2787
VKOSEF \ub2e8\uae30\uc790\uae08
p2788
sV117580
p2789
V\ub300\uc131\uc5d0\ub108\uc9c0
p2790
sV064240
p2791
V\ud648\uce90\uc2a4\ud2b8
p2792
sV005710
p2793
V\ub300\uc6d0\uc0b0\uc5c5
p2794
sV071970
p2795
VSTX\uc911\uacf5\uc5c5
p2796
sV060720
p2797
VKH\ubc14\ud14d
p2798
sV196030
p2799
VKINDEX \uc77c\ubcf8\ub808\ubc84\ub9ac\uc9c0(H)
p2800
sV078590
p2801
V\ub450\uc62c\uc0b0\uc5c5
p2802
sV005390
p2803
V\uc2e0\uc131\ud1b5\uc0c1
p2804
sV053660
p2805
V\ud604\uc9c4\uc18c\uc7ac
p2806
sV000050
p2807
V\uacbd\ubc29
p2808
sV078350
p2809
V\ud55c\uc591\ub514\uc9c0\ud14d
p2810
sV056700
p2811
V\uc2e0\ud654\uc778\ud130\ud14d
p2812
sV089600
p2813
V\ub098\uc2a4\ubbf8\ub514\uc5b4
p2814
sV009160
p2815
VSIMPAC
p2816
sV037560
p2817
VCJ\ud5ec\ub85c\ube44\uc804
p2818
sV104530
p2819
VKOSEF \uace0\ubc30\ub2f9
p2820
sV032580
p2821
V\ud53c\ub378\ub9ad\uc2a4
p2822
sV018000
p2823
V\uc720\ub2c8\uc2a8
p2824
sV008490
p2825
V\uc11c\ud765
p2826
sV096300
p2827
V\ubca0\ud2b8\ub0a8\uac1c\ubc1c1
p2828
sV063160
p2829
V\uc885\uadfc\ub2f9\ubc14\uc774\uc624
p2830
sV005800
p2831
V\uc2e0\uc601\uc640\ucf54\ub8e8
p2832
sV086390
p2833
V\uc720\ub2c8\ud14c\uc2a4\ud2b8
p2834
sV003620
p2835
V\uc30d\uc6a9\ucc28
p2836
sV079170
p2837
V\ud55c\ucc3d\uc0b0\uc5c5
p2838
sV018310
p2839
V\uc0bc\ubaa9\uc5d0\uc2a4\ud3fc
p2840
sV140580
p2841
VKBSTAR \uc6b0\ub7c9\uc5c5\uc885
p2842
sV227560
p2843
VTIGER 200 \uc0dd\ud65c\uc18c\ube44\uc7ac
p2844
sV057540
p2845
V\uc634\ub2c8\uc2dc\uc2a4\ud15c
p2846
sV052710
p2847
V\uc544\ubaa8\ud14d
p2848
sV086250
p2849
V\ud654\uc2e0\ud14c\ud06c
p2850
sV058630
p2851
V\uc5e0\uac8c\uc784
p2852
sV134380
p2853
V\ubbf8\uc6d0\ud654\ud559
p2854
sV053620
p2855
V\ud0dc\uc591
p2856
sV139280
p2857
VTIGER \uacbd\uae30\ubc29\uc5b4
p2858
sV005935
p2859
V\uc0bc\uc131\uc804\uc790\uc6b0
p2860
sV005930
p2861
V\uc0bc\uc131\uc804\uc790
p2862
sV054930
p2863
V\uc720\uc2e0
p2864
sV015360
p2865
V\uc608\uc2a4\ucf54
p2866
sV089150
p2867
V\ucf00\uc774\uc528\ud2f0
p2868
sV011420
p2869
V\uac24\ub7ed\uc2dc\uc544\uc5d0\uc2a4\uc5e0
p2870
sV045100
p2871
V\ud55c\uc591\uc774\uc5d4\uc9c0
p2872
sV042940
p2873
V\ub974\ub124\ucf54
p2874
sV007630
p2875
V\uc9c0\uc5d0\uc2a4\uc778\uc2a4\ud2b8\ub8e8
p2876
sV003570
p2877
VS&T\uc911\uacf5\uc5c5
p2878
sV023960
p2879
V\uc5d0\uc4f0\uc528\uc5d4\uc9c0\ub2c8\uc5b4\ub9c1
p2880
sV021880
p2881
V\uba54\uc774\uc2a8\uce90\ud53c\ud0c8
p2882
sV012510
p2883
V\ub354\uc874\ube44\uc988\uc628
p2884
sV244620
p2885
VKODEX \ubaa8\uba58\ud140Plus
p2886
sV054620
p2887
VAP\uc2dc\uc2a4\ud15c
p2888
sV079550
p2889
VLIG\ub125\uc2a4\uc6d0
p2890
sV032860
p2891
VGMR \uba38\ud2f0\ub9ac\uc5bc\uc988
p2892
sV200050
p2893
VKODEX MSCI\ub3c5\uc77c(\ud569\uc131)
p2894
sV049770
p2895
V\ub3d9\uc6d0F&B
p2896
sV007120
p2897
V\ubbf8\ub798\uc544\uc774\uc564\uc9c0
p2898
sV161500
p2899
VARIRANG \uc8fc\ub3c4\uc8fc
p2900
sV021080
p2901
V\uc5d0\uc774\ud2f0\ub118\uc778\ubca0\uc2a4\ud2b8
p2902
sV007700
p2903
VF&F
p2904
sV159800
p2905
V\ub9c8\uc774\ud2f0 K100
p2906
sV006650
p2907
V\ub300\ud55c\uc720\ud654
p2908
sV073490
p2909
V\uc774\ub178\uc640\uc774\uc5b4\ub9ac\uc2a4
p2910
sV036570
p2911
V\uc5d4\uc528\uc18c\ud504\ud2b8
p2912
sV039560
p2913
V\ub2e4\uc0b0\ub124\ud2b8\uc6cd\uc2a4
p2914
sV008830
p2915
V\ub300\ub3d9\uae30\uc5b4
p2916
sV024900
p2917
V\ub355\uc591\uc0b0\uc5c5
p2918
sV157520
p2919
VTIGER \ud654\ud559
p2920
sV067990
p2921
V\ub3c4\uc774\uce58\ubaa8\ud130\uc2a4
p2922
sV036800
p2923
V\ub098\uc774\uc2a4\uc815\ubcf4\ud1b5\uc2e0
p2924
sV019660
p2925
V\uae00\ub85c\ubcf8
p2926
sV006890
p2927
V\ud0dc\uacbd\ud654\ud559
p2928
sV204420
p2929
VARIRANG \ucc28\uc774\ub098H \ub808\ubc84\ub9ac\uc9c0(\ud569\uc131 H)
p2930
sV059090
p2931
V\ubbf8\ucf54
p2932
sV048550
p2933
VSM C&C
p2934
sV019685
p2935
V\ub300\uad50\uc6b0B
p2936
sV102110
p2937
VTIGER 200
p2938
sV019680
p2939
V\ub300\uad50
p2940
sV123320
p2941
VTIGER \ub808\ubc84\ub9ac\uc9c0
p2942
sV083620
p2943
V\uc544\uc2dc\uc54415\ud638
p2944
sV037350
p2945
V\uc131\ub3c4\uc774\uc5d4\uc9c0
p2946
sV137930
p2947
V\ub9c8\uc774\ub2e4\uc2a4 \ucee4\ubc84\ub4dc\ucf5c
p2948
sV039490
p2949
V\ud0a4\uc6c0\uc99d\uad8c
p2950
sV155900
p2951
V\ubc14\ub2e4\ub85c19\ud638
p2952
sV208470
p2953
VSMART MSCI\uc120\uc9c4\uad6d(\ud569\uc131 H)
p2954
sV067570
p2955
V\uc5d4\ube0c\uc774\uc5d0\uc774\uce58\ucf54\ub9ac\uc544
p2956
sV073010
p2957
V\ucf00\uc774\uc5d0\uc2a4\ud53c
p2958
sV073540
p2959
V\uc5d0\ud504\uc54c\ud14d
p2960
sV033180
p2961
V\ud544\ub8e9\uc2a4
p2962
sV006090
p2963
V\uc0ac\uc870\uc624\uc591
p2964
sV024830
p2965
V\uc138\uc6d0\ubb3c\uc0b0
p2966
sV054340
p2967
V\uc5d4\uc54c\ucf00\uc774
p2968
sV024120
p2969
VKB\uc624\ud1a0\uc2dc\uc2a4
p2970
sV016450
p2971
V\ud55c\uc138\uc608\uc2a424\ud640\ub529\uc2a4
p2972
sV068050
p2973
V\ud32c\uc5d4\ud130\ud14c\uc778\uba3c\ud2b8
p2974
sV001820
p2975
V\uc0bc\ud654\ucf58\ub374\uc11c
p2976
sV084010
p2977
V\ub300\ud55c\uc81c\uac15
p2978
sV002025
p2979
V\ucf54\uc624\ub871\uc6b0
p2980
sV002020
p2981
V\ucf54\uc624\ub871
p2982
sV069260
p2983
V\ud734\ucf10\uc2a4
p2984
sV001000
p2985
V\uc2e0\ub77c\uc12c\uc720
p2986
sV033230
p2987
V\uc778\uc131\uc815\ubcf4
p2988
sV013000
p2989
V\uc138\uc6b0\uae00\ub85c\ubc8c
p2990
sV069460
p2991
V\ub300\ud638\uc5d0\uc774\uc5d8
p2992
sV590006
p2993
V\ubbf8\ub798\uc5d0\uc14b \uc77c\ubcf8 \uc911\ud615\uc8fc ETN(H)
p2994
sV006380
p2995
V\uce74\ud504\ub85c
p2996
sV157450
p2997
VTIGER \uc720\ub3d9\uc790\uae08
p2998
sV040420
p2999
V\uc815\uc0c1\uc81c\uc774\uc5d8\uc5d0\uc2a4
p3000
sV027050
p3001
V\ucf54\ub9ac\uc544\ub098
p3002
sV245360
p3003
VTIGER \ucc28\uc774\ub098H
p3004
sV000990
p3005
V\ub3d9\ubd80\ud558\uc774\ud14d
p3006
sV000995
p3007
V\ub3d9\ubd80\ud558\uc774\ud14d1\uc6b0
p3008
sV238720
p3009
VKINDEX \uc77c\ubcf8Nikkei225(H)
p3010
sV000440
p3011
V\uc911\uc559\uc5d0\ub108\ube44\uc2a4
p3012
sV002620
p3013
V\uc81c\uc77c\uc57d\ud488
p3014
sV213610
p3015
VKODEX \uc0bc\uc131\uadf8\ub8f9\ubc38\ub958
p3016
sV030610
p3017
V\uad50\ubcf4\uc99d\uad8c
p3018
sV001130
p3019
V\ub300\ud55c\uc81c\ubd84
p3020
sV039030
p3021
V\uc774\uc624\ud14c\ud06c\ub2c9\uc2a4
p3022
sV229200
p3023
VKODEX \ucf54\uc2a4\ub2e5 150
p3024
sV052270
p3025
V\uc6b0\uc804
p3026
sV570014
p3027
VTRUE \uc778\ubc84\uc2a4 \uc720\ub85c\uc120\ubb3c ETN
p3028
sV114820
p3029
VTIGER \uad6d\ucc443
p3030
sV530021
p3031
V\uc0bc\uc131 \ubbf8\uad6d \uc911\uc18c\ud615 \uc131\uc7a5\uc8fc ETN
p3032
sV060150
p3033
V\uc778\uc120\uc774\uc5d4\ud2f0
p3034
sV041910
p3035
V\uc5d0\uc2a4\ud14d\ud30c\ub9c8
p3036
sV082390
p3037
V\ud53c\uc5d8\uc5d0\uc774
p3038
sV010100
p3039
V\ud55c\uad6d\ud504\ub79c\uc9c0
p3040
sV103140
p3041
V\ud48d\uc0b0
p3042
sV014570
p3043
V\uace0\ub824\uc81c\uc57d
p3044
sV080000
p3045
V\uc5d0\uc2a4\uc5d4\uc720
p3046
sV075130
p3047
V\ud50c\ub79c\ud2f0\ub137
p3048
sV000660
p3049
VSK\ud558\uc774\ub2c9\uc2a4
p3050
sV083380
p3051
V\ub3d9\ubd81\uc54413\ud638
p3052
sV005010
p3053
V\ud734\uc2a4\ud2f8
p3054
sV064520
p3055
V\ubc14\ub978\uc804\uc790
p3056
sV028100
p3057
V\ub3d9\uc544\uc9c0\uc9c8
p3058
sV067310
p3059
V\ud558\ub098\ub9c8\uc774\ud06c\ub860
p3060
sV117930
p3061
V\ud55c\uc9c4\ud574\uc6b4
p3062
sV225050
p3063
VTIGER \uc720\ub85c\uc2a4\ud0c1\uc2a4\ub808\ubc84\ub9ac\uc9c0(\ud569\uc131 H)
p3064
sV086520
p3065
V\uc5d0\ucf54\ud504\ub85c
p3066
sV051380
p3067
V\ud53c\uc528\ub514\ub809\ud2b8
p3068
sV011210
p3069
V\ud604\ub300\uc704\uc544
p3070
sV005720
p3071
V\ub125\uc13c
p3072
sV063570
p3073
V\ud55c\uad6d\uc804\uc790\uae08\uc735
p3074
sV005725
p3075
V\ub125\uc13c\uc6b0
p3076
sV071090
p3077
V\ud558\uc774\uc2a4\ud2f8
p3078
sV000060
p3079
V\uba54\ub9ac\uce20\ud654\uc7ac
p3080
sV026890
p3081
V\ub514\ud53c\uc528
p3082
sV030960
p3083
V\uc591\uc9c0\uc0ac
p3084
sV241390
p3085
VKBSTAR V&S\uc140\ub809\ud2b8\ubc38\ub958\ucc44\uad8c\ud63c\ud569
p3086
sV028040
p3087
V\uc2a4\ud398\ub85c \uae00\ub85c\ubc8c
p3088
sV172580
p3089
V\ud558\uc774\uace8\ub4dc12\ud638
p3090
sV079000
p3091
V\uc640\ud1a0\uc2a4\ucf54\ub9ac\uc544
p3092
sV070300
p3093
V\uc194\ub77c\uc2dc\uc544
p3094
sV014790
p3095
V\ud55c\ub77c
p3096
sV228790
p3097
VTIGER \ud654\uc7a5\ud488
p3098
sV014970
p3099
V\uc0bc\ub96d\ubb3c\uc0b0
p3100
sV012630
p3101
V\ud604\ub300\uc0b0\uc5c5
p3102
sV023590
p3103
V\ub2e4\uc6b0\uae30\uc220
p3104
sV005830
p3105
V\ub3d9\ubd80\ud654\uc7ac
p3106
sV004830
p3107
V\ub355\uc131
p3108
sV004835
p3109
V\ub355\uc131\uc6b0
p3110
sV093230
p3111
V\uc774\uc544\uc774\ub514
p3112
sV063170
p3113
V\uc11c\uc6b8\uc625\uc158
p3114
sV192720
p3115
V\ud30c\uc6cc \uace0\ubc30\ub2f9\uc800\ubcc0\ub3d9\uc131
p3116
sV035890
p3117
V\uc11c\ud76c\uac74\uc124
p3118
sV011500
p3119
V\ud55c\ub18d\ud654\uc131
p3120
sV086670
p3121
V\ube44\uc5e0\ud2f0
p3122
sV227570
p3123
VTIGER \uc6b0\ub7c9\uac00\uce58
p3124
sV128820
p3125
V\ub300\uc131\uc0b0\uc5c5
p3126
sV161390
p3127
V\ud55c\uad6d\ud0c0\uc774\uc5b4
p3128
sV056000
p3129
V\uc2e0\uc2a4\ud0c0\uc784\uc988
p3130
sV083360
p3131
V\ub3d9\ubd81\uc54411\ud638
p3132
sV015350
p3133
V\ubd80\uc0b0\uac00\uc2a4
p3134
sV032280
p3135
V\uc0bc\uc77c
p3136
sV004740
p3137
V\ubcf4\ub8e8\ub124\uc624
p3138
sV041590
p3139
V\uc82c\ubc31\uc2a4\ud14c\ud06c\ub180\ub7ec\uc9c0
p3140
sV054940
p3141
V\uc5d1\uc0ac\uc774\uc5d4\uc528
p3142
sV019180
p3143
V\ud2f0\uc5d0\uc774\uce58\uc5d4
p3144
sV067290
p3145
VJW\uc2e0\uc57d
p3146
sV043360
p3147
V\ub514\uc9c0\uc544\uc774
p3148
sV046310
p3149
V\ubc31\uae08T&A
p3150
sV244580
p3151
VKODEX \ubc14\uc774\uc624
p3152
sV053700
p3153
V\uc0bc\ubcf4\ubaa8\ud130\uc2a4
p3154
sV035480
p3155
V\ub9c8\uc81c\uc2a4\ud0c0
p3156
sV153360
p3157
V\ud558\uc774\uace8\ub4dc3\ud638
p3158
sV107560
p3159
VGIANT \ud604\ub300\ucc28\uadf8\ub8f9
p3160
sV079160
p3161
VCJ CGV
p3162
sV138490
p3163
V\ucf54\uc624\ub871\ud50c\ub77c\uc2a4\ud2f1
p3164
sV013580
p3165
V\uacc4\ub8e1\uac74\uc124
p3166
sV089230
p3167
VTHE E&M
p3168
sV018670
p3169
VSK\uac00\uc2a4
p3170
sV011720
p3171
V\ud604\ub300\ud398\uc778\ud2b8
p3172
sV002960
p3173
V\ud55c\uad6d\uc258\uc11d\uc720
p3174
sV080530
p3175
V\ucf54\ub514\uc5d0\uc2a4
p3176
sV025750
p3177
V\ud55c\uc194\ud648\ub370\ucf54
p3178
sV032040
p3179
VC&S\uc790\uc0b0\uad00\ub9ac
p3180
sV003160
p3181
V\ub514\uc544\uc774
p3182
sV054540
p3183
V\uc0bc\uc601\uc5e0\ud14d
p3184
sV049430
p3185
V\ucf54\uba54\ub860
p3186
sV034310
p3187
VNICE
p3188
sV006660
p3189
V\uc0bc\uc131\uacf5\uc870
p3190
sV248260
p3191
VTIGER \uc77c\ubcf8\ud5ec\uc2a4\ucf00\uc5b4(\ud569\uc131)
p3192
sV002360
p3193
VSH\uc5d0\ub108\uc9c0\ud654\ud559
p3194
sV058400
p3195
VKNN
p3196
sV530008
p3197
V\uc0bc\uc131 \ubbf8\ub514\uc5b4 \ud14c\ub9c8\uc8fc ETN
p3198
sV530009
p3199
V\uc0bc\uc131 \uc99d\uad8c \ud14c\ub9c8\uc8fc ETN
p3200
sV012160
p3201
V\uc601\ud765\ucca0\uac15
p3202
sV007390
p3203
V\ub124\uc774\ucc98\uc140
p3204
sV530002
p3205
V\uc0bc\uc131 \uc778\ubc84\uc2a4 China A50 \uc120\ubb3c ETN(H)
p3206
sV530003
p3207
V\uc0bc\uc131 \ubaa8\uba58\ud140 \ud0d1\ud53d ETN
p3208
sV530001
p3209
V\uc0bc\uc131 \uc720\ub7fd \uace0\ubc30\ub2f9 \uc8fc\uc2dd ETN(H)
p3210
sV530006
p3211
V\uc0bc\uc131 \uc74c\uc2dd\ub8cc \ud14c\ub9c8\uc8fc ETN
p3212
sV530007
p3213
V\uc0bc\uc131 \ub808\uc800 \ud14c\ub9c8\uc8fc ETN
p3214
sV530004
p3215
V\uc0bc\uc131 \ud654\uc7a5\ud488 \ud14c\ub9c8\uc8fc ETN
p3216
sV530005
p3217
V\uc0bc\uc131 \ubc14\uc774\uc624 \ud14c\ub9c8\uc8fc ETN
p3218
sV045660
p3219
V\uc5d0\uc774\ud14d
p3220
sV054090
p3221
V\uc0bc\uc9c4\uc5d8\uc564\ub514
p3222
sV112610
p3223
V\uc528\uc5d0\uc2a4\uc708\ub4dc
p3224
sV066670
p3225
V\ub514\uc2a4\ud50c\ub808\uc774\ud14d
p3226
sV138540
p3227
VTIGER \ud604\ub300\ucc28\uadf8\ub8f9+
p3228
sV001725
p3229
V\uc2e0\uc601\uc99d\uad8c\uc6b0
p3230
sV001720
p3231
V\uc2e0\uc601\uc99d\uad8c
p3232
sV002100
p3233
V\uacbd\ub18d
p3234
sV037340
p3235
V\uc528\uc5d8\uc778\ud130\ub0b4\uc154\ub110
p3236
sV038390
p3237
V\ub808\ub4dc\ucea1\ud22c\uc5b4
p3238
sV041140
p3239
V\ub125\uc2a8\uc9c0\ud2f0
p3240
sV069730
p3241
VDSR\uc81c\uac15
p3242
sV078160
p3243
V\uba54\ub514\ud3ec\uc2a4\ud2b8
p3244
sV002290
p3245
V\uc0bc\uc77c\uae30\uc5c5\uacf5\uc0ac
p3246
sV073570
p3247
V\uc5d0\uc774\ud2f0\ud14c\ud06c\ub180\ub7ec\uc9c0
p3248
sV025530
p3249
VSJM\ud640\ub529\uc2a4
p3250
sV048430
p3251
V\uc720\ub77c\ud14c\ud06c
p3252
sV024800
p3253
V\uc720\uc131\ud2f0\uc5d4\uc5d0\uc2a4
p3254
sV019210
p3255
V\uc640\uc774\uc9c0-\uc6d0
p3256
sV040160
p3257
V\ub204\ub9ac\ud154\ub808\ucf64
p3258
sV000520
p3259
V\uc0bc\uc77c\uc81c\uc57d
p3260
sV021320
p3261
VKCC\uac74\uc124
p3262
sV006280
p3263
V\ub179\uc2ed\uc790
p3264
sV006040
p3265
V\ub3d9\uc6d0\uc0b0\uc5c5
p3266
sV002030
p3267
V\uc544\uc138\uc544
p3268
sV037230
p3269
V\ud55c\uad6d\ud329\ud0a4\uc9c0
p3270
sV011000
p3271
V\uc9c4\uc6d0\uc0dd\uba85\uacfc\ud559
p3272
sV091210
p3273
VTIGER KRX100
p3274
sV066700
p3275
V\ud14c\ub77c\uc820\uc774\ud14d\uc2a4
p3276
sV006910
p3277
V\ubcf4\uc131\ud30c\uc6cc\ud14d
p3278
sV040300
p3279
VYTN
p3280
sV027040
p3281
V\uc11c\uc6b8\uc804\uc790\ud1b5\uc2e0
p3282
sV017000
p3283
V\uc2e0\uc6d0\uc885\ud569\uac1c\ubc1c
p3284
sV083420
p3285
VKPX\uadf8\ub9b0\ucf00\ubbf8\uce7c
p3286
sV078140
p3287
V\ub300\ubd09\uc5d8\uc5d0\uc2a4
p3288
sV001450
p3289
V\ud604\ub300\ud574\uc0c1
p3290
sV024060
p3291
V\ud765\uad6c\uc11d\uc720
p3292
sV080420
p3293
V\ubaa8\ub2e4\uc774\ub178\uce69
p3294
sV079940
p3295
V\uac00\ube44\uc544
p3296
sV030350
p3297
V\ub4dc\ub798\uace4\ud50c\ub77c\uc774
p3298
sV025820
p3299
V\uc774\uad6c\uc0b0\uc5c5
p3300
sV010660
p3301
V\ud654\ucc9c\uae30\uacc4
p3302
sV084730
p3303
V\ud305\ud06c\uc6e8\uc5b4
p3304
sV002630
p3305
V\uc624\ub9ac\uc5d4\ud2b8\ubc14\uc774\uc624
p3306
sV000850
p3307
V\ud654\ucc9c\uae30\uacf5
p3308
sV030190
p3309
VNICE\ud3c9\uac00\uc815\ubcf4
p3310
sV036690
p3311
V\ucf54\ub9e5\uc2a4
p3312
sV590009
p3313
V\ubbf8\ub798\uc5d0\uc14b \ubbf8\uad6d \ud56d\uacf5\uc6b0\uc8fc ETN(H)
p3314
sV060230
p3315
V\uc774\uadf8\uc7ad\uc2a4
p3316
sV041960
p3317
V\ucf54\ubbf8\ud31c
p3318
sV065420
p3319
V\uc5d0\uc2a4\uc544\uc774\ub9ac\uc18c\uc2a4
p3320
sV000180
p3321
V\uc131\ucc3d\uae30\uc5c5\uc9c0\uc8fc
p3322
sV014160
p3323
V\ub300\uc601\ud3ec\uc7a5
p3324
sV078860
p3325
V\uc544\uc774\uc624\ucf00\uc774
p3326
sV024660
p3327
V\ud558\ub9bc\ud640\ub529\uc2a4
p3328
sV017480
p3329
V\uc0bc\ud604\ucca0\uac15
p3330
sV000670
p3331
V\uc601\ud48d
p3332
sV083390
p3333
V\ub3d9\ubd81\uc54414\ud638
p3334
sV009540
p3335
V\ud604\ub300\uc911\uacf5\uc5c5
p3336
sV001210
p3337
V\uae08\ud638\uc804\uae30
p3338
sV083550
p3339
V\ucf00\uc774\uc5e0
p3340
sV010060
p3341
VOCI
p3342
sV225040
p3343
VTIGER S&P500\ub808\ubc84\ub9ac\uc9c0(\ud569\uc131 H)
p3344
sV071950
p3345
V\ucf54\uc544\uc2a4
p3346
sV182490
p3347
VTIGER \ub2e8\uae30\uc120\uc9c4\ud558\uc774\uc77c\ub4dc(\ud569\uc131 H)
p3348
sV015760
p3349
V\ud55c\uad6d\uc804\ub825
p3350
sV007190
p3351
V\ud55c\uc194\uc544\ud2b8\uc6d0\uc81c\uc9c0
p3352
sV008700
p3353
V\uc544\ub0a8\uc804\uc790
p3354
sV000070
p3355
V\uc0bc\uc591\ud640\ub529\uc2a4
p3356
sV117690
p3357
VTIGER \ucc28\uc774\ub098
p3358
sV000075
p3359
V\uc0bc\uc591\ud640\ub529\uc2a4\uc6b0
p3360
sV028050
p3361
V\uc0bc\uc131\uc5d4\uc9c0\ub2c8\uc5b4\ub9c1
p3362
sV046120
p3363
V\uc624\ub974\ube44\ud14d
p3364
sV032850
p3365
V\ube44\ud2b8\ucef4\ud4e8\ud130
p3366
sV086060
p3367
V\uc9c4\ubc14\uc774\uc624\ud14d
p3368
sV000270
p3369
V\uae30\uc544\ucc28
p3370
sV195980
p3371
VARIRANG \uc2e0\ud765\uad6d(\ud569\uc131 H)
p3372
sV052460
p3373
V\uc544\uc774\ud06c\ub798\ud504\ud2b8
p3374
sV031390
p3375
V\ub179\uc2ed\uc790\uc140
p3376
sV009140
p3377
V\uacbd\uc778\uc804\uc790
p3378
sV069140
p3379
V\ub204\ub9ac\ud50c\ub79c
p3380
sV010280
p3381
V\uc30d\uc6a9\uc815\ubcf4\ud1b5\uc2e0
p3382
sV244820
p3383
VARIRANG \uc2a4\ub9c8\ud2b8\ubca0\ud0c04\uc885\uacb0\ud569
p3384
sV012620
p3385
V\uc6d0\uc77c\ud2b9\uac15
p3386
sV005820
p3387
V\uc6d0\ub9bc
p3388
sV011080
p3389
V\ud615\uc9c0I&C
p3390
sV009810
p3391
V\uace0\ub824\ud3ec\ub9ac\uba38
p3392
sV031510
p3393
V\uc624\uc2a4\ud15c
p3394
sV130660
p3395
V\ud55c\uc804\uc0b0\uc5c5
p3396
sV023160
p3397
V\ud0dc\uad11
p3398
sV035250
p3399
V\uac15\uc6d0\ub79c\ub4dc
p3400
sV057030
p3401
V\uc640\uc774\ube44\uc5e0\ub137
p3402
sV161890
p3403
V\ud55c\uad6d\ucf5c\ub9c8
p3404
sV064260
p3405
V\ub2e4\ub0a0
p3406
sV083370
p3407
V\ub3d9\ubd81\uc54412\ud638
p3408
sV039740
p3409
V\ud55c\uad6d\uc815\ubcf4\uacf5\ud559
p3410
sV004170
p3411
V\uc2e0\uc138\uacc4
p3412
sV049080
p3413
V\uae30\uac00\ub808\uc778
p3414
sV031820
p3415
V\ucf64\ud14d\uc2dc\uc2a4\ud15c
p3416
sV001755
p3417
V\ud55c\uc591\uc99d\uad8c\uc6b0
p3418
sV011155
p3419
VCJ\uc528\ud478\ub4dc1\uc6b0
p3420
sV004990
p3421
V\ub86f\ub370\uc81c\uacfc
p3422
sV011150
p3423
VCJ\uc528\ud478\ub4dc
p3424
sV067280
p3425
V\uba40\ud2f0\ucea0\ud37c\uc2a4
p3426
sV012750
p3427
V\uc5d0\uc2a4\uc6d0
p3428
sV200030
p3429
VKODEX \ubbf8\uad6d\uc0b0\uc5c5\uc7ac(\ud569\uc131)
p3430
sV086280
p3431
V\ud604\ub300\uae00\ub85c\ube44\uc2a4
p3432
sV053280
p3433
V\uc608\uc2a424
p3434
sV023760
p3435
V\ud55c\uad6d\uce90\ud53c\ud0c8
p3436
sV550021
p3437
VQV \ud540\ud14c\ud06c \ud14c\ub9c8 ETN
p3438
sV122630
p3439
VKODEX \ub808\ubc84\ub9ac\uc9c0
p3440
sV023410
p3441
V\uc720\uc9c4\uae30\uc5c5
p3442
sV012280
p3443
V\uc601\ud654\uae08\uc18d
p3444
sV069920
p3445
V\uc544\uc774\uc5d0\uc2a4\uc774\ucee4\uba38\uc2a4
p3446
sV013570
p3447
V\ub514\uc640\uc774
p3448
sV015230
p3449
V\ub300\ucc3d\ub2e8\uc870
p3450
sV036630
p3451
V\uc138\uc885\ud154\ub808\ucf64
p3452
sV185680
p3453
VKODEX \ubbf8\uad6d\ubc14\uc774\uc624(\ud569\uc131)
p3454
sV066270
p3455
VSK\ucef4\uc988
p3456
sV080520
p3457
V\uc624\ub514\ud14d
p3458
sV102260
p3459
V\ub3d9\uc131\ucf54\ud37c\ub808\uc774\uc158
p3460
sV058650
p3461
V\uc138\uc544\ud640\ub529\uc2a4
p3462
sV004770
p3463
V\uc368\ub2c8\uc804\uc790
p3464
sV053350
p3465
V\uc774\ub2c8\ud14d
p3466
sV049550
p3467
V\uc789\ud06c\ud14c\ud06c
p3468
sV102460
p3469
V\uc774\uc5f0\uc81c\uc57d
p3470
sV190620
p3471
VKINDEX \ub2e8\uae30\uc790\uae08
p3472
sV003200
p3473
V\uc77c\uc2e0\ubc29\uc9c1
p3474
sV052860
p3475
V\uc544\uc774\uc564\uc528
p3476
sV081150
p3477
V\ud2f0\ud50c\ub799\uc2a4
p3478
sV002350
p3479
V\ub125\uc13c\ud0c0\uc774\uc5b4
p3480
sV058470
p3481
V\ub9ac\ub178\uacf5\uc5c5
p3482
sV248270
p3483
VTIGER \uae00\ub85c\ubc8c\ud5ec\uc2a4\ucf00\uc5b4(\ud569\uc131)
p3484
sV002355
p3485
V\ub125\uc13c\ud0c0\uc774\uc5b41\uc6b0B
p3486
sV038010
p3487
V\uc81c\uc77c\ud14c\ud06c\ub178\uc2a4
p3488
sV530019
p3489
V\uc0bc\uc131 \ubbf8\uad6d \ub300\ud615 \uc131\uc7a5\uc8fc ETN
p3490
sV530018
p3491
V\uc0bc\uc131 \ubbf8\uad6d \uc911\uc18c\ud615 \uac00\uce58\uc8fc ETN(H)
p3492
sV205720
p3493
VKINDEX \uc77c\ubcf8\uc778\ubc84\uc2a4(\ud569\uc131 H)
p3494
sV012170
p3495
V\ud0a4\uc2a4\ud1a4\uae00\ub85c\ubc8c
p3496
sV530011
p3497
V\uc0bc\uc131 \uc628\ub77c\uc778\uc1fc\ud551 \ud14c\ub9c8\uc8fc ETN
p3498
sV530010
p3499
V\uc0bc\uc131 \uac74\ucd95\uc790\uc7ac \ud14c\ub9c8\uc8fc ETN
p3500
sV530013
p3501
V\uc0bc\uc131 KTOP30 ETN
p3502
sV530012
p3503
V\uc0bc\uc131 \ud654\ud559 \ud14c\ub9c8\uc8fc ETN
p3504
sV157500
p3505
VTIGER \uc99d\uad8c
p3506
sV530014
p3507
V\uc0bc\uc131 China A50 \uc120\ubb3c ETN(H)
p3508
sV530017
p3509
V\uc0bc\uc131 \ubbf8\uad6d \uc911\uc18c\ud615 \uc131\uc7a5\uc8fc ETN(H)
p3510
sV530016
p3511
V\uc0bc\uc131 \ubbf8\uad6d \ub300\ud615 \uac00\uce58\uc8fc ETN(H)
p3512
sV025320
p3513
V\uc2dc\ub178\ud399\uc2a4
p3514
sV068940
p3515
V\uc544\uc774\uc528\ucf00\uc774
p3516
sV192400
p3517
V\ucfe0\ucfe0\uc804\uc790
p3518
sV019440
p3519
V\uc138\uc544\ud2b9\uc218\uac15
p3520
sV044780
p3521
V\uc5d0\uc774\uce58\ucf00\uc774
p3522
sV138530
p3523
VTIGER LG\uadf8\ub8f9+
p3524
sV002820
p3525
V\uc120\ucc3d\uc0b0\uc5c5
p3526
sV086980
p3527
V\uc1fc\ubc15\uc2a4
p3528
sV043200
p3529
V\ud30c\ub8e8
p3530
sV236350
p3531
VTIGER \uc778\ub3c4\ub808\ubc84\ub9ac\uc9c0(\ud569\uc131)
p3532
sV016610
p3533
V\ub3d9\ubd80\uc99d\uad8c
p3534
sV010580
p3535
V\uc9c0\ucf54
p3536
sV045890
p3537
V\ub3d9\ubd80\ub77c\uc774\ud14d
p3538
sV081000
p3539
V\uc77c\uc9c4\ub2e4\uc774\uc544
p3540
sV033430
p3541
V\ucf54\ub9ac\ub4dc
p3542
sV019990
p3543
V\uc5d0\ub108\ud1a0\ud06c
p3544
sV024810
p3545
V\uc774\ud654\uc804\uae30
p3546
sV051600
p3547
V\ud55c\uc804KPS
p3548
sV054220
p3549
V\ube44\uce20\ub85c\uc2dc\uc2a4
p3550
sV175330
p3551
VJB\uae08\uc735\uc9c0\uc8fc
p3552
sV073560
p3553
V\uc6b0\ub9ac\uc190\uc5d0\ud504\uc564\uc9c0
p3554
sV001020
p3555
V\ud398\uc774\ud37c\ucf54\ub9ac\uc544
p3556
sV001840
p3557
V\uc774\ud654\uacf5\uc601
p3558
sV017900
p3559
V\uad11\uc804\uc790
p3560
sV017670
p3561
VSK\ud154\ub808\ucf64
p3562
sV002000
p3563
V\ud55c\uad6d\uc720\ub9ac
p3564
sV183190
p3565
V\uc544\uc138\uc544\uc2dc\uba58\ud2b8
p3566
sV091220
p3567
VTIGER \uc740\ud589
p3568
sV002005
p3569
V\ud55c\uad6d\uc720\ub9ac\uc6b0
p3570
sV18064K
p3571
V\ud55c\uc9c4\uce7c\uc6b0
p3572
sV123760
p3573
VKBSTAR \ub808\ubc84\ub9ac\uc9c0
p3574
sV049950
p3575
V\ubbf8\ub798\ucef4\ud37c\ub2c8
p3576
sV035810
p3577
V\uc774\uc9c0\ubc14\uc774\uc624
p3578
sV047820
p3579
V\ucd08\ub85d\ubc40
p3580
sV226320
p3581
V\uc787\uce20\uc2a4\ud0a8
p3582
sV020000
p3583
V\ud55c\uc12c
p3584
sV023000
p3585
V\uc0bc\uc6d0\uac15\uc7ac
p3586
sV245340
p3587
VTIGER \ubbf8\uad6d\ub2e4\uc6b0\uc874\uc2a430
p3588
sV195970
p3589
VARIRANG \uc120\uc9c4\uad6d(\ud569\uc131 H)
p3590
sV226810
p3591
V\ud30c\uc6cc \ub2e8\uae30\ucc44
p3592
sV078150
p3593
VHB\ud14c\ud06c\ub180\ub7ec\uc9c0
p3594
sV001440
p3595
V\ub300\ud55c\uc804\uc120
p3596
sV024070
p3597
VWISCOM
p3598
sV094800
p3599
V\ub9f5\uc2a4\ub9ac\uc5bc\ud2f01
p3600
sV001470
p3601
V\uc0bc\ubd80\ud1a0\uac74
p3602
sV180640
p3603
V\ud55c\uc9c4\uce7c
p3604
sV213630
p3605
VARIRANG \ubbf8\uad6d\uace0\ubc30\ub2f9\uc8fc(\ud569\uc131 H)
p3606
sV050890
p3607
V\uc3e0\ub9ac\ub4dc
p3608
sV114800
p3609
VKODEX \uc778\ubc84\uc2a4
p3610
sV033540
p3611
V\ud30c\ub77c\ud14d
p3612
sV000860
p3613
V\uac15\ub0a8\uc81c\ube44\uc2a4\ucf54
p3614
sV005389
p3615
V\ud604\ub300\ucc283\uc6b0B
p3616
sV000640
p3617
V\ub3d9\uc544\uc3d8\uc2dc\uc624\ud640\ub529\uc2a4
p3618
sV010120
p3619
VLS\uc0b0\uc804
p3620
sV136280
p3621
VKODEX \uc18c\ube44\uc7ac
p3622
sV029460
p3623
V\ucf00\uc774\uc528\ud14d
p3624
sV000885
p3625
V\ud55c\ud654\uc6b0
p3626
sV132030
p3627
VKODEX \uace8\ub4dc\uc120\ubb3c(H)
p3628
sV000880
p3629
V\ud55c\ud654
p3630
sV027410
p3631
VBGF\ub9ac\ud14c\uc77c
p3632
sV043150
p3633
V\ubc14\ud14d
p3634
sV064090
p3635
V\ud55c\uc591\ud558\uc774\ud0c0\uc624
p3636
sV005030
p3637
V\ubd80\uc0b0\uc8fc\uacf5
p3638
sV001200
p3639
V\uc720\uc9c4\ud22c\uc790\uc99d\uad8c
p3640
sV095570
p3641
VAJ\ub124\ud2b8\uc6cd\uc2a4
p3642
sV047310
p3643
V\ud30c\uc6cc\ub85c\uc9c1\uc2a4
p3644
sV010050
p3645
V\uc6b0\ub9ac\uc885\uae08
p3646
sV069110
p3647
V\ucf54\uc2a4\uc628
p3648
sV015750
p3649
V\uc131\uc6b0\ud558\uc774\ud14d
p3650
sV182480
p3651
VTIGER US\ub9ac\uce20(\ud569\uc131 H)
p3652
sV037950
p3653
V\uc5d8\ucef4\ud14d
p3654
sV117680
p3655
VKODEX \ucca0\uac15
p3656
sV093370
p3657
V\ud6c4\uc131
p3658
sV066970
p3659
V\uc5d8\uc564\uc5d0\ud504
p3660
sV033100
p3661
V\uc81c\ub8e1\uc804\uae30
p3662
sV000087
p3663
V\ud558\uc774\ud2b8\uc9c4\ub85c2\uc6b0B
p3664
sV008730
p3665
V\uc728\ucd0c\ud654\ud559
p3666
sV000080
p3667
V\ud558\uc774\ud2b8\uc9c4\ub85c
p3668
sV000240
p3669
V\ud55c\uad6d\ud0c0\uc774\uc5b4\uc6d4\ub4dc\uc640\uc774\ub4dc
p3670
sV035000
p3671
V\uc9c0\ud22c\uc54c
p3672
sV056730
p3673
V\uc544\ud050\ud53d\uc2a4
p3674
sV009150
p3675
V\uc0bc\uc131\uc804\uae30
p3676
sV014910
p3677
V\uc131\ubb38\uc804\uc790
p3678
sV014915
p3679
V\uc131\ubb38\uc804\uc790\uc6b0
p3680
sV018470
p3681
V\uc870\uc77c\uc54c\ubbf8\ub284
p3682
sV005360
p3683
V\ubaa8\ub098\ubbf8
p3684
sV223190
p3685
VKODEX 200 \ub0b4\uc7ac\uac00\uce58
p3686
sV018290
p3687
V\uc9c0\uc5e0\ud53c
p3688
sV120115
p3689
V\ucf54\uc624\ub871\uc778\ub354\uc6b0
p3690
sV035620
p3691
V\ubc14\ub978\uc190\uc774\uc564\uc5d0\uc774
p3692
sV012610
p3693
V\uacbd\uc778\uc591\ud589
p3694
sV120110
p3695
V\ucf54\uc624\ub871\uc778\ub354
p3696
sV005690
p3697
V\ud30c\ubbf8\uc140
p3698
sV900050
p3699
V\uc911\uad6d\uc6d0\uc591\uc790\uc6d0
p3700
sV068400
p3701
VAJ\ub80c\ud130\uce74
p3702
sV117460
p3703
VKODEX \uc5d0\ub108\uc9c0\ud654\ud559
p3704
sV009730
p3705
V\ucf54\uc13c
p3706
sV114460
p3707
VKINDEX \uad6d\uace0\ucc44
p3708
sV008600
p3709
V\uc70c\ube44\uc2a4
p3710
sV053030
p3711
V\ubc14\uc774\ub125\uc2a4
p3712
sV005740
p3713
V\ud06c\ub77c\uc6b4\uc81c\uacfc
p3714
sV005745
p3715
V\ud06c\ub77c\uc6b4\uc81c\uc6b0
p3716
sV140570
p3717
VKBSTAR \uc218\ucd9c\uc8fc
p3718
sV018120
p3719
V\uc9c4\ub85c\ubc1c\ud6a8
p3720
sV003690
p3721
V\ucf54\ub9ac\uc548\ub9ac
p3722
sV050090
p3723
V\ud718\ub2c9\uc2a4\uc18c\uc7ac
p3724
sV066570
p3725
VLG\uc804\uc790
p3726
sV088980
p3727
V\ub9e5\ucffc\ub9ac\uc778\ud504\ub77c
p3728
sV004980
p3729
V\uc131\uc2e0\uc591\ud68c
p3730
sV004987
p3731
V\uc131\uc2e0\uc591\ud68c2\uc6b0B
p3732
sV004985
p3733
V\uc131\uc2e0\uc591\ud68c\uc6b0
p3734
sV053290
p3735
V\ub2a5\ub960\uad50\uc721
p3736
sV037400
p3737
V\uc6b0\ub9ac\uc870\uba85
p3738
sV004989
p3739
V\uc131\uc2e0\uc591\ud68c3\uc6b0B
p3740
sV014470
p3741
V\ubd80\ubc29
p3742
sV005965
p3743
V\ub3d9\ubd80\uac74\uc124\uc6b0
p3744
sV072020
p3745
V\uc911\uc559\ubc31\uc2e0
p3746
sV008040
p3747
V\uc0ac\uc870\ub3d9\uc544\uc6d0
p3748
sV032620
p3749
V\uc720\ube44\ucf00\uc5b4
p3750
sV080440
p3751
V\uc138\uc9c4\uc804\uc790
p3752
sV068760
p3753
V\uc140\ud2b8\ub9ac\uc628\uc81c\uc57d
p3754
sV054410
p3755
V\ucf00\uc774\ud53c\ud2f0
p3756
sV200880
p3757
V\uc11c\uc5f0\uc774\ud654
p3758
sV071050
p3759
V\ud55c\uad6d\uae08\uc735\uc9c0\uc8fc
p3760
sV011090
p3761
V\uc5d0\ub125\uc2a4
p3762
sV078520
p3763
V\uc5d0\uc774\ube14\uc528\uc5d4\uc528
p3764
sV023770
p3765
V\ud50c\ub808\uc774\uc704\ub4dc
p3766
sV107590
p3767
V\ubbf8\uc6d0\uc5d0\uc2a4\uc528
p3768
sV049180
p3769
V\uc140\ub8e8\uba54\ub4dc
p3770
sV027830
p3771
V\ub300\uc131\ucc3d\ud22c
p3772
sV104700
p3773
V\ud55c\uad6d\ucca0\uac15
p3774
sV013360
p3775
V\uc77c\uc131\uac74\uc124
p3776
sV013367
p3777
V\uc77c\uc131\uac74\uc1242\uc6b0B
p3778
sV013810
p3779
V\uc2a4\ud398\ucf54
p3780
sV049630
p3781
V\uc7ac\uc601\uc194\ub8e8\ud14d
p3782
sV037710
p3783
V\uad11\uc8fc\uc2e0\uc138\uacc4
p3784
sV023790
p3785
V\ub3d9\uc77c\ucca0\uac15
p3786
sV002900
p3787
V\ub3d9\uc591\ubb3c\uc0b0
p3788
sV011700
p3789
V\ud55c\uc2e0\uae30\uacc4
p3790
sV049520
p3791
V\uc720\uc544\uc774\uc5d8
p3792
sV140950
p3793
V\ud30c\uc6cc K100
p3794
sV058860
p3795
V\ucf00\uc774\ud2f0\uc2a4
p3796
sV038950
p3797
V\ud30c\uc778\ub514\uc9c0\ud138
p3798
sV053270
p3799
V\uad6c\uc601\ud14c\ud06c
p3800
sV022220
p3801
V\uc815\uc0b0\uc560\uac15
p3802
sV003230
p3803
V\uc0bc\uc591\uc2dd\ud488
p3804
sV057880
p3805
V\ud1a0\ud544\ub4dc
p3806
sV072770
p3807
V\ub124\uc624\ub514\uc548\ud14c\ud06c\ub180\ub85c\uc9c0
p3808
sV210780
p3809
VTIGER \ucf54\uc2a4\ud53c\uace0\ubc30\ub2f9
p3810
sV021050
p3811
V\uc11c\uc6d0
p3812
sV069620
p3813
V\ub300\uc6c5\uc81c\uc57d
p3814
sV530020
p3815
V\uc0bc\uc131 \ubbf8\uad6d \ub300\ud615 \uac00\uce58\uc8fc ETN
p3816
sV152380
p3817
VKODEX 10\ub144\uad6d\ucc44\uc120\ubb3c
p3818
sV530022
p3819
V\uc0bc\uc131 \ubbf8\uad6d \uc911\uc18c\ud615 \uac00\uce58\uc8fc ETN
p3820
sV530023
p3821
V\uc0bc\uc131 \ub808\ubc84\ub9ac\uc9c0 China A50 \uc120\ubb3c ETN(H)
p3822
sV013700
p3823
V\uae4c\ubba4\uc774\uc564\uc528
p3824
sV211560
p3825
VTIGER \ubc30\ub2f9\uc131\uc7a5
p3826
sV066900
p3827
V\ub514\uc5d0\uc774\ud53c
p3828
sV157510
p3829
VTIGER \uc790\ub3d9\ucc28
p3830
sV014940
p3831
V\uc624\ub9ac\uc5d4\ud0c8\uc815\uacf5
p3832
sV003520
p3833
V\uc601\uc9c4\uc57d\ud488
p3834
sV007860
p3835
V\uc11c\uc5f0
p3836
sV006840
p3837
VAK\ud640\ub529\uc2a4
p3838
sV138520
p3839
VTIGER \uc0bc\uc131\uadf8\ub8f9
p3840
sV079430
p3841
V\ud604\ub300\ub9ac\ubc14\ud2b8
p3842
sV067920
p3843
V\uc774\uae00\ub8e8\uc2dc\ud050\ub9ac\ud2f0
p3844
sV041520
p3845
V\uc774\ub77c\uc774\ucf64
p3846
sV006110
p3847
V\uc0bc\uc544\uc54c\ubbf8\ub284
p3848
sV007460
p3849
V\ub098\ub77c\ucf00\uc774\uc544\uc774\uc528
p3850
sV078890
p3851
V\uac00\uc628\ubbf8\ub514\uc5b4
p3852
sV039440
p3853
V\uc5d0\uc2a4\ud2f0\uc544\uc774
p3854
sV176950
p3855
VKODEX \uc778\ubc84\uc2a4\uad6d\ucc44\uc120\ubb3c10\ub144
p3856
sV091180
p3857
VKODEX \uc790\ub3d9\ucc28
p3858
sV039840
p3859
V\ub514\uc624
p3860
sV078940
p3861
V\uc77c\uacbd\uc0b0\uc5c5\uac1c\ubc1c
p3862
sV054180
p3863
V\uc911\uc559\uc624\uc158
p3864
sV017390
p3865
V\uc11c\uc6b8\uac00\uc2a4
p3866
sV000500
p3867
V\uac00\uc628\uc804\uc120
p3868
sV091230
p3869
VTIGER \ubc18\ub3c4\uccb4
p3870
sV003830
p3871
V\ub300\ud55c\ud654\uc12c
p3872
sV047810
p3873
V\ud55c\uad6d\ud56d\uacf5\uc6b0\uc8fc
p3874
sV065130
p3875
V\ud0d1\uc5d4\uc9c0\ub2c8\uc5b4\ub9c1
p3876
sV013030
p3877
V\ud558\uc774\ub85d\ucf54\ub9ac\uc544
p3878
sV074430
p3879
V\uc544\ubbf8\ub178\ub85c\uc9c1\uc2a4
p3880
sV237440
p3881
VTIGER \uacbd\uae30\ubc29\uc5b4\ucc44\uad8c\ud63c\ud569
p3882
sV016600
p3883
V\ud050\uce90\ud53c\ud0c8
p3884
sV028150
p3885
VGS\ud648\uc1fc\ud551
p3886
sV017800
p3887
V\ud604\ub300\uc5d8\ub9ac\ubca0\uc774
p3888
sV060380
p3889
V\ub3d9\uc591\uc5d0\uc2a4\ud14d
p3890
sV051500
p3891
VCJ\ud504\ub808\uc2dc\uc6e8\uc774
p3892
sV239660
p3893
VARIRANG \uc6b0\ub7c9\ud68c\uc0ac\ucc4450
p3894
sV580001
p3895
Vable \ucf54\uc2a4\ud53c200\uc120\ubb3c\ud50c\ub7ec\uc2a4 ETN
p3896
sV580003
p3897
Vable Monthly Best 11 ETN
p3898
sV580002
p3899
Vable Quant\ube44\uc911\uc870\uc808 ETN
p3900
sV580005
p3901
Vable \uc6b0\ub7c9\uc8fc Monthly Best 11 ETN
p3902
sV580004
p3903
Vable KQ Monthly Best 11 ETN
p3904
sV068150
p3905
V\ucf00\uc774\uc5d4\uc528\uae00\ub85c\ubc8c
p3906
sV010600
p3907
V\uc640\uc774\ube44\ub85c\ub4dc
p3908
sV065620
p3909
V\uc81c\ub099\uc2a4
p3910
sV069540
p3911
V\ube5b\uacfc\uc804\uc790
p3912
sV020120
p3913
V\ub2e4\uc6b0\uc778\ud050\ube0c
p3914
sV000650
p3915
V\ucc9c\uc77c\uace0\uc18d
p3916
sV010420
p3917
V\ud55c\uc194PNS
p3918
sV000890
p3919
V\ubcf4\ud574\uc591\uc870
p3920
sV083570
p3921
V\uc544\uc2dc\uc54410\ud638
p3922
sV140910
p3923
V\uad11\ud76c\ub9ac\uce20
p3924
sV225060
p3925
VTIGER \uc774\uba38\uc9d5\ub9c8\ucf13\ub808\ubc84\ub9ac\uc9c0(\ud569\uc131 H)
p3926
sV001270
p3927
V\ubd80\uad6d\uc99d\uad8c
p3928
sV001275
p3929
V\ubd80\uad6d\uc99d\uad8c\uc6b0
p3930
sV060540
p3931
V\uc5d0\uc2a4\uc5d0\uc774\ud2f0
p3932
sV065710
p3933
V\uc11c\ud638\uc804\uae30
p3934
sV245350
p3935
VTIGER \uc720\ub85c\uc2a4\ud0c1\uc2a4\ubc30\ub2f930
p3936
sV010040
p3937
V\ud55c\uad6d\ub0b4\ud654
p3938
s.