(dp0
V\ud574\ub355\ud30c\uc6cc\uc6e8\uc774
p1
(lp2
S'102210'
p3
aVKOSDAQ:102210
p4
aVKOSDAQ
p5
asV\uc720\uc131\uae30\uc5c5
p6
(lp7
S'002920'
p8
aVKRX:002920
p9
aVKOSPI
p10
asV\ub9e5\ucffc\ub9ac\uc778\ud504\ub77c
p11
(lp12
S'088980'
p13
aVKRX:088980
p14
ag10
asV\uc0bc\ucc9c\ub9ac
p15
(lp16
S'004690'
p17
aVKRX:004690
p18
ag10
asV\ubb34\ub9bcSP
p19
(lp20
S'001810'
p21
aVKOSDAQ:001810
p22
ag5
asV\uc634\ub2c8\uc2dc\uc2a4\ud15c
p23
(lp24
S'057540'
p25
aVKOSDAQ:057540
p26
ag5
asV\ub3d9\uc591\uc774\uc5d4\ud53c
p27
(lp28
S'079960'
p29
aVKOSDAQ:079960
p30
ag5
asV\ud53c\uc5e0\uc5d0\uc2a4
p31
(lp32
S'179440'
p33
aFnan
aVKONEX
p34
asV\uccad\uad11\uc885\uac74
p35
(lp36
S'140290'
p37
aFnan
ag34
asV\uc528\uc557
p38
(lp39
S'103660'
p40
aFnan
ag34
asV\ud734\ube44\uc2a4
p41
(lp42
S'079980'
p43
aVKRX:079980
p44
ag10
asVJW\uc911\uc678\uc81c\uc57d
p45
(lp46
S'001060'
p47
aVKRX:001060
p48
ag10
asV\ud558\uc774\ud2b8\uc9c4\ub85c\ud640\ub529\uc2a4
p49
(lp50
S'000140'
p51
aVKRX:000140
p52
ag10
asV\uc774\ub178\uc158
p53
(lp54
S'214320'
p55
aVKRX:214320
p56
ag10
asV\uccad\ubcf4\uc0b0\uc5c5
p57
(lp58
S'013720'
p59
aVKOSDAQ:013720
p60
ag5
asV\ub300\uc6d0\uc81c\uc57d
p61
(lp62
S'003220'
p63
aVKRX:003220
p64
ag10
asV\uc2e0\ud55c\uc81c2\ud638SPAC
p65
(lp66
S'203650'
p67
aVKOSDAQ:203650
p68
ag5
asVGS
p69
(lp70
S'078930'
p71
aVKRX:078930
p72
ag10
asV\uc138\uc6b4\uba54\ub514\uce7c
p73
(lp74
S'100700'
p75
aVKOSDAQ:100700
p76
ag5
asV\ub300\ub9bc\uc0b0\uc5c5
p77
(lp78
S'000210'
p79
aVKRX:000210
p80
ag10
asV\ud574\uc131\uc635\ud2f1\uc2a4
p81
(lp82
S'076610'
p83
aVKOSDAQ:076610
p84
ag5
asV\ub514\uc9c0\ucea1
p85
(lp86
S'197140'
p87
aFnan
ag34
asV\uc138\uc885\uba38\ud2f0\ub9ac\uc5bc\uc988
p88
(lp89
S'135270'
p90
aFnan
ag34
asVBYC
p91
(lp92
S'001460'
p93
aVKRX:001460
p94
ag10
asV\uc644\ub9ac
p95
(lp96
S'900180'
p97
aVKOSDAQ:900180
p98
ag5
asV\ub514\uc5e0\ud2f0
p99
(lp100
S'134580'
p101
aVKOSDAQ:134580
p102
ag5
asVSNH
p103
(lp104
S'051980'
p105
aVKOSDAQ:051980
p106
ag5
asV\ub3d9\uc77c\uc81c\uc9c0
p107
(lp108
S'019300'
p109
aVKRX:019300
p110
ag10
asV\ube45\uc194\ub860
p111
(lp112
S'093190'
p113
aVKOSDAQ:093190
p114
ag5
asV\uc624\ub9ac\uc5d4\ud2b8\uc815\uacf5
p115
(lp116
S'065500'
p117
aVKOSDAQ:065500
p118
ag5
asV\uc2ec\ud14d\ud640\ub529\uc2a4
p119
(lp120
S'036710'
p121
aVKOSDAQ:036710
p122
ag5
asV\ub125\uc194\ub860
p123
(lp124
S'110570'
p125
aVKRX:110570
p126
ag10
asV\ube44\uce20\ub85c\uc2dc\uc2a4
p127
(lp128
S'054220'
p129
aVKOSDAQ:054220
p130
ag5
asV\ub0a8\uad11\ud1a0\uac74
p131
(lp132
S'001260'
p133
aVKRX:001260
p134
ag10
asV\uc5d0\uc2a4\uc5d0\uc774\ud2f0
p135
(lp136
S'060540'
p137
aVKOSDAQ:060540
p138
ag5
asV\ub300\uc131\uc5d8\ud14d
p139
(lp140
S'025440'
p141
aVKOSDAQ:025440
p142
ag5
asV\ud55c\uad6d\uc258\uc11d\uc720
p143
(lp144
S'002960'
p145
aVKRX:002960
p146
ag10
asVSTX\uc911\uacf5\uc5c5
p147
(lp148
S'071970'
p149
aVKRX:071970
p150
ag10
asV\ud53c\uc5d4\ud2f0
p151
(lp152
S'137400'
p153
aVKOSDAQ:137400
p154
ag5
asV\uadf8\ub79c\ub4dc\ubc31\ud654\uc810
p155
(lp156
S'019010'
p157
aVKOSDAQ:019010
p158
ag5
asV\uc131\ucc3d\uc624\ud1a0\ud14d
p159
(lp160
S'080470'
p161
aVKOSDAQ:080470
p162
ag5
asV\ud648\uce90\uc2a4\ud2b8
p163
(lp164
S'064240'
p165
aVKOSDAQ:064240
p166
ag5
asV\uae08\uc131\ud14c\ud06c
p167
(lp168
S'058370'
p169
aVKOSDAQ:058370
p170
ag5
asV\ucf00\uc774\ube44\uce90\ud53c\ud0c8
p171
(lp172
S'021960'
p173
aVKRX:021960
p174
ag10
asV\uc774\uc5d8\ucf00\uc774
p175
(lp176
S'094190'
p177
aVKOSDAQ:094190
p178
ag5
asV\uc138\ubcf4\uc5e0\uc774\uc528
p179
(lp180
S'011560'
p181
aVKOSDAQ:011560
p182
ag5
asV\ud2f0\uc5d0\uc774\uce58\uc5d4
p183
(lp184
S'019180'
p185
aVKRX:019180
p186
ag10
asV\ud5e4\uc2a4\ubcf8
p187
(lp188
S'054300'
p189
aVKOSDAQ:054300
p190
ag5
asV\ub300\ub355\uc804\uc790
p191
(lp192
S'008060'
p193
aVKRX:008060
p194
ag10
asV\uc11c\uc0b0
p195
(lp196
S'079650'
p197
aVKOSDAQ:079650
p198
ag5
asV\uc30d\uc6a9\uc815\ubcf4\ud1b5\uc2e0
p199
(lp200
S'010280'
p201
aVKOSDAQ:010280
p202
ag5
asV\uc624\ub85c\ub77c
p203
(lp204
S'039830'
p205
aVKOSDAQ:039830
p206
ag5
asV\ud0dc\uad11\uc0b0\uc5c5
p207
(lp208
S'003240'
p209
aVKRX:003240
p210
ag10
asV\uc774\ub179\uc2a4
p211
(lp212
S'088390'
p213
aVKOSDAQ:088390
p214
ag5
asV\uc0bc\ud638
p215
(lp216
S'001880'
p217
aVKRX:001880
p218
ag10
asV\ud55c\uad6d\uc815\ubcf4\uc778\uc99d
p219
(lp220
S'053300'
p221
aVKOSDAQ:053300
p222
ag5
asV\ucc28\uc774\ub098\uadf8\ub808\uc774\ud2b8
p223
(lp224
S'900040'
p225
aVKOSDAQ:900040
p226
ag5
asVKC\uadf8\ub9b0\ud640\ub529\uc2a4
p227
(lp228
S'009440'
p229
aVKRX:009440
p230
ag10
asV\uc11c\uc6b8\ub3c4\uc2dc\uac00\uc2a4
p231
(lp232
S'017390'
p233
aVKRX:017390
p234
ag10
asV\ubdf0\uc6cd\uc2a4
p235
(lp236
S'100120'
p237
aVKOSDAQ:100120
p238
ag5
asV\uc885\uadfc\ub2f9
p239
(lp240
S'185750'
p241
aVKRX:185750
p242
ag10
asV\ud55c\ucc3d
p243
(lp244
S'005110'
p245
aVKRX:005110
p246
ag10
asV\uc708\ud329
p247
(lp248
S'097800'
p249
aVKOSDAQ:097800
p250
ag5
asV\uc0bc\uc815\ud384\ud504
p251
(lp252
S'009770'
p253
aVKRX:009770
p254
ag10
asV\uc601\uc6d0\ubb34\uc5ed\ud640\ub529\uc2a4
p255
(lp256
S'009970'
p257
aVKRX:009970
p258
ag10
asV\ud3ec\ud2f0\uc2a4
p259
(lp260
S'141020'
p261
aVKOSDAQ:141020
p262
ag5
asV\uc138\uba85\uc804\uae30
p263
(lp264
S'017510'
p265
aVKOSDAQ:017510
p266
ag5
asV\uc6d0\ud14d
p267
(lp268
S'216280'
p269
aFnan
ag34
asVKR\ubaa8\ud130\uc2a4
p270
(lp271
S'000040'
p272
aVKRX:000040
p273
ag10
asV\ub3d9\uc591\uc2dc\uba58\ud2b8
p274
(lp275
S'038500'
p276
aVKOSDAQ:038500
p277
ag5
asV\uc30d\ubc29\uc6b8
p278
(lp279
S'102280'
p280
aVKRX:102280
p281
ag10
asV\ud06c\ub9b0\uc564\uc0ac\uc774\uc5b8\uc2a4
p282
(lp283
S'045520'
p284
aVKOSDAQ:045520
p285
ag5
asV\uae08\uc624\ud558\uc774\ud14d
p286
(lp287
S'165270'
p288
aFnan
ag34
asV\ub300\uc6d0\ud654\uc131
p289
(lp290
S'024890'
p291
aVKRX:024890
p292
ag10
asV\uc544\uc774\ucf00\uc774\uc138\ubbf8\ucf58
p293
(lp294
S'149010'
p295
aFnan
ag34
asV\uc5d1\uc0ac\uc774\uc5d4\uc528
p296
(lp297
S'054940'
p298
aVKOSDAQ:054940
p299
ag5
asV\uc778\ubc14\ub514
p300
(lp301
S'041830'
p302
aVKOSDAQ:041830
p303
ag5
asVAJ\ub124\ud2b8\uc6cd\uc2a4
p304
(lp305
S'095570'
p306
aVKRX:095570
p307
ag10
asV\uba85\ubb38\uc81c\uc57d
p308
(lp309
S'017180'
p310
aVKRX:017180
p311
ag10
asV\ucf10\ud2b8\ub85c\ub2c9\uc2a4
p312
(lp313
S'089010'
p314
aVKOSDAQ:089010
p315
ag5
asVKG ETS
p316
(lp317
S'151860'
p318
aVKOSDAQ:151860
p319
ag5
asV\ub514\uc544\uc774\uc528
p320
(lp321
S'092200'
p322
aVKRX:092200
p323
ag10
asV\uc5d0\ud504\uc564\uac00\uc774\ub4dc
p324
(lp325
S'064850'
p326
aFnan
ag34
asV\uc138\ubc29
p327
(lp328
S'004360'
p329
aVKRX:004360
p330
ag10
asV\ub514\uc5d0\uc2a4\ud2f0\ub85c\ubd07
p331
(lp332
S'090710'
p333
aVKOSDAQ:090710
p334
ag5
asV\ud734\uba54\ub515\uc2a4
p335
(lp336
S'200670'
p337
aVKOSDAQ:200670
p338
ag5
asV\ub18d\uc2ec
p339
(lp340
S'004370'
p341
aVKRX:004370
p342
ag10
asV\ub9ac\ub4dc\ucf54\ud504
p343
(lp344
S'012700'
p345
aVKOSDAQ:012700
p346
ag5
asV\ud2f0\ube44\uc528
p347
(lp348
S'033830'
p349
aVKOSDAQ:033830
p350
ag5
asV\ucf54\uba54\ub860
p351
(lp352
S'049430'
p353
aVKOSDAQ:049430
p354
ag5
asV\uba54\uc9c0\uc628
p355
(lp356
S'140410'
p357
aVKOSDAQ:140410
p358
ag5
asVLF
p359
(lp360
S'093050'
p361
aVKRX:093050
p362
ag10
asVLG
p363
(lp364
S'003550'
p365
aVKRX:003550
p366
ag10
asV\uc544\uc138\uc544
p367
(lp368
S'002030'
p369
aVKRX:002030
p370
ag10
asV\ud574\uc131\uc0b0\uc5c5
p371
(lp372
S'034810'
p373
aVKOSDAQ:034810
p374
ag5
asV\uc6f0\ud06c\ub860\ud55c\ud14d
p375
(lp376
S'076080'
p377
aVKOSDAQ:076080
p378
ag5
asV\ube44\ub098\ud14d
p379
(lp380
S'126340'
p381
aFnan
ag34
asV\ucf54\ud14d
p382
(lp383
S'052330'
p384
aVKOSDAQ:052330
p385
ag5
asVLS
p386
(lp387
S'006260'
p388
aVKRX:006260
p389
ag10
asV\uc528\ucf00\uc774\uc5d0\uc774\uce58
p390
(lp391
S'900120'
p392
aVKOSDAQ:900120
p393
ag5
asV\uc131\ucc3d\uae30\uc5c5\uc9c0\uc8fc
p394
(lp395
S'000180'
p396
aVKRX:000180
p397
ag10
asV\ub124\ucd94\ub7f4FNP
p398
(lp399
S'086220'
p400
aFnan
ag34
asV\ucf00\uc774\uc5e0
p401
(lp402
S'083550'
p403
aVKOSDAQ:083550
p404
ag5
asV\ubb34\ud559
p405
(lp406
S'033920'
p407
aVKRX:033920
p408
ag10
asV\uc635\ud2f0\uc2dc\uc2a4
p409
(lp410
S'109080'
p411
aVKOSDAQ:109080
p412
ag5
asV\uc5d0\uc2a4\ud3f4\ub9ac\ud14d
p413
(lp414
S'050760'
p415
aVKOSDAQ:050760
p416
ag5
asV\ud30c\ubbf8\uc140
p417
(lp418
S'005690'
p419
aVKRX:005690
p420
ag10
asV\ucf00\uc774\ud2f0\uc2a4
p421
(lp422
S'058860'
p423
aVKRX:058860
p424
ag10
asV\uc218\uc0b0\uc911\uacf5\uc5c5
p425
(lp426
S'017550'
p427
aVKRX:017550
p428
ag10
asV\uc5d4\uc5d0\uc774\uce58\uc2a4\ud3293\ud638
p429
(lp430
S'198440'
p431
aVKOSDAQ:198440
p432
ag5
asV\uc774\uc820\ud14d
p433
(lp434
S'033600'
p435
aVKOSDAQ:033600
p436
ag5
asV\ub300\ud55c\uacfc\ud559
p437
(lp438
S'131220'
p439
aVKOSDAQ:131220
p440
ag5
asV\uc5d0\uc2a4\uc5d0\uc774\uc5e0\ud2f0
p441
(lp442
S'031330'
p443
aVKOSDAQ:031330
p444
ag5
asV\uc601\uc9c4\uc57d\ud488\uacf5\uc5c5
p445
(lp446
S'003520'
p447
aVKRX:003520
p448
ag10
asV\uc544\ud2b8\ub77c\uc2a4BX
p449
(lp450
S'023890'
p451
aVKOSDAQ:023890
p452
ag5
asV\ub798\ubabd\ub798\uc778
p453
(lp454
S'200350'
p455
aFnan
ag34
asV\uc5e0\ud53c\uc528
p456
(lp457
S'050540'
p458
aVKOSDAQ:050540
p459
ag5
asV\ucf00\uc774\uc528\uc5d0\uc2a4
p460
(lp461
S'115500'
p462
aVKOSDAQ:115500
p463
ag5
asV\ubcf4\ub8e8\ub124\uc624\uac00\uad6c
p464
(lp465
S'004740'
p466
aVKRX:004740
p467
ag10
asV\ub8e8\uba58\uc2a4
p468
(lp469
S'038060'
p470
aVKOSDAQ:038060
p471
ag5
asV\ud55c\ube5b\uc18c\ud504\ud2b8
p472
(lp473
S'047080'
p474
aVKOSDAQ:047080
p475
ag5
asV\ub3d9\uc544\uc9c0\uc9c8
p476
(lp477
S'028100'
p478
aVKRX:028100
p479
ag10
asV\uc88b\uc740\uc0ac\ub78c\ub4e4
p480
(lp481
S'033340'
p482
aVKOSDAQ:033340
p483
ag5
asV\uc9c0\ucf54
p484
(lp485
S'010580'
p486
aVKRX:010580
p487
ag10
asV\uc6d0\uc775QnC
p488
(lp489
S'074600'
p490
aVKOSDAQ:074600
p491
ag5
asV\ub3d9\ubd80\uac74\uc124
p492
(lp493
S'005960'
p494
aVKRX:005960
p495
ag10
asV\ud30c\uc6cc\ub85c\uc9c1\uc2a4
p496
(lp497
S'047310'
p498
aVKOSDAQ:047310
p499
ag5
asV\uc601\uc2e0\uae08\uc18d
p500
(lp501
S'007530'
p502
aVKOSDAQ:007530
p503
ag5
asV\ucf54\ub9ac\uc54404\ud638
p504
(lp505
S'091000'
p506
aVKRX:091000
p507
ag10
asV\uc774\ubca0\uc2a4\ud2b8\ud22c\uc790\uc99d\uad8c
p508
(lp509
S'078020'
p510
aVKOSDAQ:078020
p511
ag5
asV\ud669\uae08\uc5d0\uc2a4\ud2f0
p512
(lp513
S'032560'
p514
aVKRX:032560
p515
ag10
asV\uadf9\ub3d9\uc720\ud654
p516
(lp517
S'014530'
p518
aVKRX:014530
p519
ag10
asV\ub3d9\uad6d\uc81c\uc57d
p520
(lp521
S'086450'
p522
aVKOSDAQ:086450
p523
ag5
asV\uc720\uc548\ud0c0\uc81c2\ud638\uc2a4\ud329
p524
(lp525
S'219960'
p526
aVKOSDAQ:219960
p527
ag5
asV\uc601\uc6b0\ub514\uc5d0\uc2a4\ud53c
p528
(lp529
S'143540'
p530
aVKOSDAQ:143540
p531
ag5
asV\ud3c9\uc0b0\ucc28\uc5c5
p532
(lp533
S'950010'
p534
aVKRX:950010
p535
ag10
asV\ud55c\uad6d\ud0c0\uc774\uc5b4\uc6d4\ub4dc\uc640\uc774\ub4dc
p536
(lp537
S'000240'
p538
aVKRX:000240
p539
ag10
asV\ube44\uc5d0\uc774\uce58
p540
(lp541
S'090460'
p542
aVKOSDAQ:090460
p543
ag5
asV\uc2a4\ud0c0\ud50c\ub809\uc2a4
p544
(lp545
S'115570'
p546
aVKOSDAQ:115570
p547
ag5
asV\uc138\ucf54\ub2c9\uc2a4
p548
(lp549
S'053450'
p550
aVKOSDAQ:053450
p551
ag5
asV\uc81c\uc77c\ud14c\ud06c\ub178\uc2a4
p552
(lp553
S'038010'
p554
aVKOSDAQ:038010
p555
ag5
asV\ud14c\uc2a4\ub098
p556
(lp557
S'131970'
p558
aVKOSDAQ:131970
p559
ag5
asV\uc544\uc2dc\uc544\ud37c\uc2dc\ud53d11\ud638
p560
(lp561
S'083580'
p562
aVKRX:083580
p563
ag10
asV\uc704\ub2c9\uc2a4
p564
(lp565
S'044340'
p566
aVKOSDAQ:044340
p567
ag5
asV\uc778\ud2b8\ub860\ubc14\uc774\uc624
p568
(lp569
S'048530'
p570
aVKOSDAQ:048530
p571
ag5
asV\ud55c\uc194\uc544\ud2b8\uc6d0\uc81c\uc9c0
p572
(lp573
S'007190'
p574
aVKRX:007190
p575
ag10
asVKG\ubaa8\ube4c\ub9ac\uc5b8\uc2a4
p576
(lp577
S'046440'
p578
aVKOSDAQ:046440
p579
ag5
asV\ubc14\ud14d
p580
(lp581
S'043150'
p582
aVKOSDAQ:043150
p583
ag5
asV\uc544\uc8fc\uce90\ud53c\ud0c8
p584
(lp585
S'033660'
p586
aVKRX:033660
p587
ag10
asV\ub300\uc2e0\uc99d\uad8c
p588
(lp589
S'003540'
p590
aVKRX:003540
p591
ag10
asV\uc6f9\uc820
p592
(lp593
S'069080'
p594
aVKOSDAQ:069080
p595
ag5
asV\uac00\ube44\uc544
p596
(lp597
S'079940'
p598
aVKOSDAQ:079940
p599
ag5
asV\uc77c\uc815\uc2e4\uc5c5
p600
(lp601
S'008500'
p602
aVKRX:008500
p603
ag10
asV\uc2b9\uc77c
p604
(lp605
S'049830'
p606
aVKOSDAQ:049830
p607
ag5
asV\uc774\uac74\uc0b0\uc5c5
p608
(lp609
S'008250'
p610
aVKRX:008250
p611
ag10
asV\ucc28\uc774\ub098\ud558\uc624\ub780
p612
(lp613
S'900090'
p614
aVKOSDAQ:900090
p615
ag5
asV\uc8fc\uc5f0\ud14c\ud06c
p616
(lp617
S'044380'
p618
aVKRX:044380
p619
ag10
asVS&T\ubaa8\ud2f0\ube0c
p620
(lp621
S'064960'
p622
aVKRX:064960
p623
ag10
asV\ub098\ub178
p624
(lp625
S'187790'
p626
aVKOSDAQ:187790
p627
ag5
asVKT\ubba4\uc9c1
p628
(lp629
S'043610'
p630
aVKOSDAQ:043610
p631
ag5
asV\uc5d0\uc774\uc2a4\uce68\ub300
p632
(lp633
S'003800'
p634
aVKOSDAQ:003800
p635
ag5
asV\ud55c\ubbf8\uae00\ub85c\ubc8c
p636
(lp637
S'053690'
p638
aVKRX:053690
p639
ag10
asV\ud55c\uc2e0\uacf5\uc601
p640
(lp641
S'004960'
p642
aVKRX:004960
p643
ag10
asV\ubc31\uae08T&A
p644
(lp645
S'046310'
p646
aVKOSDAQ:046310
p647
ag5
asV\ud55c\uad6d\uc815\ubcf4\uacf5\ud559
p648
(lp649
S'039740'
p650
aVKOSDAQ:039740
p651
ag5
asV\uc720\ud654\uc99d\uad8c
p652
(lp653
S'003460'
p654
aVKRX:003460
p655
ag10
asV\uc0ac\ub78c\uc778\uc5d0\uc774\uce58\uc54c
p656
(lp657
S'143240'
p658
aVKOSDAQ:143240
p659
ag5
asVSBS\ubbf8\ub514\uc5b4\ud640\ub529\uc2a4
p660
(lp661
S'101060'
p662
aVKRX:101060
p663
ag10
asV\ub9ac\ub4dc
p664
(lp665
S'197210'
p666
aFnan
ag34
asV\ud558\uc774\ub85d\ucf54\ub9ac\uc544
p667
(lp668
S'013030'
p669
aVKOSDAQ:013030
p670
ag5
asV\ub300\uc131\ud30c\uc778\ud14d
p671
(lp672
S'104040'
p673
aVKOSDAQ:104040
p674
ag5
asV\uc5d0\uc774\ube14\uc528\uc5d4\uc528
p675
(lp676
S'078520'
p677
aVKRX:078520
p678
ag10
asV\ud55c\uc194\ud648\ub370\ucf54
p679
(lp680
S'025750'
p681
aVKRX:025750
p682
ag10
asV\ucf54\uc544\uc2a4\ud15c
p683
(lp684
S'166480'
p685
aVKOSDAQ:166480
p686
ag5
asV\uc2e0\ub77c\uc5d0\uc2a4\uc9c0
p687
(lp688
S'025870'
p689
aVKOSDAQ:025870
p690
ag5
asV\ub9ac\ub178\uacf5\uc5c5
p691
(lp692
S'058470'
p693
aVKOSDAQ:058470
p694
ag5
asV\uc774\uc528\uc5d0\uc2a4
p695
(lp696
S'067010'
p697
aVKOSDAQ:067010
p698
ag5
asV\ube44\ud2b8\ucef4\ud4e8\ud130
p699
(lp700
S'032850'
p701
aVKOSDAQ:032850
p702
ag5
asV\uc2e0\uc131\uc774\uc5d4\uc9c0
p703
(lp704
S'104110'
p705
aVKRX:104110
p706
ag10
asV\uae08\ud638\ud0c0\uc774\uc5b4
p707
(lp708
S'073240'
p709
aVKRX:073240
p710
ag10
asVKG\uc774\ub2c8\uc2dc\uc2a4
p711
(lp712
S'035600'
p713
aVKOSDAQ:035600
p714
ag5
asV\ub3d9\ubd80\ud558\uc774\ud14d
p715
(lp716
S'000990'
p717
aVKRX:000990
p718
ag10
asV\uc870\ube44
p719
(lp720
S'001550'
p721
aVKRX:001550
p722
ag10
asV\ubc14\uc774\uc624\ud1a1\uc2a4\ud14d
p723
(lp724
S'086040'
p725
aVKOSDAQ:086040
p726
ag5
asV\ud604\ub300\ub85c\ud15c
p727
(lp728
S'064350'
p729
aVKRX:064350
p730
ag10
asV\uc384\ubbf8\uc2dc\uc2a4\ucf54
p731
(lp732
S'136510'
p733
aVKOSDAQ:136510
p734
ag5
asV\ud53c\uc5d0\uc2a4\uc5e0\uc528
p735
(lp736
S'024850'
p737
aVKOSDAQ:024850
p738
ag5
asV\uc544\uc774\ub514\uc5d0\uc2a4
p739
(lp740
S'078780'
p741
aVKOSDAQ:078780
p742
ag5
asV\uc0bc\ud654\uc804\uae30
p743
(lp744
S'009470'
p745
aVKRX:009470
p746
ag10
asV\uc0c8\ub860\uc624\ud1a0\ubaa8\ud2f0\ube0c
p747
(lp748
S'075180'
p749
aVKRX:075180
p750
ag10
asV\ucf54\ub77c\uc624\ud640\ub529\uc2a4
p751
(lp752
S'900140'
p753
aVKRX:900140
p754
ag10
asV\uc2e0\uc138\uacc4I&C
p755
(lp756
S'035510'
p757
aVKRX:035510
p758
ag10
asV\uc0bc\uc601\ubb34\uc5ed
p759
(lp760
S'002810'
p761
aVKRX:002810
p762
ag10
asV\ucf00\uc774\ube44\uc81c7\ud638\uc2a4\ud329
p763
(lp764
S'214270'
p765
aVKOSDAQ:214270
p766
ag5
asV\uc0c1\uc2e0\uc774\ub514\ud53c
p767
(lp768
S'091580'
p769
aVKOSDAQ:091580
p770
ag5
asV\ub2e4\uc6b0\uc778\ud050\ube0c
p771
(lp772
S'020120'
p773
aVKRX:020120
p774
ag10
asV\ud654\uc2b9\uc778\ub354\uc2a4\ud2b8\ub9ac
p775
(lp776
S'006060'
p777
aVKRX:006060
p778
ag10
asV\ucea0\uc2dc\uc2a4
p779
(lp780
S'050110'
p781
aVKOSDAQ:050110
p782
ag5
asV\uc5d0\uc388\ud14c\ud06c
p783
(lp784
S'043340'
p785
aVKOSDAQ:043340
p786
ag5
asV\ub124\uc624\ud53c\ub378\ub9ac\ud2f0
p787
(lp788
S'101400'
p789
aVKOSDAQ:101400
p790
ag5
asV\uc5d0\uc2a4\ud14d\ud30c\ub9c8
p791
(lp792
S'041910'
p793
aVKOSDAQ:041910
p794
ag5
asV\ud2f0\ucf00\uc774\ucf00\ubbf8\uce7c
p795
(lp796
S'104480'
p797
aVKOSDAQ:104480
p798
ag5
asV\uc774\uc544\uc774\ub514
p799
(lp800
S'093230'
p801
aVKRX:093230
p802
ag10
asV\uc77c\ub3d9\uc81c\uc57d
p803
(lp804
S'000230'
p805
aVKRX:000230
p806
ag10
asV\ucf00\uc774\uc544\uc774\uc5d4\uc5d1\uc2a4
p807
(lp808
S'093320'
p809
aVKOSDAQ:093320
p810
ag5
asV\uc774\uc5d8\ud53c
p811
(lp812
S'063760'
p813
aFnan
ag34
asV\ud55c\uc77c\uc774\ud654
p814
(lp815
S'200880'
p816
aVKRX:200880
p817
ag10
asV\uc0c1\uc544\ud504\ub860\ud14c\ud06c
p818
(lp819
S'089980'
p820
aVKOSDAQ:089980
p821
ag5
asV\ud558\ub9bc
p822
(lp823
S'136480'
p824
aVKOSDAQ:136480
p825
ag5
asV\ub85c\uc5d4
p826
(lp827
S'016170'
p828
aVKOSDAQ:016170
p829
ag5
asV\uc774\ud06c\ub808\ub354\ube14
p830
(lp831
S'092130'
p832
aVKOSDAQ:092130
p833
ag5
asV\uad11\uc8fc\uc740\ud589
p834
(lp835
S'192530'
p836
aVKRX:192530
p837
ag10
asV\ud56b\ud14d
p838
(lp839
S'015540'
p840
aVKRX:015540
p841
ag10
asV\ud55c\uad6d\uc8fc\uac15
p842
(lp843
S'025890'
p844
aVKRX:025890
p845
ag10
asV\ucf54\ub9ac\uc544\uc5d0\ud504\ud2f0
p846
(lp847
S'123410'
p848
aVKOSDAQ:123410
p849
ag5
asV\ud3c9\ud654\uc815\uacf5
p850
(lp851
S'043370'
p852
aVKOSDAQ:043370
p853
ag5
asV\ub3d9\ubd81\uc54413\ud638\uc120\ubc15\ud22c\uc790
p854
(lp855
S'083380'
p856
aVKRX:083380
p857
ag10
asV\ud55c\ud654\ud22c\uc790\uc99d\uad8c
p858
(lp859
S'003530'
p860
aVKRX:003530
p861
ag10
asV\ud55c\uad6d\uce90\ud53c\ud0c8
p862
(lp863
S'023760'
p864
aVKOSDAQ:023760
p865
ag5
asV\ub300\uc131\ubbf8\uc0dd\ubb3c
p866
(lp867
S'036480'
p868
aVKOSDAQ:036480
p869
ag5
asV\ud55c\uad6d\ucca0\uac15
p870
(lp871
S'104700'
p872
aVKRX:104700
p873
ag10
asV\uc544\uc2dc\uc544\uacbd\uc81c
p874
(lp875
S'127710'
p876
aVKOSDAQ:127710
p877
ag5
asV\ub9c8\uc81c\uc2a4\ud0c0
p878
(lp879
S'035480'
p880
aVKOSDAQ:035480
p881
ag5
asVNICE
p882
(lp883
S'034310'
p884
aVKRX:034310
p885
ag10
asV\uc774\uc5e0\ub137
p886
(lp887
S'123570'
p888
aVKOSDAQ:123570
p889
ag5
asV\uc774\ub9c8\ud2b8
p890
(lp891
S'139480'
p892
aVKRX:139480
p893
ag10
asVCJ\uc528\ud478\ub4dc
p894
(lp895
S'011150'
p896
aVKRX:011150
p897
ag10
asV\uacc4\uc591\uc804\uae30
p898
(lp899
S'012200'
p900
aVKRX:012200
p901
ag10
asV\ub0a8\uc591\uc720\uc5c5
p902
(lp903
S'003920'
p904
aVKRX:003920
p905
ag10
asV\ub7a8\ud14c\ud06c\ub180\ub7ec\uc9c0
p906
(lp907
S'171010'
p908
aVKOSDAQ:171010
p909
ag5
asV\ub300\uc2e0\ubc38\ub7f0\uc2a4\uc81c1\ud638\uc2a4\ud329
p910
(lp911
S'217270'
p912
aVKOSDAQ:217270
p913
ag5
asV\uacc4\ub8e1\uac74\uc124\uc0b0\uc5c5
p914
(lp915
S'013580'
p916
aVKRX:013580
p917
ag10
asV\ud55c\uc77c\ud654\ud559
p918
(lp919
S'007770'
p920
aVKOSDAQ:007770
p921
ag5
asV\ub85c\ub9cc\uc190
p922
(lp923
S'026040'
p924
aVKOSDAQ:026040
p925
ag5
asV\uc0bc\uc9c0\uc804\uc790
p926
(lp927
S'037460'
p928
aVKOSDAQ:037460
p929
ag5
asV\uba54\uac00\uc2a4\ud130\ub514\uad50\uc721
p930
(lp931
S'215200'
p932
aVKOSDAQ:215200
p933
ag5
asV\ub300\uc131\uc0b0\uc5c5
p934
(lp935
S'128820'
p936
aVKRX:128820
p937
ag10
asV\ud53c\uc5e0\ub514\uc544\uce74\ub370\ubbf8
p938
(lp939
S'144740'
p940
aFnan
ag34
asV\uc774\uc5f0\uc81c\uc57d
p941
(lp942
S'102460'
p943
aVKRX:102460
p944
ag10
asVSK\uc774\ub178\ubca0\uc774\uc158
p945
(lp946
S'096770'
p947
aVKRX:096770
p948
ag10
asV\uc774\ub8e8\uc628
p949
(lp950
S'065440'
p951
aVKOSDAQ:065440
p952
ag5
asV\ubcf4\ud0c0\ubc14\uc774\uc624
p953
(lp954
S'026260'
p955
aVKOSDAQ:026260
p956
ag5
asV\ub3d9\ubd80\uc2a4\ud3292\ud638
p957
(lp958
S'207760'
p959
aVKOSDAQ:207760
p960
ag5
asV\ube44\uc0c1\uad50\uc721
p961
(lp962
S'100220'
p963
aVKRX:100220
p964
ag10
asV\ud06c\ub8e8\uc15c\ud14d
p965
(lp966
S'114120'
p967
aVKOSDAQ:114120
p968
ag5
asV\ud050\ub85c\ud640\ub529\uc2a4
p969
(lp970
S'051780'
p971
aVKOSDAQ:051780
p972
ag5
asV\ud3ec\uc2a4\ucf54 ICT
p973
(lp974
S'022100'
p975
aVKOSDAQ:022100
p976
ag5
asV\uc720\uc9c4\uae30\uc5c5
p977
(lp978
S'023410'
p979
aVKOSDAQ:023410
p980
ag5
asV\uc9c4\uc591\uc81c\uc57d
p981
(lp982
S'007370'
p983
aVKOSDAQ:007370
p984
ag5
asV\ud0dc\uc6d0\ubb3c\uc0b0
p985
(lp986
S'001420'
p987
aVKRX:001420
p988
ag10
asV\ub514\uc5d0\uc774\ud14c\ud06c\ub180\ub85c\uc9c0
p989
(lp990
S'196490'
p991
aVKOSDAQ:196490
p992
ag5
asV\ud55c\uad6dANKOR\uc720\uc804
p993
(lp994
S'152550'
p995
aVKRX:152550
p996
ag10
asV\uc81c\ub099\uc2a4
p997
(lp998
S'065620'
p999
aVKOSDAQ:065620
p1000
ag5
asVSK2\ud638\uc2a4\ud329
p1001
(lp1002
S'219550'
p1003
aVKOSDAQ:219550
p1004
ag5
asV\ud050\uc5d0\uc2a4\uc544\uc774
p1005
(lp1006
S'066310'
p1007
aVKOSDAQ:066310
p1008
ag5
asV\uc548\uad6d\uc57d\ud488
p1009
(lp1010
S'001540'
p1011
aVKOSDAQ:001540
p1012
ag5
asV\uc6b0\ub9ac\uae30\uc220\ud22c\uc790
p1013
(lp1014
S'041190'
p1015
aVKOSDAQ:041190
p1016
ag5
asV\ucf00\uc774\uc5d4\ub354\ube14\uc720
p1017
(lp1018
S'105330'
p1019
aVKOSDAQ:105330
p1020
ag5
asV\ucf54\uc6f0\ud328\uc158
p1021
(lp1022
S'033290'
p1023
aVKOSDAQ:033290
p1024
ag5
asV\uc774\uc5e0\ud14d
p1025
(lp1026
S'091120'
p1027
aVKOSDAQ:091120
p1028
ag5
asV\uc528\uc5d4\ud50c\ub7ec\uc2a4
p1029
(lp1030
S'115530'
p1031
aVKOSDAQ:115530
p1032
ag5
asV\ub3d9\uc77c\uc0b0\uc5c5
p1033
(lp1034
S'004890'
p1035
aVKRX:004890
p1036
ag10
asV\uc384\ud2b8\ub809\uc544\uc774
p1037
(lp1038
S'099320'
p1039
aVKOSDAQ:099320
p1040
ag5
asVKTcs
p1041
(lp1042
S'058850'
p1043
aVKRX:058850
p1044
ag10
asV\uc2ec\ud14d
p1045
(lp1046
S'222800'
p1047
aVKOSDAQ:222800
p1048
ag5
asV\ube44\uce20\ub85c\uc140
p1049
(lp1050
S'082920'
p1051
aVKOSDAQ:082920
p1052
ag5
asV\ub9c1\ub124\ud2b8
p1053
(lp1054
S'042500'
p1055
aVKOSDAQ:042500
p1056
ag5
asV\ubca0\ud2b8\ub0a8\uac1c\ubc1c1
p1057
(lp1058
S'096300'
p1059
aVKRX:096300
p1060
ag10
asVLG\uc0c1\uc0ac
p1061
(lp1062
S'001120'
p1063
aVKRX:001120
p1064
ag10
asVDMS
p1065
(lp1066
S'068790'
p1067
aVKOSDAQ:068790
p1068
ag5
asV\ucc98\uc74c\uc564\uc528
p1069
(lp1070
S'111820'
p1071
aVKOSDAQ:111820
p1072
ag5
asV\uc624\ub9ac\uc5d4\ud2b8\ubc14\uc774\uc624
p1073
(lp1074
S'002630'
p1075
aVKRX:002630
p1076
ag10
asV\ud06c\ub9ac\uc2a4\ud0c8
p1077
(lp1078
S'083790'
p1079
aVKOSDAQ:083790
p1080
ag5
asV\ucf54\uc2a4\ub9e5\uc2a4\ube44\ud2f0\uc544\uc774
p1081
(lp1082
S'044820'
p1083
aVKRX:044820
p1084
ag10
asV\uc774\uadf8\uc7ad\uc2a4
p1085
(lp1086
S'060230'
p1087
aVKOSDAQ:060230
p1088
ag5
asV\uc720\ub2c8\ub354\uc2a4
p1089
(lp1090
S'044480'
p1091
aVKOSDAQ:044480
p1092
ag5
asV\ub274\ub85c\uc2a4
p1093
(lp1094
S'126870'
p1095
aVKOSDAQ:126870
p1096
ag5
asV\uc0bc\ubaa9\uc5d0\uc2a4\ud3fc
p1097
(lp1098
S'018310'
p1099
aVKOSDAQ:018310
p1100
ag5
asV\ub300\uc6d0\uac15\uc5c5
p1101
(lp1102
S'000430'
p1103
aVKRX:000430
p1104
ag10
asV\ubd80\uc0b0\uc8fc\uacf5
p1105
(lp1106
S'005030'
p1107
aVKRX:005030
p1108
ag10
asVAST\uc82f\ud14d
p1109
(lp1110
S'090470'
p1111
aVKOSDAQ:090470
p1112
ag5
asV\ud604\ub300\ub4dc\ub9bc\uc2a4\ud3292\ud638
p1113
(lp1114
S'204630'
p1115
aVKOSDAQ:204630
p1116
ag5
asV\ub3d9\uc77c\ubc29\uc9c1
p1117
(lp1118
S'001530'
p1119
aVKRX:001530
p1120
ag10
asV\uc0bc\uc591\ud640\ub529\uc2a4
p1121
(lp1122
S'000070'
p1123
aVKRX:000070
p1124
ag10
asV\uc774\ud2b8\ub860
p1125
(lp1126
S'096040'
p1127
aVKOSDAQ:096040
p1128
ag5
asV\ud55c\uc9c4
p1129
(lp1130
S'002320'
p1131
aVKRX:002320
p1132
ag10
asV\ubaa8\ub2e4\uc815\ubcf4\ud1b5\uc2e0
p1133
(lp1134
S'149940'
p1135
aVKOSDAQ:149940
p1136
ag5
asV\ub3d9\uc9c4\uc384\ubbf8\ucf10
p1137
(lp1138
S'005290'
p1139
aVKOSDAQ:005290
p1140
ag5
asV\ub274\ud504\ub809\uc2a4
p1141
(lp1142
S'085670'
p1143
aVKOSDAQ:085670
p1144
ag5
asV\ucf54\ub2c9\uae00\ub85c\ub9ac
p1145
(lp1146
S'094860'
p1147
aVKOSDAQ:094860
p1148
ag5
asV\uc0bc\uc77c\uae30\uc5c5\uacf5\uc0ac
p1149
(lp1150
S'002290'
p1151
aVKOSDAQ:002290
p1152
ag5
asV\ud55c\uad6d\ud050\ube45
p1153
(lp1154
S'021650'
p1155
aVKOSDAQ:021650
p1156
ag5
asV\uc138\uae30\uc0c1\uc0ac
p1157
(lp1158
S'002420'
p1159
aVKRX:002420
p1160
ag10
asV\uc11c\ud638\uc804\uae30
p1161
(lp1162
S'065710'
p1163
aVKOSDAQ:065710
p1164
ag5
asV\uce74\uc2a4
p1165
(lp1166
S'016920'
p1167
aVKOSDAQ:016920
p1168
ag5
asV\ud604\ub300\uc0b0\uc5c5\uac1c\ubc1c
p1169
(lp1170
S'012630'
p1171
aVKRX:012630
p1172
ag10
asV\uad6d\uc77c\uc81c\uc9c0
p1173
(lp1174
S'078130'
p1175
aVKOSDAQ:078130
p1176
ag5
asV\uc138\uc6b0\uae00\ub85c\ubc8c
p1177
(lp1178
S'013000'
p1179
aVKRX:013000
p1180
ag10
asV\uc774\ub79c\ud14d
p1181
(lp1182
S'054210'
p1183
aVKOSDAQ:054210
p1184
ag5
asVKMH
p1185
(lp1186
S'122450'
p1187
aVKOSDAQ:122450
p1188
ag5
asV\ud654\uc2e0\ud14c\ud06c
p1189
(lp1190
S'086250'
p1191
aVKOSDAQ:086250
p1192
ag5
asV\ud504\ub7fc\ud30c\uc2a4\ud2b8
p1193
(lp1194
S'035200'
p1195
aVKOSDAQ:035200
p1196
ag5
asV\uac8c\uc784\ube4c
p1197
(lp1198
S'063080'
p1199
aVKOSDAQ:063080
p1200
ag5
asV\uc5d4\ud53c\ucf00\uc774
p1201
(lp1202
S'048830'
p1203
aVKOSDAQ:048830
p1204
ag5
asV\ud55c\uad6d\ud56d\uacf5\uc6b0\uc8fc
p1205
(lp1206
S'047810'
p1207
aVKRX:047810
p1208
ag10
asV\uc774\ud654\uc0b0\uc5c5
p1209
(lp1210
S'000760'
p1211
aVKRX:000760
p1212
ag10
asV\uc778\uc9c0\ub514\uc2a4\ud50c\ub808
p1213
(lp1214
S'037330'
p1215
aVKOSDAQ:037330
p1216
ag5
asV\uc81c\ub178\ud3ec\ucee4\uc2a4
p1217
(lp1218
S'187420'
p1219
aVKOSDAQ:187420
p1220
ag5
asVCJ
p1221
(lp1222
S'001040'
p1223
aVKRX:001040
p1224
ag10
asV\ub370\uc774\ud130\uc2a4\ud2b8\ub9bc\uc988
p1225
(lp1226
S'199150'
p1227
aFnan
ag34
asV\ud0a4\uc6c0\uc2a4\ud3293\ud638
p1228
(lp1229
S'218710'
p1230
aVKOSDAQ:218710
p1231
ag5
asV\uc5d4\uc5d0\uc774\uce58\uc2a4\ud3295\ud638
p1232
(lp1233
S'215790'
p1234
aVKOSDAQ:215790
p1235
ag5
asVCS
p1236
(lp1237
S'065770'
p1238
aVKOSDAQ:065770
p1239
ag5
asV\uc634\ub2c8\ud154
p1240
(lp1241
S'057680'
p1242
aVKOSDAQ:057680
p1243
ag5
asV\ud3ec\ube44\uc2a4\ud2f0\uc564\uc528
p1244
(lp1245
S'016670'
p1246
aVKOSDAQ:016670
p1247
ag5
asV\uc11c\uc6b8\uc2dd\ud488\uacf5\uc5c5
p1248
(lp1249
S'004410'
p1250
aVKRX:004410
p1251
ag10
asV\uc870\uc774\ub9e5\uc2a4
p1252
(lp1253
S'101730'
p1254
aVKOSDAQ:101730
p1255
ag5
asV\ucf54\ub9ac\uc544\ub098
p1256
(lp1257
S'027050'
p1258
aVKOSDAQ:027050
p1259
ag5
asV\ud14c\uc2a4
p1260
(lp1261
S'095610'
p1262
aVKOSDAQ:095610
p1263
ag5
asV\uc774\uc5d4\uc4f0\ub9ac
p1264
(lp1265
S'074610'
p1266
aVKRX:074610
p1267
ag10
asV\uc0bc\ub96d\ubb3c\uc0b0
p1268
(lp1269
S'014970'
p1270
aVKOSDAQ:014970
p1271
ag5
asV\uc720\uc544\uc774\uc5d8
p1272
(lp1273
S'049520'
p1274
aVKOSDAQ:049520
p1275
ag5
asV\uc82c\ubc31\uc2a4\ud14c\ud06c\ub180\ub7ec\uc9c0
p1276
(lp1277
S'041590'
p1278
aVKOSDAQ:041590
p1279
ag5
asV\uc5d0\uc774\uc528\ud2f0
p1280
(lp1281
S'138360'
p1282
aVKOSDAQ:138360
p1283
ag5
asVJYP Ent.
p1284
(lp1285
S'035900'
p1286
aVKOSDAQ:035900
p1287
ag5
asV\uc11c\uc5f0
p1288
(lp1289
S'007860'
p1290
aVKRX:007860
p1291
ag10
asV\uc0bc\uc775THK
p1292
(lp1293
S'004380'
p1294
aVKRX:004380
p1295
ag10
asV\ud55c\uc9c4\ud53c\uc564\uc528
p1296
(lp1297
S'061460'
p1298
aVKOSDAQ:061460
p1299
ag5
asV\ubaa8\ud5e8\uc988
p1300
(lp1301
S'006920'
p1302
aVKOSDAQ:006920
p1303
ag5
asV\ud32c\uc5d4\ud130\ud14c\uc778\uba3c\ud2b8
p1304
(lp1305
S'068050'
p1306
aVKOSDAQ:068050
p1307
ag5
asV\ub300\ub9bc\ube44\uc564\ucf54
p1308
(lp1309
S'005750'
p1310
aVKRX:005750
p1311
ag10
asV\ub098\uc2a4\ubbf8\ub514\uc5b4
p1312
(lp1313
S'089600'
p1314
aVKOSDAQ:089600
p1315
ag5
asV\uc789\ud06c\ud14c\ud06c
p1316
(lp1317
S'049550'
p1318
aVKOSDAQ:049550
p1319
ag5
asV\ub300\ud654\uc81c\uc57d
p1320
(lp1321
S'067080'
p1322
aVKOSDAQ:067080
p1323
ag5
asV\ud55c\uc194\ud640\ub529\uc2a4
p1324
(lp1325
S'004150'
p1326
aVKRX:004150
p1327
ag10
asV\uc544\uc774\ub9c8\ucf13\ucf54\ub9ac\uc544
p1328
(lp1329
S'122900'
p1330
aVKRX:122900
p1331
ag10
asV\uc778\ub514\uc5d0\ud504
p1332
(lp1333
S'014990'
p1334
aVKRX:014990
p1335
ag10
asV\ud55c\uad6d\uc885\ud569\uae30\uc220
p1336
(lp1337
S'023350'
p1338
aVKRX:023350
p1339
ag10
asV\uc5e0\uc5d0\uc2a4\uc528
p1340
(lp1341
S'009780'
p1342
aVKOSDAQ:009780
p1343
ag5
asV\ucf00\uc774\uc528\ud2f0
p1344
(lp1345
S'089150'
p1346
aVKOSDAQ:089150
p1347
ag5
asV\ubc14\uc774\uc624\ub2c8\uc544
p1348
(lp1349
S'064550'
p1350
aVKOSDAQ:064550
p1351
ag5
asV\ub51c\ub9ac
p1352
(lp1353
S'131180'
p1354
aVKOSDAQ:131180
p1355
ag5
asV\uc774-\uae00 \ubcb3
p1356
(lp1357
S'044960'
p1358
aVKOSDAQ:044960
p1359
ag5
asV\uc2e0\ud55c
p1360
(lp1361
S'005450'
p1362
aVKRX:005450
p1363
ag10
asV\ub3d9\uc6d0\uac1c\ubc1c
p1364
(lp1365
S'013120'
p1366
aVKOSDAQ:013120
p1367
ag5
asV\ub124\uc624\uc704\uc988\uac8c\uc784\uc988
p1368
(lp1369
S'095660'
p1370
aVKOSDAQ:095660
p1371
ag5
asV\ub098\ub178\ubc14\uc774\uc624\uc2dc\uc2a4
p1372
(lp1373
S'214610'
p1374
aFnan
ag34
asV\uac00\uc628\ubbf8\ub514\uc5b4
p1375
(lp1376
S'078890'
p1377
aVKOSDAQ:078890
p1378
ag5
asV\uc6b0\uc131I&C
p1379
(lp1380
S'011080'
p1381
aVKOSDAQ:011080
p1382
ag5
asV\uc2e0\uc138\uacc4
p1383
(lp1384
S'004170'
p1385
aVKRX:004170
p1386
ag10
asV\ud310\ud0c0\uc9c0\uc624
p1387
(lp1388
S'032800'
p1389
aVKOSDAQ:032800
p1390
ag5
asV\ub125\uc13c
p1391
(lp1392
S'005720'
p1393
aVKRX:005720
p1394
ag10
asV\uc0bc\uc131\ucd9c\ud310\uc0ac
p1395
(lp1396
S'068290'
p1397
aVKRX:068290
p1398
ag10
asV\uc5d0\uc2a4\uc81c\uc774\uc5e0
p1399
(lp1400
S'123700'
p1401
aVKRX:123700
p1402
ag10
asV\uad11\uc8fc\uc2e0\uc138\uacc4
p1403
(lp1404
S'037710'
p1405
aVKRX:037710
p1406
ag10
asV\ub808\ub4dc\ub85c\ubc84
p1407
(lp1408
S'060300'
p1409
aVKOSDAQ:060300
p1410
ag5
asV\ud604\ub300EP
p1411
(lp1412
S'089470'
p1413
aVKRX:089470
p1414
ag10
asV\ud53c\uc564\uc774\uc194\ub8e8\uc158
p1415
(lp1416
S'131390'
p1417
aVKOSDAQ:131390
p1418
ag5
asV\ub300\uba85\ucf54\ud37c\ub808\uc774\uc158
p1419
(lp1420
S'007720'
p1421
aVKOSDAQ:007720
p1422
ag5
asV\ub3d9\uc77c\uae08\uc18d
p1423
(lp1424
S'109860'
p1425
aVKOSDAQ:109860
p1426
ag5
asV\uc138\uc2e0\ubc84\ud314\ub85c
p1427
(lp1428
S'110660'
p1429
aFnan
ag34
asV\uae08\ube44
p1430
(lp1431
S'008870'
p1432
aVKRX:008870
p1433
ag10
asV\uc2e0\ud6c4
p1434
(lp1435
S'066430'
p1436
aVKOSDAQ:066430
p1437
ag5
asV\ud648\uc13c\ud0c0
p1438
(lp1439
S'060560'
p1440
aVKOSDAQ:060560
p1441
ag5
asV\uc544\ube44\uc2a4\ud0c0
p1442
(lp1443
S'090370'
p1444
aVKRX:090370
p1445
ag10
asV\uc720\ub2c8\ud3ec\uc778\ud2b8
p1446
(lp1447
S'121060'
p1448
aFnan
ag34
asV\ud30c\uc778\ub514\uc564\uc528
p1449
(lp1450
S'049120'
p1451
aVKOSDAQ:049120
p1452
ag5
asV\uc870\uad11\ud53c\ud601
p1453
(lp1454
S'004700'
p1455
aVKRX:004700
p1456
ag10
asV\ub300\uc8fc\uc774\uc5d4\ud2f0
p1457
(lp1458
S'114920'
p1459
aFnan
ag34
asV\ud55c\uc9c4\uc911\uacf5\uc5c5
p1460
(lp1461
S'097230'
p1462
aVKRX:097230
p1463
ag10
asV\uc11c\uc6d0
p1464
(lp1465
S'021050'
p1466
aVKRX:021050
p1467
ag10
asV\uc720\uc9c4\ud14c\ud06c
p1468
(lp1469
S'084370'
p1470
aVKOSDAQ:084370
p1471
ag5
asV\uc5d0\uc774\ud2f0\uc138\ubbf8\ucf58
p1472
(lp1473
S'089530'
p1474
aVKOSDAQ:089530
p1475
ag5
asVSY\uc774\ub178\ubca0\uc774\uc158
p1476
(lp1477
S'194860'
p1478
aFnan
ag34
asV\ubc84\ucd94\uc5bc\ud14d
p1479
(lp1480
S'036620'
p1481
aVKOSDAQ:036620
p1482
ag5
asV\uc138\ud654\ud53c\uc564\uc528
p1483
(lp1484
S'085980'
p1485
aFnan
ag34
asV\ub300\uc544\ud2f0\uc544\uc774
p1486
(lp1487
S'045390'
p1488
aVKOSDAQ:045390
p1489
ag5
asVKT\uc11c\ube0c\ub9c8\ub9b0
p1490
(lp1491
S'060370'
p1492
aVKOSDAQ:060370
p1493
ag5
asV\ubd80\uad6d\ucca0\uac15
p1494
(lp1495
S'026940'
p1496
aVKRX:026940
p1497
ag10
asV\ucf54\uc2a4\ub9e5\uc2a4
p1498
(lp1499
S'192820'
p1500
aVKRX:192820
p1501
ag10
asV\ub3c4\uc774\uce58\ubaa8\ud130\uc2a4
p1502
(lp1503
S'067990'
p1504
aVKOSDAQ:067990
p1505
ag5
asV\uc0bc\uc131\ubb3c\uc0b0
p1506
(lp1507
S'000830'
p1508
aVKRX:000830
p1509
ag10
asVKCC\uac74\uc124
p1510
(lp1511
S'021320'
p1512
aVKOSDAQ:021320
p1513
ag5
asV\ubc14\uc774\uc624\ub9ac\ub354\uc2a4
p1514
(lp1515
S'142760'
p1516
aFnan
ag34
asV\ud48d\uad6d\uc8fc\uc815
p1517
(lp1518
S'023900'
p1519
aVKOSDAQ:023900
p1520
ag5
asV\uc0bc\ud658\uae4c\ubba4
p1521
(lp1522
S'013700'
p1523
aVKRX:013700
p1524
ag10
asV\ub86f\ub370\uc81c\uacfc
p1525
(lp1526
S'004990'
p1527
aVKRX:004990
p1528
ag10
asV\uc640\uc774\ub514\uc628\ub77c\uc778
p1529
(lp1530
S'052770'
p1531
aVKOSDAQ:052770
p1532
ag5
asV\ud654\uc77c\uc57d\ud488
p1533
(lp1534
S'061250'
p1535
aVKOSDAQ:061250
p1536
ag5
asV\uc774\uc9c0\ubc14\uc774\uc624
p1537
(lp1538
S'035810'
p1539
aVKOSDAQ:035810
p1540
ag5
asV\ud55c\uad6d\uc81c\uc9c0
p1541
(lp1542
S'002300'
p1543
aVKRX:002300
p1544
ag10
asV\ubc14\ub978\uc804\uc790
p1545
(lp1546
S'064520'
p1547
aVKOSDAQ:064520
p1548
ag5
asV\ud30c\ub8e8
p1549
(lp1550
S'043200'
p1551
aVKOSDAQ:043200
p1552
ag5
asV\uc778\uc2a4\ucf54\ube44
p1553
(lp1554
S'006490'
p1555
aVKRX:006490
p1556
ag10
asV\ud3ec\uc778\ud2b8\uc544\uc774
p1557
(lp1558
S'078860'
p1559
aVKOSDAQ:078860
p1560
ag5
asV\uc544\uc2dc\uc54410\ud638
p1561
(lp1562
S'083570'
p1563
aVKRX:083570
p1564
ag10
asV\uc9c0\ub514
p1565
(lp1566
S'155960'
p1567
aVKOSDAQ:155960
p1568
ag5
asV\uc544\ubbf8\ub178\ub85c\uc9c1\uc2a4
p1569
(lp1570
S'074430'
p1571
aVKOSDAQ:074430
p1572
ag5
asVMPK
p1573
(lp1574
S'065150'
p1575
aVKOSDAQ:065150
p1576
ag5
asV\uc544\uc774\uc9c4
p1577
(lp1578
S'185490'
p1579
aFnan
ag34
asV\ub3d9\uc591\uc5d0\uc2a4\ud14d
p1580
(lp1581
S'060380'
p1582
aVKOSDAQ:060380
p1583
ag5
asV\uc720\ube44\ucf00\uc5b4
p1584
(lp1585
S'032620'
p1586
aVKOSDAQ:032620
p1587
ag5
asV\ubb34\ub9bcP&P
p1588
(lp1589
S'009580'
p1590
aVKRX:009580
p1591
ag10
asV\uc5d4\uc5d0\uc774\uce58\uc2a4\ud3298\ud638
p1592
(lp1593
S'218410'
p1594
aVKOSDAQ:218410
p1595
ag5
asV\ub300\uc6c5\uc81c\uc57d
p1596
(lp1597
S'069620'
p1598
aVKRX:069620
p1599
ag10
asV\uc6b0\uc131\uc544\uc774\ube44
p1600
(lp1601
S'194610'
p1602
aVKOSDAQ:194610
p1603
ag5
asV\uc0ac\uc870\uc0b0\uc5c5
p1604
(lp1605
S'007160'
p1606
aVKRX:007160
p1607
ag10
asV\uacbd\ucc3d\uc0b0\uc5c5
p1608
(lp1609
S'024910'
p1610
aVKOSDAQ:024910
p1611
ag5
asV\ubcf4\ud574\uc591\uc870
p1612
(lp1613
S'000890'
p1614
aVKRX:000890
p1615
ag10
asV\ud55c\uc194\ud14c\ud06c\ub2c9\uc2a4
p1616
(lp1617
S'004710'
p1618
aVKRX:004710
p1619
ag10
asV\ub300\uc131\ud569\ub3d9\uc9c0\uc8fc
p1620
(lp1621
S'005620'
p1622
aVKRX:005620
p1623
ag10
asV\ud55c\uad6d\ucf5c\ub9c8\ud640\ub529\uc2a4
p1624
(lp1625
S'024720'
p1626
aVKRX:024720
p1627
ag10
asV\uc5d8\uc544\uc774\uc9c0\uc2a4\ud329 2\ud638
p1628
(lp1629
S'208140'
p1630
aVKOSDAQ:208140
p1631
ag5
asVCJ CGV
p1632
(lp1633
S'079160'
p1634
aVKRX:079160
p1635
ag10
asV\ud604\ub300\uc704\uc544
p1636
(lp1637
S'011210'
p1638
aVKRX:011210
p1639
ag10
asV\ud14c\ub77c\uc138\ubbf8\ucf58
p1640
(lp1641
S'123100'
p1642
aVKOSDAQ:123100
p1643
ag5
asV\uc2e4\ub9ac\ucf58\uc6cd\uc2a4
p1644
(lp1645
S'108320'
p1646
aVKOSDAQ:108320
p1647
ag5
asV\uc778\ucf58
p1648
(lp1649
S'083640'
p1650
aVKOSDAQ:083640
p1651
ag5
asV\uad50\ubcf45\ud638\uc2a4\ud329
p1652
(lp1653
S'223040'
p1654
aVKOSDAQ:223040
p1655
ag5
asV\uc720\uc5d4\uc824
p1656
(lp1657
S'072130'
p1658
aVKRX:072130
p1659
ag10
asV\ub125\uc2a4\ud2b8BT
p1660
(lp1661
S'065170'
p1662
aVKOSDAQ:065170
p1663
ag5
asV\uacbd\ub3d9\ub3c4\uc2dc\uac00\uc2a4
p1664
(lp1665
S'012320'
p1666
aVKRX:012320
p1667
ag10
asV\uc544\uc774\uc4f0\ub9ac\uc2dc\uc2a4\ud15c
p1668
(lp1669
S'214430'
p1670
aVKOSDAQ:214430
p1671
ag5
asV\ucf54\ub098\uc544\uc774
p1672
(lp1673
S'052400'
p1674
aVKOSDAQ:052400
p1675
ag5
asV\uc6b0\uc8fc\uc77c\ub809\ud2b8\ub85c
p1676
(lp1677
S'065680'
p1678
aVKOSDAQ:065680
p1679
ag5
asVLG\uc0dd\ud65c\uac74\uac15
p1680
(lp1681
S'051900'
p1682
aVKRX:051900
p1683
ag10
asV\uc6b0\ub178\uc564\ucef4\ud37c\ub2c8
p1684
(lp1685
S'114630'
p1686
aVKOSDAQ:114630
p1687
ag5
asVGS\ub9ac\ud14c\uc77c
p1688
(lp1689
S'007070'
p1690
aVKRX:007070
p1691
ag10
asV\ud478\ub978\uc800\ucd95\uc740\ud589
p1692
(lp1693
S'007330'
p1694
aVKOSDAQ:007330
p1695
ag5
asV\ub808\uc774\uc820
p1696
(lp1697
S'047440'
p1698
aVKOSDAQ:047440
p1699
ag5
asV\uc790\ud654\uc804\uc790
p1700
(lp1701
S'033240'
p1702
aVKRX:033240
p1703
ag10
asV\uc560\uac15\ub9ac\uba54\ud14d
p1704
(lp1705
S'022220'
p1706
aVKOSDAQ:022220
p1707
ag5
asV\uc528\ud050\ube0c
p1708
(lp1709
S'101240'
p1710
aVKOSDAQ:101240
p1711
ag5
asV\ubbf8\ub3d9\uc804\uc790\ud1b5\uc2e0
p1712
(lp1713
S'161570'
p1714
aVKOSDAQ:161570
p1715
ag5
asV\uc774\uc218\ud654\ud559
p1716
(lp1717
S'005950'
p1718
aVKRX:005950
p1719
ag10
asV\ucf54\ub9ac\uc548\ub9ac
p1720
(lp1721
S'003690'
p1722
aVKRX:003690
p1723
ag10
asV\uc544\uc138\uc544\ud14d
p1724
(lp1725
S'050860'
p1726
aVKOSDAQ:050860
p1727
ag5
asV\uc70c\ube44\uc2a4
p1728
(lp1729
S'008600'
p1730
aVKRX:008600
p1731
ag10
asV\uc640\uc774\uc194
p1732
(lp1733
S'122990'
p1734
aVKOSDAQ:122990
p1735
ag5
asV\uc528\uc5d0\uc2a4\uc708\ub4dc
p1736
(lp1737
S'112610'
p1738
aVKRX:112610
p1739
ag10
asV\uc0b0\uc131\uc568\uc5d4\uc5d0\uc2a4
p1740
(lp1741
S'016100'
p1742
aVKOSDAQ:016100
p1743
ag5
asVKB\uc190\ud574\ubcf4\ud5d8
p1744
(lp1745
S'002550'
p1746
aVKRX:002550
p1747
ag10
asV\ucf54\ub514\uc5d0\uc2a4
p1748
(lp1749
S'080530'
p1750
aVKOSDAQ:080530
p1751
ag5
asV\ud1b1\ud14d
p1752
(lp1753
S'108230'
p1754
aVKOSDAQ:108230
p1755
ag5
asV\ucf54\ub80c\ud14d
p1756
(lp1757
S'104540'
p1758
aVKOSDAQ:104540
p1759
ag5
asV\ucf00\uc774\ube44\uc81c4\ud638\uc2a4\ud329
p1760
(lp1761
S'205500'
p1762
aVKOSDAQ:205500
p1763
ag5
asV\uc5d0\uc2a4\uc5d4\ud14d
p1764
(lp1765
S'160600'
p1766
aVKOSDAQ:160600
p1767
ag5
asV\uc9c0\uc2a4\ub9c8\ud2b8\uae00\ub85c\ubc8c
p1768
(lp1769
S'114570'
p1770
aVKOSDAQ:114570
p1771
ag5
asV\uc544\ube44\ucf54\uc804\uc790
p1772
(lp1773
S'036010'
p1774
aVKOSDAQ:036010
p1775
ag5
asV\uc5d0\uc774\ube44\uc628
p1776
(lp1777
S'203400'
p1778
aFnan
ag34
asV\uc544\uac00\ubc29\ucef4\ud37c\ub2c8
p1779
(lp1780
S'013990'
p1781
aVKOSDAQ:013990
p1782
ag5
asV\uc704\ub178\ubc14
p1783
(lp1784
S'039790'
p1785
aVKOSDAQ:039790
p1786
ag5
asV\ub274\ud504\ub77c\uc774\ub4dc
p1787
(lp1788
S'900100'
p1789
aVKOSDAQ:900100
p1790
ag5
asV\uc624\ud508\ubca0\uc774\uc2a4
p1791
(lp1792
S'049480'
p1793
aVKOSDAQ:049480
p1794
ag5
asV\uc5d0\uc2a4\ud2f0\ud050\ube0c
p1795
(lp1796
S'052020'
p1797
aVKOSDAQ:052020
p1798
ag5
asV\uc640\uc774\uc5e0\uc528
p1799
(lp1800
S'155650'
p1801
aVKOSDAQ:155650
p1802
ag5
asV\uc6b0\uc2e0\uc2dc\uc2a4\ud15c
p1803
(lp1804
S'017370'
p1805
aVKRX:017370
p1806
ag10
asV\uc5e0\ucf00\uc774\ud2b8\ub80c\ub4dc
p1807
(lp1808
S'069640'
p1809
aVKRX:069640
p1810
ag10
asV\uc131\uc2e0\uc591\ud68c
p1811
(lp1812
S'004980'
p1813
aVKRX:004980
p1814
ag10
asV\ud55c\uad6d\uac00\uc2a4\uacf5\uc0ac
p1815
(lp1816
S'036460'
p1817
aVKRX:036460
p1818
ag10
asV\uc720\ud14c\ud06c
p1819
(lp1820
S'178780'
p1821
aVKOSDAQ:178780
p1822
ag5
asVSK\ub124\ud2b8\uc6cd\uc2a4
p1823
(lp1824
S'001740'
p1825
aVKRX:001740
p1826
ag10
asV\uc77c\uacbd\uc0b0\uc5c5\uac1c\ubc1c
p1827
(lp1828
S'078940'
p1829
aVKOSDAQ:078940
p1830
ag5
asV\uc774\ud14c\ud06c\uac74\uc124
p1831
(lp1832
S'016250'
p1833
aVKOSDAQ:016250
p1834
ag5
asV\uc6f9\uc2a4
p1835
(lp1836
S'196700'
p1837
aVKOSDAQ:196700
p1838
ag5
asV\uc6b0\ub9ac\uc774\ud2f0\uc544\uc774
p1839
(lp1840
S'082850'
p1841
aVKOSDAQ:082850
p1842
ag5
asV\ud765\uad6d\uc5d0\ud504\uc5d4\ube44
p1843
(lp1844
S'189980'
p1845
aVKOSDAQ:189980
p1846
ag5
asV\uc528\uc544\uc774\uc5d0\uc2a4
p1847
(lp1848
S'144630'
p1849
aFnan
ag34
asVJB\uae08\uc735\uc9c0\uc8fc
p1850
(lp1851
S'175330'
p1852
aVKRX:175330
p1853
ag10
asV\uc2e0\uc9c4\uc5d0\uc2a4\uc5e0
p1854
(lp1855
S'138070'
p1856
aVKOSDAQ:138070
p1857
ag5
asV\ub514\uc624
p1858
(lp1859
S'039840'
p1860
aVKOSDAQ:039840
p1861
ag5
asV\uc194\ud2b8\uc6cd\uc2a4
p1862
(lp1863
S'222520'
p1864
aFnan
ag34
asV\ud558\uc774\uc18c\ub2c9
p1865
(lp1866
S'106080'
p1867
aVKOSDAQ:106080
p1868
ag5
asV\uc5d8\ub514\ud2f0
p1869
(lp1870
S'096870'
p1871
aVKOSDAQ:096870
p1872
ag5
asV\ud6a8\uc131 ITX
p1873
(lp1874
S'094280'
p1875
aVKRX:094280
p1876
ag10
asV\uc544\uc774\ub514\uc2a4\ud640\ub529\uc2a4
p1877
(lp1878
S'054800'
p1879
aVKOSDAQ:054800
p1880
ag5
asV\ub300\ud55c\ubc29\uc9c1
p1881
(lp1882
S'001070'
p1883
aVKRX:001070
p1884
ag10
asV\ud55c\uc804KPS
p1885
(lp1886
S'051600'
p1887
aVKRX:051600
p1888
ag10
asV\uad11\uc804\uc790
p1889
(lp1890
S'017900'
p1891
aVKRX:017900
p1892
ag10
asVLS\uc0b0\uc804
p1893
(lp1894
S'010120'
p1895
aVKRX:010120
p1896
ag10
asV\uc624\uc2a4\ud15c\uc784\ud50c\ub780\ud2b8
p1897
(lp1898
S'048260'
p1899
aVKOSDAQ:048260
p1900
ag5
asV\uc6b0\uc6d0\uac1c\ubc1c
p1901
(lp1902
S'046940'
p1903
aVKOSDAQ:046940
p1904
ag5
asV\ucf54\uc6e8\uc774
p1905
(lp1906
S'021240'
p1907
aVKRX:021240
p1908
ag10
asV\uc5d1\uc138\uc2a4\ubc14\uc774\uc624
p1909
(lp1910
S'950130'
p1911
aVKOSDAQ:950130
p1912
ag5
asV\ub514\uc9c0\uc544\uc774
p1913
(lp1914
S'043360'
p1915
aVKOSDAQ:043360
p1916
ag5
asV\uc870\uc77c\uc54c\ubbf8\ub284
p1917
(lp1918
S'018470'
p1919
aVKRX:018470
p1920
ag10
asV\ud3ec\uc2dc\uc5d0\uc2a4
p1921
(lp1922
S'189690'
p1923
aVKOSDAQ:189690
p1924
ag5
asV\uc11c\uc6b8\uc804\uc790\ud1b5\uc2e0
p1925
(lp1926
S'027040'
p1927
aVKOSDAQ:027040
p1928
ag5
asV\ub300\uc601\ud3ec\uc7a5
p1929
(lp1930
S'014160'
p1931
aVKRX:014160
p1932
ag10
asV\ud30c\ud2f0\uac8c\uc784\uc988
p1933
(lp1934
S'194510'
p1935
aVKOSDAQ:194510
p1936
ag5
asV\uc384\ub2c8\ud2b8
p1937
(lp1938
S'037760'
p1939
aVKOSDAQ:037760
p1940
ag5
asV\ub354\uc874\ube44\uc988\uc628
p1941
(lp1942
S'012510'
p1943
aVKRX:012510
p1944
ag10
asVWISCOM
p1945
(lp1946
S'024070'
p1947
aVKRX:024070
p1948
ag10
asVTCC\ub3d9\uc591
p1949
(lp1950
S'002710'
p1951
aVKRX:002710
p1952
ag10
asV\ud765\uad6d
p1953
(lp1954
S'010240'
p1955
aVKOSDAQ:010240
p1956
ag5
asV\ud55c\uad6d\ud504\ub79c\uc9c0\uacf5\uc5c5
p1957
(lp1958
S'010100'
p1959
aVKRX:010100
p1960
ag10
asV\ub300\ud55c\uad11\ud1b5\uc2e0
p1961
(lp1962
S'010170'
p1963
aVKOSDAQ:010170
p1964
ag5
asV\ud604\ub300\uc5d8\ub9ac\ubca0\uc774\ud130
p1965
(lp1966
S'017800'
p1967
aVKRX:017800
p1968
ag10
asV\uc720\ub2c8\ud06c
p1969
(lp1970
S'011320'
p1971
aVKOSDAQ:011320
p1972
ag5
asV\ud2f0\uc6e8\uc774\ud640\ub529\uc2a4
p1973
(lp1974
S'004870'
p1975
aVKRX:004870
p1976
ag10
asV\uace0\uc601
p1977
(lp1978
S'098460'
p1979
aVKOSDAQ:098460
p1980
ag5
asV\uc5d0\uc774\ubaa8\uc158
p1981
(lp1982
S'031860'
p1983
aVKOSDAQ:031860
p1984
ag5
asV\ud305\ud06c\uc6e8\uc5b4
p1985
(lp1986
S'084730'
p1987
aVKOSDAQ:084730
p1988
ag5
asV\ub3d9\ubd80
p1989
(lp1990
S'012030'
p1991
aVKRX:012030
p1992
ag10
asV\ud558\uc774\ud2b8\uc9c4\ub85c
p1993
(lp1994
S'000080'
p1995
aVKRX:000080
p1996
ag10
asV\uc77c\uc591\uc57d\ud488
p1997
(lp1998
S'007570'
p1999
aVKRX:007570
p2000
ag10
asV\ud55c\uc9c4\ud574\uc6b4
p2001
(lp2002
S'117930'
p2003
aVKRX:117930
p2004
ag10
asV\uc6b0\uc218AMS
p2005
(lp2006
S'066590'
p2007
aVKOSDAQ:066590
p2008
ag5
asV\uc0bc\ubcf8\uc815\ubc00\uc804\uc790
p2009
(lp2010
S'111870'
p2011
aVKOSDAQ:111870
p2012
ag5
asVSM C&C
p2013
(lp2014
S'048550'
p2015
aVKOSDAQ:048550
p2016
ag5
asVDSR
p2017
(lp2018
S'155660'
p2019
aVKRX:155660
p2020
ag10
asV\ub124\uc624\ud2f0\uc2a4
p2021
(lp2022
S'085910'
p2023
aVKOSDAQ:085910
p2024
ag5
asV\ud53d\uc140\ud50c\ub7ec\uc2a4
p2025
(lp2026
S'087600'
p2027
aVKOSDAQ:087600
p2028
ag5
asV\uc11c\ubd80T&D
p2029
(lp2030
S'006730'
p2031
aVKOSDAQ:006730
p2032
ag5
asV\ud55c\uc2e0\uae30\uacc4\uacf5\uc5c5
p2033
(lp2034
S'011700'
p2035
aVKRX:011700
p2036
ag10
asV\uc2e0\uc77c\uc81c\uc57d
p2037
(lp2038
S'012790'
p2039
aVKOSDAQ:012790
p2040
ag5
asV\uacbd\uc778\uc804\uc790
p2041
(lp2042
S'009140'
p2043
aVKRX:009140
p2044
ag10
asV\uc138\ud558
p2045
(lp2046
S'027970'
p2047
aVKRX:027970
p2048
ag10
asV\ub3d9\uc131\ucf54\ud37c\ub808\uc774\uc158
p2049
(lp2050
S'102260'
p2051
aVKRX:102260
p2052
ag10
asV\ud0a4\uc774\uc2a4\ud2b8
p2053
(lp2054
S'054780'
p2055
aVKOSDAQ:054780
p2056
ag5
asV\ud55c\uc77c\ub124\ud2b8\uc6cd\uc2a4
p2057
(lp2058
S'046110'
p2059
aVKOSDAQ:046110
p2060
ag5
asV\uc81c\uc774\uc528\ucf00\ubbf8\uce7c
p2061
(lp2062
S'137950'
p2063
aVKOSDAQ:137950
p2064
ag5
asV\ud604\ub300\ubaa8\ube44\uc2a4
p2065
(lp2066
S'012330'
p2067
aVKRX:012330
p2068
ag10
asV\ub179\uc2ed\uc790\uc140
p2069
(lp2070
S'031390'
p2071
aVKOSDAQ:031390
p2072
ag5
asVKISCO\ud640\ub529\uc2a4
p2073
(lp2074
S'001940'
p2075
aVKRX:001940
p2076
ag10
asV\ub3d9\ubd81\uc54414\ud638\uc120\ubc15\ud22c\uc790
p2077
(lp2078
S'083390'
p2079
aVKRX:083390
p2080
ag10
asVG\u2161R
p2081
(lp2082
S'035000'
p2083
aVKRX:035000
p2084
ag10
asV\uc624\uc0c1\uc790\uc774\uc5d8
p2085
(lp2086
S'053980'
p2087
aVKOSDAQ:053980
p2088
ag5
asV\uc720\uc9c4\uc5d0\uc774\uc528\ud53c\uc528\uc2a4\ud3292\ud638
p2089
(lp2090
S'215090'
p2091
aVKOSDAQ:215090
p2092
ag5
asV\ud14c\ub77c\uc148
p2093
(lp2094
S'182690'
p2095
aVKOSDAQ:182690
p2096
ag5
asV\uc774\ud478\ub978
p2097
(lp2098
S'185280'
p2099
aFnan
ag34
asV\uc5d0\uc2a4\ucf00\uc774\ub514\uc564\ub514
p2100
(lp2101
S'210980'
p2102
aVKRX:210980
p2103
ag10
asV\ub300\ucc3d\uc194\ub8e8\uc158
p2104
(lp2105
S'096350'
p2106
aVKOSDAQ:096350
p2107
ag5
asV\uc0bc\uc544\uc54c\ubbf8\ub284
p2108
(lp2109
S'006110'
p2110
aVKRX:006110
p2111
ag10
asV\ucc38\uc88b\uc740\ub808\uc838
p2112
(lp2113
S'094850'
p2114
aVKOSDAQ:094850
p2115
ag5
asV\ud55c\uad6d\uc804\uc790\ud640\ub529\uc2a4
p2116
(lp2117
S'006200'
p2118
aVKRX:006200
p2119
ag10
asV\uba54\ub514\ud1a1\uc2a4
p2120
(lp2121
S'086900'
p2122
aVKOSDAQ:086900
p2123
ag5
asV\ub124\uc624\uc704\uc988\uc778\ud130\ub137
p2124
(lp2125
S'104200'
p2126
aVKOSDAQ:104200
p2127
ag5
asV\ud55c\uad6d\uc54c\ucf5c
p2128
(lp2129
S'017890'
p2130
aVKOSDAQ:017890
p2131
ag5
asV\ud55c\uc62c\ubc14\uc774\uc624\ud30c\ub9c8
p2132
(lp2133
S'009420'
p2134
aVKRX:009420
p2135
ag10
asV\uad6d\uc81c\uc57d\ud488\uacf5\uc5c5
p2136
(lp2137
S'002720'
p2138
aVKRX:002720
p2139
ag10
asV\ud1a0\ud544\ub4dc
p2140
(lp2141
S'057880'
p2142
aVKOSDAQ:057880
p2143
ag5
asVS-Oil
p2144
(lp2145
S'010950'
p2146
aVKRX:010950
p2147
ag10
asV\uae30\uc2e0\uc815\uae30
p2148
(lp2149
S'092440'
p2150
aVKRX:092440
p2151
ag10
asV\uc728\ucd0c\ud654\ud559
p2152
(lp2153
S'008730'
p2154
aVKRX:008730
p2155
ag10
asV\uc544\uc774\uc6d0\uc2a4
p2156
(lp2157
S'114810'
p2158
aVKOSDAQ:114810
p2159
ag5
asV\uc81c\ub8e1\uc0b0\uc5c5
p2160
(lp2161
S'147830'
p2162
aVKOSDAQ:147830
p2163
ag5
asV\uc601\uc6d0\ubb34\uc5ed
p2164
(lp2165
S'111770'
p2166
aVKRX:111770
p2167
ag10
asV\uad6d\uc601\uc9c0\uc564\uc5e0
p2168
(lp2169
S'006050'
p2170
aVKOSDAQ:006050
p2171
ag5
asV\uc6f0\ud06c\ub860
p2172
(lp2173
S'065950'
p2174
aVKOSDAQ:065950
p2175
ag5
asV\ube44\uce20\ub85c\ud14c\ud06c
p2176
(lp2177
S'042370'
p2178
aVKOSDAQ:042370
p2179
ag5
asV\uc5d0\ucf54\ud504\ub85c
p2180
(lp2181
S'086520'
p2182
aVKOSDAQ:086520
p2183
ag5
asV\ucf54\ub9ac\uc54401\ud638
p2184
(lp2185
S'090970'
p2186
aVKRX:090970
p2187
ag10
asV\uc0bc\uc9c4\uc5d8\uc564\ub514
p2188
(lp2189
S'054090'
p2190
aVKOSDAQ:054090
p2191
ag5
asV\uc2e0\uc131\ub378\ud0c0\ud14c\ud06c
p2192
(lp2193
S'065350'
p2194
aVKOSDAQ:065350
p2195
ag5
asV\ub300\uc6b0\uc99d\uad8c
p2196
(lp2197
S'006800'
p2198
aVKRX:006800
p2199
ag10
asV\uc778\ud504\ub77c\uc6e8\uc5b4
p2200
(lp2201
S'041020'
p2202
aVKOSDAQ:041020
p2203
ag5
asV\uc218\uc131
p2204
(lp2205
S'084180'
p2206
aVKOSDAQ:084180
p2207
ag5
asV\ud55c\uc138\uc608\uc2a424\ud640\ub529\uc2a4
p2208
(lp2209
S'016450'
p2210
aVKRX:016450
p2211
ag10
asV\uc194\ub8e8\uc5d0\ud0c0
p2212
(lp2213
S'154040'
p2214
aVKOSDAQ:154040
p2215
ag5
asVYG PLUS
p2216
(lp2217
S'037270'
p2218
aVKRX:037270
p2219
ag10
asV\uc77c\uc2e0\ubc14\uc774\uc624
p2220
(lp2221
S'068330'
p2222
aVKOSDAQ:068330
p2223
ag5
asV\ub7a9\uc9c0\ub178\ubbf9\uc2a4
p2224
(lp2225
S'084650'
p2226
aVKOSDAQ:084650
p2227
ag5
asV\uc720\uc720\uc81c\uc57d
p2228
(lp2229
S'000220'
p2230
aVKRX:000220
p2231
ag10
asV\uc544\uc138\uc544\uc2dc\uba58\ud2b8
p2232
(lp2233
S'183190'
p2234
aVKRX:183190
p2235
ag10
asV\uc194\ub77c\uc2dc\uc544
p2236
(lp2237
S'070300'
p2238
aVKOSDAQ:070300
p2239
ag5
asV\uc11c\uc6d0\uc778\ud14d
p2240
(lp2241
S'093920'
p2242
aVKOSDAQ:093920
p2243
ag5
asV\uc544\uc774\uc5d0\uc774
p2244
(lp2245
S'038880'
p2246
aVKOSDAQ:038880
p2247
ag5
asV\uc1fc\ubc15\uc2a4
p2248
(lp2249
S'086980'
p2250
aVKOSDAQ:086980
p2251
ag5
asV\ub0a8\ud654\ud1a0\uac74
p2252
(lp2253
S'091590'
p2254
aVKOSDAQ:091590
p2255
ag5
asV\uc5d0\uc2a4\uc5e0
p2256
(lp2257
S'041510'
p2258
aVKOSDAQ:041510
p2259
ag5
asV\ud55c\uad6d\uce74\ubcf8
p2260
(lp2261
S'017960'
p2262
aVKRX:017960
p2263
ag10
asV\uc5d0\uc2a4\uc5d8
p2264
(lp2265
S'005850'
p2266
aVKRX:005850
p2267
ag10
asV\uc0bc\uac15\uc5e0\uc564\ud2f0
p2268
(lp2269
S'100090'
p2270
aVKOSDAQ:100090
p2271
ag5
asV\uae08\ud638\uc0b0\uc5c5
p2272
(lp2273
S'002990'
p2274
aVKRX:002990
p2275
ag10
asV\uc5e0\ucf00\uc774\uc804\uc790
p2276
(lp2277
S'033160'
p2278
aVKOSDAQ:033160
p2279
ag5
asV\ub300\uc0c1\ud640\ub529\uc2a4
p2280
(lp2281
S'084690'
p2282
aVKRX:084690
p2283
ag10
asV\ubaa8\ud1a0\ub2c9
p2284
(lp2285
S'009680'
p2286
aVKRX:009680
p2287
ag10
asV\ubd80\uc0b0\uc0b0\uc5c5
p2288
(lp2289
S'011390'
p2290
aVKRX:011390
p2291
ag10
asVSK\ud154\ub808\ucf64
p2292
(lp2293
S'017670'
p2294
aVKRX:017670
p2295
ag10
asV\uc6d0\ub9bc
p2296
(lp2297
S'005820'
p2298
aVKRX:005820
p2299
ag10
asV\ud53c\uc5d0\uc2a4\ud14d
p2300
(lp2301
S'002230'
p2302
aVKOSDAQ:002230
p2303
ag5
asV\ud578\ub514\uc18c\ud504\ud2b8
p2304
(lp2305
S'220180'
p2306
aFnan
ag34
asV\ub514\ucf00\uc774\ub514\uc564\uc544\uc774
p2307
(lp2308
S'033310'
p2309
aVKOSDAQ:033310
p2310
ag5
asVSTX
p2311
(lp2312
S'011810'
p2313
aVKRX:011810
p2314
ag10
asV\uc9c0\uc5d4\ucf54
p2315
(lp2316
S'065060'
p2317
aVKOSDAQ:065060
p2318
ag5
asV\uc544\uc774\uc988\ube44\uc804
p2319
(lp2320
S'031310'
p2321
aVKOSDAQ:031310
p2322
ag5
asV\uac10\ub9c8\ub204
p2323
(lp2324
S'192410'
p2325
aVKOSDAQ:192410
p2326
ag5
asV\ud558\uc774\ud14d\ud31c
p2327
(lp2328
S'106190'
p2329
aVKOSDAQ:106190
p2330
ag5
asV\uc778\ud53c\ub2c8\ud2b8\ud5ec\uc2a4\ucf00\uc5b4
p2331
(lp2332
S'071200'
p2333
aVKOSDAQ:071200
p2334
ag5
asV\ud558\ub098\uba38\uc2a4\ud2b82\ud638\uc2a4\ud329
p2335
(lp2336
S'208370'
p2337
aVKOSDAQ:208370
p2338
ag5
asV\uc2e0\uc1a1\ud640\ub529\uc2a4
p2339
(lp2340
S'006880'
p2341
aVKRX:006880
p2342
ag10
asV\uc0bc\ud654\ud398\uc778\ud2b8\uacf5\uc5c5
p2343
(lp2344
S'000390'
p2345
aVKRX:000390
p2346
ag10
asV\ub300\ud55c\uc81c\uac15
p2347
(lp2348
S'084010'
p2349
aVKRX:084010
p2350
ag10
asV\uc77c\uc57c
p2351
(lp2352
S'058450'
p2353
aVKOSDAQ:058450
p2354
ag5
asVNI\uc2a4\ud2f8
p2355
(lp2356
S'008260'
p2357
aVKRX:008260
p2358
ag10
asV\uc6e8\uc774\ud3ec\ud2b8
p2359
(lp2360
S'900130'
p2361
aVKOSDAQ:900130
p2362
ag5
asVPN\ud48d\ub144
p2363
(lp2364
S'024940'
p2365
aVKOSDAQ:024940
p2366
ag5
asVNH\ud22c\uc790\uc99d\uad8c
p2367
(lp2368
S'005940'
p2369
aVKRX:005940
p2370
ag10
asV\uc5d0\ub108\ud1a0\ud06c
p2371
(lp2372
S'019990'
p2373
aVKOSDAQ:019990
p2374
ag5
asV\uc0bc\uc601\uc5e0\ud14d
p2375
(lp2376
S'054540'
p2377
aVKOSDAQ:054540
p2378
ag5
asV\uc635\ud2b8\ub860\ud14d
p2379
(lp2380
S'082210'
p2381
aVKOSDAQ:082210
p2382
ag5
asV\uc870\ud765
p2383
(lp2384
S'002600'
p2385
aVKRX:002600
p2386
ag10
asV\uc2e0\uc138\uacc4\uc778\ud130\ub0b4\uc154\ub0a0
p2387
(lp2388
S'031430'
p2389
aVKRX:031430
p2390
ag10
asV\ucf54\uc14b
p2391
(lp2392
S'189350'
p2393
aFnan
ag34
asV\uc6f0\uba54\uc774\ub4dc\uc608\ub2f9
p2394
(lp2395
S'036260'
p2396
aVKOSDAQ:036260
p2397
ag5
asVTPC
p2398
(lp2399
S'048770'
p2400
aVKOSDAQ:048770
p2401
ag5
asV\uc6b0\ub9ac\uc0b0\uc5c5\ud640\ub529\uc2a4
p2402
(lp2403
S'072470'
p2404
aVKOSDAQ:072470
p2405
ag5
asVHRS
p2406
(lp2407
S'036640'
p2408
aVKOSDAQ:036640
p2409
ag5
asV\ucf5c\ub9c8\ube44\uc564\uc5d0\uc774\uce58
p2410
(lp2411
S'200130'
p2412
aVKOSDAQ:200130
p2413
ag5
asV\ub3d9\uc11c
p2414
(lp2415
S'026960'
p2416
aVKOSDAQ:026960
p2417
ag5
asV\ucf54\ub9ac\uc544\uc368\ud0a4\ud2b8
p2418
(lp2419
S'007810'
p2420
aVKRX:007810
p2421
ag10
asV\uc885\uadfc\ub2f9\ud640\ub529\uc2a4
p2422
(lp2423
S'001630'
p2424
aVKRX:001630
p2425
ag10
asV\uc561\ud2b8
p2426
(lp2427
S'131400'
p2428
aVKOSDAQ:131400
p2429
ag5
asV\ud30c\uc778\ud14d
p2430
(lp2431
S'131760'
p2432
aVKOSDAQ:131760
p2433
ag5
asV\uc9c0\uc5b4\uc18c\ud504\ud2b8
p2434
(lp2435
S'051160'
p2436
aVKOSDAQ:051160
p2437
ag5
asV\ub098\uc774\ucf54
p2438
(lp2439
S'192240'
p2440
aFnan
ag34
asV\uc54c\ud1a4\uc2a4\ud3ec\uce20
p2441
(lp2442
S'123750'
p2443
aVKOSDAQ:123750
p2444
ag5
asV\uc2e0\ud654\uc2e4\uc5c5
p2445
(lp2446
S'001770'
p2447
aVKRX:001770
p2448
ag10
asV\uc624\ub974\ube44\ud14d
p2449
(lp2450
S'046120'
p2451
aVKOSDAQ:046120
p2452
ag5
asV\ub3d9\uc6d0\uc218\uc0b0
p2453
(lp2454
S'030720'
p2455
aVKRX:030720
p2456
ag10
asV\ud604\ub300\ub4dc\ub9bc3\ud638\uc2a4\ud329
p2457
(lp2458
S'221950'
p2459
aVKOSDAQ:221950
p2460
ag5
asV\uc548\ub7a9
p2461
(lp2462
S'053800'
p2463
aVKOSDAQ:053800
p2464
ag5
asV\ud234\uc820
p2465
(lp2466
S'199800'
p2467
aFnan
ag34
asV\uc720\ub2c8\uc628\ucee4\ubba4\ub2c8\ud2f0
p2468
(lp2469
S'203450'
p2470
aFnan
ag34
asV\uc5d1\uc148
p2471
(lp2472
S'205100'
p2473
aVKOSDAQ:205100
p2474
ag5
asV\uc2a4\ud2f8\uc564\ub9ac\uc18c\uc2dc\uc988
p2475
(lp2476
S'032860'
p2477
aVKOSDAQ:032860
p2478
ag5
asV\ud30c\uc778\ub514\uc9c0\ud138
p2479
(lp2480
S'038950'
p2481
aVKOSDAQ:038950
p2482
ag5
asV\ud558\uc774\uace8\ub4dc3\ud638
p2483
(lp2484
S'153360'
p2485
aVKRX:153360
p2486
ag10
asV\ub300\ub3d9\uae08\uc18d
p2487
(lp2488
S'020400'
p2489
aVKOSDAQ:020400
p2490
ag5
asV\uc778\uc120\uc774\uc5d4\ud2f0
p2491
(lp2492
S'060150'
p2493
aVKOSDAQ:060150
p2494
ag5
asV\uc0bc\uc591\ud1b5\uc0c1
p2495
(lp2496
S'002170'
p2497
aVKRX:002170
p2498
ag10
asV\ud14d\uc140\ub124\ud2b8\ucef4
p2499
(lp2500
S'038540'
p2501
aVKOSDAQ:038540
p2502
ag5
asV\uc5e0\uc5d0\uc2a4\uc624\ud1a0\ud14d
p2503
(lp2504
S'123040'
p2505
aVKOSDAQ:123040
p2506
ag5
asVNAVER
p2507
(lp2508
S'035420'
p2509
aVKRX:035420
p2510
ag10
asV\ub0a8\uc120\uc54c\ubbf8\ub284
p2511
(lp2512
S'008350'
p2513
aVKRX:008350
p2514
ag10
asV\ucf00\uc774\ube44\uc81c3\ud638\uc2a4\ud329
p2515
(lp2516
S'203690'
p2517
aVKOSDAQ:203690
p2518
ag5
asV\uc608\uc2a424
p2519
(lp2520
S'053280'
p2521
aVKOSDAQ:053280
p2522
ag5
asV\ubcf4\ub77d
p2523
(lp2524
S'002760'
p2525
aVKRX:002760
p2526
ag10
asV\ub300\ud638\ud53c\uc564\uc528
p2527
(lp2528
S'021040'
p2529
aVKOSDAQ:021040
p2530
ag5
asV\ub77c\uc628\uc2dc\ud050\uc5b4
p2531
(lp2532
S'042510'
p2533
aVKOSDAQ:042510
p2534
ag5
asVKPX\ucf00\ubbf8\uce7c
p2535
(lp2536
S'025000'
p2537
aVKRX:025000
p2538
ag10
asV\uc5d0\uc2a4\uc6d0
p2539
(lp2540
S'012750'
p2541
aVKRX:012750
p2542
ag10
asV\uc120\ucc3d\uc0b0\uc5c5
p2543
(lp2544
S'002820'
p2545
aVKRX:002820
p2546
ag10
asV\ud55c\uad6d\uc720\ub9ac\uacf5\uc5c5
p2547
(lp2548
S'002000'
p2549
aVKRX:002000
p2550
ag10
asV\ucf00\uc774\uc5e0\ub354\ube14\uc720
p2551
(lp2552
S'032500'
p2553
aVKOSDAQ:032500
p2554
ag5
asV\uc2e0\uc6d0\uc885\ud569\uac1c\ubc1c
p2555
(lp2556
S'017000'
p2557
aVKOSDAQ:017000
p2558
ag5
asV\ub300\ub959\uc81c\uad00
p2559
(lp2560
S'004780'
p2561
aVKOSDAQ:004780
p2562
ag5
asV\uc54c\ubcf4\uc820\ucf54\ub9ac\uc544
p2563
(lp2564
S'002250'
p2565
aVKRX:002250
p2566
ag10
asV\ub3d9\uc591\uace0\uc18d
p2567
(lp2568
S'084670'
p2569
aVKRX:084670
p2570
ag10
asV\uc8fc\uc131\uc5d4\uc9c0\ub2c8\uc5b4\ub9c1
p2571
(lp2572
S'036930'
p2573
aVKOSDAQ:036930
p2574
ag5
asV\uc544\uc774\uc5e0
p2575
(lp2576
S'101390'
p2577
aVKOSDAQ:101390
p2578
ag5
asVMDS\ud14c\ud06c
p2579
(lp2580
S'086960'
p2581
aVKOSDAQ:086960
p2582
ag5
asV\uc5d0\uc774\ud2f0\ud14c\ud06c\ub180\ub7ec\uc9c0
p2583
(lp2584
S'073570'
p2585
aVKOSDAQ:073570
p2586
ag5
asVGS\uac74\uc124
p2587
(lp2588
S'006360'
p2589
aVKRX:006360
p2590
ag10
asV\ud55c\uc77c\ucca0\uac15
p2591
(lp2592
S'002220'
p2593
aVKRX:002220
p2594
ag10
asV\uc0bc\uc591\uc2dd\ud488
p2595
(lp2596
S'003230'
p2597
aVKRX:003230
p2598
ag10
asV\ub300\ub3d9
p2599
(lp2600
S'012860'
p2601
aVKOSDAQ:012860
p2602
ag5
asV\uc0c1\ubcf4
p2603
(lp2604
S'027580'
p2605
aVKOSDAQ:027580
p2606
ag5
asV\uc870\uc120\uc120\uc7ac
p2607
(lp2608
S'120030'
p2609
aVKRX:120030
p2610
ag10
asV\ud76c\ub9bc
p2611
(lp2612
S'037440'
p2613
aVKOSDAQ:037440
p2614
ag5
asV\ub86f\ub370\uc190\ud574\ubcf4\ud5d8
p2615
(lp2616
S'000400'
p2617
aVKRX:000400
p2618
ag10
asV\ud734\ucf10\uc2a4
p2619
(lp2620
S'069260'
p2621
aVKRX:069260
p2622
ag10
asV\uc561\ud1a0\uc988\uc18c\ud504\ud2b8
p2623
(lp2624
S'052790'
p2625
aVKOSDAQ:052790
p2626
ag5
asV\ub300\ub9bc\ud1b5\uc0c1
p2627
(lp2628
S'006570'
p2629
aVKRX:006570
p2630
ag10
asV\uc77c\uc9c4\uc804\uae30
p2631
(lp2632
S'103590'
p2633
aVKRX:103590
p2634
ag10
asV\uc544\uc774\uc528\ub514
p2635
(lp2636
S'040910'
p2637
aVKOSDAQ:040910
p2638
ag5
asV\uc0bc\ud654\ub124\ud2b8\uc6cd\uc2a4
p2639
(lp2640
S'046390'
p2641
aVKOSDAQ:046390
p2642
ag5
asV\uc54c\ud30c\uce69\uc2a4
p2643
(lp2644
S'117670'
p2645
aVKOSDAQ:117670
p2646
ag5
asV\ud30c\ubc84\ub098\uc778
p2647
(lp2648
S'177830'
p2649
aVKOSDAQ:177830
p2650
ag5
asVISC
p2651
(lp2652
S'095340'
p2653
aVKOSDAQ:095340
p2654
ag5
asV\uc640\uc774\uc9c0\uc5d4\ud130\ud14c\uc778\uba3c\ud2b8
p2655
(lp2656
S'122870'
p2657
aVKOSDAQ:122870
p2658
ag5
asV\ubc31\uc0b0OPC
p2659
(lp2660
S'066110'
p2661
aVKOSDAQ:066110
p2662
ag5
asV\uc2dc\uacf5\ud14c\ud06c
p2663
(lp2664
S'020710'
p2665
aVKOSDAQ:020710
p2666
ag5
asV\ud2b9\uc218\uac74\uc124
p2667
(lp2668
S'026150'
p2669
aVKOSDAQ:026150
p2670
ag5
asV\uad6d\ub3d9
p2671
(lp2672
S'005320'
p2673
aVKRX:005320
p2674
ag10
asV\ub3d9\uc131\uc81c\uc57d
p2675
(lp2676
S'002210'
p2677
aVKRX:002210
p2678
ag10
asV\uc6b0\ub9ac\uc774\uc564\uc5d8
p2679
(lp2680
S'153490'
p2681
aVKOSDAQ:153490
p2682
ag5
asV\uc11c\uc6b8\ubc18\ub3c4\uccb4
p2683
(lp2684
S'046890'
p2685
aVKOSDAQ:046890
p2686
ag5
asV\ub300\ucc3d\uc2a4\ud2f8
p2687
(lp2688
S'140520'
p2689
aVKOSDAQ:140520
p2690
ag5
asV\ud558\uc774\ud2b8\ub860\uc528\uc2a4\ud15c\uc988
p2691
(lp2692
S'019490'
p2693
aVKRX:019490
p2694
ag10
asV\uc6b0\ub9ac\uc0b0\uc5c5
p2695
(lp2696
S'215360'
p2697
aVKOSDAQ:215360
p2698
ag5
asV\ub300\uc720\uc2e0\uc18c\uc7ac
p2699
(lp2700
S'000300'
p2701
aVKRX:000300
p2702
ag10
asV\ub86f\ub370\ud558\uc774\ub9c8\ud2b8
p2703
(lp2704
S'071840'
p2705
aVKRX:071840
p2706
ag10
asV\uc774\ud050\uc2a4\uc564\uc790\ub8e8
p2707
(lp2708
S'058530'
p2709
aVKOSDAQ:058530
p2710
ag5
asV\ub3d9\uad6d\uc81c\uac15
p2711
(lp2712
S'001230'
p2713
aVKRX:001230
p2714
ag10
asV\uc6b0\ub9bc\uae30\uacc4
p2715
(lp2716
S'101170'
p2717
aVKOSDAQ:101170
p2718
ag5
asV\ub3d9\ubd80\ud654\uc7ac\ud574\uc0c1\ubcf4\ud5d8
p2719
(lp2720
S'005830'
p2721
aVKRX:005830
p2722
ag10
asV\ud734\ub9e5\uc2a4\ud640\ub529\uc2a4
p2723
(lp2724
S'028080'
p2725
aVKOSDAQ:028080
p2726
ag5
asV\ub86f\ub370\uce60\uc131\uc74c\ub8cc
p2727
(lp2728
S'005300'
p2729
aVKRX:005300
p2730
ag10
asV\ud3ec\uba54\ud0c8
p2731
(lp2732
S'119500'
p2733
aVKOSDAQ:119500
p2734
ag5
asV\uc0bc\uc131\uc99d\uad8c
p2735
(lp2736
S'016360'
p2737
aVKRX:016360
p2738
ag10
asV\uc0bc\uc591\uc0ac
p2739
(lp2740
S'145990'
p2741
aVKRX:145990
p2742
ag10
asV\uc54c\uc5d0\ud504\ud14d
p2743
(lp2744
S'061040'
p2745
aVKOSDAQ:061040
p2746
ag5
asV\uc5e0\uc9c0\uba54\ub4dc
p2747
(lp2748
S'180400'
p2749
aFnan
ag34
asV\ubc14\uc774\ub125\uc2a4
p2750
(lp2751
S'053030'
p2752
aVKOSDAQ:053030
p2753
ag5
asV\uc138\uc544\uc81c\uac15
p2754
(lp2755
S'003030'
p2756
aVKRX:003030
p2757
ag10
asV\uc2e0\uc601\uc640\ucf54\ub8e8
p2758
(lp2759
S'005800'
p2760
aVKRX:005800
p2761
ag10
asV\ud22c\ube44\uc18c\ud504\ud2b8
p2762
(lp2763
S'079970'
p2764
aVKOSDAQ:079970
p2765
ag5
asV\ub370\uce74\uc2dc\uc2a4\ud15c
p2766
(lp2767
S'183410'
p2768
aFnan
ag34
asV\uc6b0\uc9c4\ube44\uc564\uc9c0
p2769
(lp2770
S'018620'
p2771
aVKOSDAQ:018620
p2772
ag5
asV\ud55c\uad6d\ud329\ud0a4\uc9c0
p2773
(lp2774
S'037230'
p2775
aVKOSDAQ:037230
p2776
ag5
asV\uc288\ud504\ub9ac\ub9c8
p2777
(lp2778
S'094840'
p2779
aVKOSDAQ:094840
p2780
ag5
asV\uc9c4\uc591\ud640\ub529\uc2a4
p2781
(lp2782
S'100250'
p2783
aVKRX:100250
p2784
ag10
asV\ud53c\uc528\ub514\ub809\ud2b8
p2785
(lp2786
S'051380'
p2787
aVKOSDAQ:051380
p2788
ag5
asV\uc131\uc9c0\uac74\uc124
p2789
(lp2790
S'005980'
p2791
aVKRX:005980
p2792
ag10
asV\uc54c\uc11c\ud3ec\ud2b8
p2793
(lp2794
S'131370'
p2795
aVKOSDAQ:131370
p2796
ag5
asV\uc720\ub2c8\ud018\uc2a4\ud2b8
p2797
(lp2798
S'077500'
p2799
aVKRX:077500
p2800
ag10
asV\uc778\ud3ec\ubc14\uc778
p2801
(lp2802
S'115310'
p2803
aVKOSDAQ:115310
p2804
ag5
asV\uc0bc\uc131\uc0dd\uba85
p2805
(lp2806
S'032830'
p2807
aVKRX:032830
p2808
ag10
asV\uc9c4\ubc14\uc774\uc624\ud14d
p2809
(lp2810
S'086060'
p2811
aVKOSDAQ:086060
p2812
ag5
asV\ud734\uc628\uc2a4
p2813
(lp2814
S'084110'
p2815
aVKOSDAQ:084110
p2816
ag5
asV\uc18c\ub9ac\ubc14\ub2e4
p2817
(lp2818
S'053110'
p2819
aVKOSDAQ:053110
p2820
ag5
asV\uacbd\ub0a8\uc5d0\ub108\uc9c0
p2821
(lp2822
S'008020'
p2823
aVKRX:008020
p2824
ag10
asV\ud55c\ub77c\ud640\ub529\uc2a4
p2825
(lp2826
S'060980'
p2827
aVKRX:060980
p2828
ag10
asV\ub124\uc624\ub514\uc548\ud14c\ud06c\ub180\ub85c\uc9c0
p2829
(lp2830
S'072770'
p2831
aVKOSDAQ:072770
p2832
ag5
asV\uc778\ud654\uc815\uacf5
p2833
(lp2834
S'101930'
p2835
aVKOSDAQ:101930
p2836
ag5
asV\uc720\uc548\ud0c0\uc99d\uad8c
p2837
(lp2838
S'003470'
p2839
aVKRX:003470
p2840
ag10
asV\ub178\ub8e8\ud640\ub529\uc2a4
p2841
(lp2842
S'000320'
p2843
aVKRX:000320
p2844
ag10
asV\ubaa8\ub098\ubbf8
p2845
(lp2846
S'005360'
p2847
aVKRX:005360
p2848
ag10
asV\uae08\ud654\ud53c\uc5d0\uc2a4\uc2dc
p2849
(lp2850
S'036190'
p2851
aVKOSDAQ:036190
p2852
ag5
asV\ub514\uc528\uc5e0
p2853
(lp2854
S'024090'
p2855
aVKRX:024090
p2856
ag10
asV\uad6c\ub984\ucef4\ud37c\ub2c8
p2857
(lp2858
S'223220'
p2859
aFnan
ag34
asV\uc5d0\uc2a4\uc5d0\uc774\ud2f0\uc774\uc5d4\uc9c0
p2860
(lp2861
S'158300'
p2862
aFnan
ag34
asV\ub300\ub3d9\uc2a4\ud2f8
p2863
(lp2864
S'048470'
p2865
aVKOSDAQ:048470
p2866
ag5
asV\uc544\uc774\uc5d0\uc774\uce58\ud050
p2867
(lp2868
S'003560'
p2869
aVKRX:003560
p2870
ag10
asV\uc778\ud3ec\ubc45\ud06c
p2871
(lp2872
S'039290'
p2873
aVKOSDAQ:039290
p2874
ag5
asV\ub300\uc131\uc5d0\ub108\uc9c0
p2875
(lp2876
S'117580'
p2877
aVKRX:117580
p2878
ag10
asV\ud31c\uc2a4\ud1a0\ub9ac
p2879
(lp2880
S'027710'
p2881
aVKOSDAQ:027710
p2882
ag5
asV\ud050\ube0c\uc5d4\ud130
p2883
(lp2884
S'182360'
p2885
aVKOSDAQ:182360
p2886
ag5
asV\ubcf4\ub839\uba54\ub514\uc559\uc2a4
p2887
(lp2888
S'014100'
p2889
aVKOSDAQ:014100
p2890
ag5
asV\ub300\ub3d9\uae30\uc5b4
p2891
(lp2892
S'008830'
p2893
aVKOSDAQ:008830
p2894
ag5
asV\uc11c\uc9c4\uc624\ud1a0\ubaa8\ud2f0\ube0c
p2895
(lp2896
S'122690'
p2897
aVKOSDAQ:122690
p2898
ag5
asV\uc544\ub9ac\uc628
p2899
(lp2900
S'058220'
p2901
aVKOSDAQ:058220
p2902
ag5
asVYBM\uc2dc\uc0ac\ub2f7\ucef4
p2903
(lp2904
S'057030'
p2905
aVKOSDAQ:057030
p2906
ag5
asV\ud55c\uc9c4\uce7c
p2907
(lp2908
S'180640'
p2909
aVKRX:180640
p2910
ag10
asV\ub514\uc9c0\ud138\ub300\uc131
p2911
(lp2912
S'068930'
p2913
aVKOSDAQ:068930
p2914
ag5
asV\uc5d4\uc5d0\uc774\uce58\uc2a4\ud3292\ud638
p2915
(lp2916
S'206640'
p2917
aVKOSDAQ:206640
p2918
ag5
asVKJ\ud504\ub9ac\ud14d
p2919
(lp2920
S'083470'
p2921
aVKOSDAQ:083470
p2922
ag5
asV\uc720\ub2c8\ub4dc
p2923
(lp2924
S'014830'
p2925
aVKRX:014830
p2926
ag10
asV\uc720\uc548\ud0c0\uc81c1\ud638\uc2a4\ud329
p2927
(lp2928
S'204620'
p2929
aVKOSDAQ:204620
p2930
ag5
asV\ud4e8\uccd0\ucf10
p2931
(lp2932
S'220100'
p2933
aFnan
ag34
asV\uc6f0\ud06c\ub860\uac15\uc6d0
p2934
(lp2935
S'114190'
p2936
aVKOSDAQ:114190
p2937
ag5
asV\uc778\ud0d1\uc2a4
p2938
(lp2939
S'049070'
p2940
aVKOSDAQ:049070
p2941
ag5
asV\uc0bc\uc77c\uc81c\uc57d
p2942
(lp2943
S'000520'
p2944
aVKRX:000520
p2945
ag10
asV\ud55c\uc12c
p2946
(lp2947
S'020000'
p2948
aVKRX:020000
p2949
ag10
asV\ud0dc\uc591\uae30\uc804
p2950
(lp2951
S'072520'
p2952
aVKOSDAQ:072520
p2953
ag5
asVKNN
p2954
(lp2955
S'058400'
p2956
aVKOSDAQ:058400
p2957
ag5
asV\uace8\ud504\uc874
p2958
(lp2959
S'215000'
p2960
aVKOSDAQ:215000
p2961
ag5
asV\ud638\ud154\uc2e0\ub77c
p2962
(lp2963
S'008770'
p2964
aVKRX:008770
p2965
ag10
asV\uc720\ube44\uc628
p2966
(lp2967
S'084440'
p2968
aFnan
ag34
asVS&T\ud640\ub529\uc2a4
p2969
(lp2970
S'036530'
p2971
aVKRX:036530
p2972
ag10
asV\uc601\ud48d
p2973
(lp2974
S'000670'
p2975
aVKRX:000670
p2976
ag10
asV\ub2e4\uc6d0\uc2dc\uc2a4
p2977
(lp2978
S'068240'
p2979
aVKOSDAQ:068240
p2980
ag5
asV\ud37c\uc2dc\uc2a4
p2981
(lp2982
S'016800'
p2983
aVKRX:016800
p2984
ag10
asV\ud604\ub300\uc815\ubcf4\uae30\uc220
p2985
(lp2986
S'026180'
p2987
aVKOSDAQ:026180
p2988
ag5
asV\uac15\uc6d0\ub79c\ub4dc
p2989
(lp2990
S'035250'
p2991
aVKRX:035250
p2992
ag10
asV\ucf00\uc774\uc528\uc528
p2993
(lp2994
S'002380'
p2995
aVKRX:002380
p2996
ag10
asV\ube44\uc5d4\ub514\uc0dd\ud65c\uac74\uac15
p2997
(lp2998
S'215050'
p2999
aFnan
ag34
asV\ubbf8\ucc3d\uc11d\uc720\uacf5\uc5c5
p3000
(lp3001
S'003650'
p3002
aVKRX:003650
p3003
ag10
asV\uc194\uace0\ubc14\uc774\uc624
p3004
(lp3005
S'043100'
p3006
aVKOSDAQ:043100
p3007
ag5
asV\ubc14\ub2e4\ub85c3\ud638
p3008
(lp3009
S'092630'
p3010
aVKRX:092630
p3011
ag10
asVEMW
p3012
(lp3013
S'079190'
p3014
aVKOSDAQ:079190
p3015
ag5
asV\uac74\uc124\ud654\ud559\uacf5\uc5c5
p3016
(lp3017
S'000860'
p3018
aVKRX:000860
p3019
ag10
asV\uc77c\uc9c0\ud14c\ud06c
p3020
(lp3021
S'019540'
p3022
aVKOSDAQ:019540
p3023
ag5
asV\ud55c\uc8fc\uae08\uc18d
p3024
(lp3025
S'198940'
p3026
aFnan
ag34
asV\ud2b8\ub7ec\uc2a4\uc81c7\ud638
p3027
(lp3028
S'140890'
p3029
aVKRX:140890
p3030
ag10
asV\ubca0\uc140
p3031
(lp3032
S'177350'
p3033
aVKOSDAQ:177350
p3034
ag5
asV\ud734\ube44\uce20
p3035
(lp3036
S'065510'
p3037
aVKOSDAQ:065510
p3038
ag5
asV\uc778\ud14d\ud50c\ub7ec\uc2a4
p3039
(lp3040
S'064290'
p3041
aVKOSDAQ:064290
p3042
ag5
asV\uc138\uc774\ube0c\uc874I&C
p3043
(lp3044
S'067830'
p3045
aVKRX:067830
p3046
ag10
asV\uc77c\uc9c4\ub2e4\uc774\uc544
p3047
(lp3048
S'081000'
p3049
aVKRX:081000
p3050
ag10
asV\ud50c\ub79c\ud2f0\ub137
p3051
(lp3052
S'075130'
p3053
aVKOSDAQ:075130
p3054
ag5
asV\uc9c0\uc5ed\ub09c\ubc29\uacf5\uc0ac
p3055
(lp3056
S'071320'
p3057
aVKRX:071320
p3058
ag10
asV\uc544\uc774\uc564\uc528
p3059
(lp3060
S'052860'
p3061
aVKOSDAQ:052860
p3062
ag5
asV\uc120\ub370\uc774\ud1a0\uc988
p3063
(lp3064
S'123420'
p3065
aVKOSDAQ:123420
p3066
ag5
asV\uc131\ub3c4\uc774\uc5d4\uc9c0
p3067
(lp3068
S'037350'
p3069
aVKOSDAQ:037350
p3070
ag5
asV\ucf00\uc774\ud53c\uc5d0\ud504
p3071
(lp3072
S'024880'
p3073
aVKOSDAQ:024880
p3074
ag5
asV\uc138\uc885\uacf5\uc5c5
p3075
(lp3076
S'033530'
p3077
aVKRX:033530
p3078
ag10
asV\ucfe0\ucfe0\uc804\uc790
p3079
(lp3080
S'192400'
p3081
aVKRX:192400
p3082
ag10
asV\uc704\ub4dc\uc708\ub124\ud2b8\uc6cd
p3083
(lp3084
S'043220'
p3085
aVKOSDAQ:043220
p3086
ag5
asV\ud558\uc774\uace8\ub4dc12\ud638
p3087
(lp3088
S'172580'
p3089
aVKRX:172580
p3090
ag10
asV\ud604\ub300\uadf8\ub9b0\ud478\ub4dc
p3091
(lp3092
S'005440'
p3093
aVKRX:005440
p3094
ag10
asV\ud55c\ubbf8\uc57d\ud488
p3095
(lp3096
S'128940'
p3097
aVKRX:128940
p3098
ag10
asV\uc368\ub2c8\uc804\uc790
p3099
(lp3100
S'004770'
p3101
aVKRX:004770
p3102
ag10
asV\uc5d0\ud504\ud2f0\uc774\uc564\uc774
p3103
(lp3104
S'065160'
p3105
aVKOSDAQ:065160
p3106
ag5
asV\uc77c\uc9c4\ub514\uc2a4\ud50c
p3107
(lp3108
S'020760'
p3109
aVKRX:020760
p3110
ag10
asV\ub3d9\uc131\ud654\ud559
p3111
(lp3112
S'005190'
p3113
aVKRX:005190
p3114
ag10
asV\uae08\uac15\uacf5\uc5c5
p3115
(lp3116
S'014280'
p3117
aVKRX:014280
p3118
ag10
asV\ud558\uc774\uc38c
p3119
(lp3120
S'066980'
p3121
aVKOSDAQ:066980
p3122
ag5
asV\ud558\ub9bc\ud640\ub529\uc2a4
p3123
(lp3124
S'024660'
p3125
aVKOSDAQ:024660
p3126
ag5
asVGT&T
p3127
(lp3128
S'053870'
p3129
aVKOSDAQ:053870
p3130
ag5
asV\uae08\uac15\ucca0\uac15
p3131
(lp3132
S'053260'
p3133
aVKOSDAQ:053260
p3134
ag5
asVSKC \uc194\ubbf9\uc2a4
p3135
(lp3136
S'057500'
p3137
aVKOSDAQ:057500
p3138
ag5
asVSTS\ubc18\ub3c4\uccb4
p3139
(lp3140
S'036540'
p3141
aVKOSDAQ:036540
p3142
ag5
asV\ud558\uc774\ub85c\ub2c9
p3143
(lp3144
S'149980'
p3145
aVKOSDAQ:149980
p3146
ag5
asV\uc131\uc548
p3147
(lp3148
S'011300'
p3149
aVKRX:011300
p3150
ag10
asV\ucf54\uc624\ub871\uba38\ud2f0\ub9ac\uc5bc
p3151
(lp3152
S'144620'
p3153
aVKRX:144620
p3154
ag10
asV\uc6b0\ub9ac\uae30\uc220
p3155
(lp3156
S'032820'
p3157
aVKOSDAQ:032820
p3158
ag5
asVSK\uc99d\uad8c
p3159
(lp3160
S'001510'
p3161
aVKRX:001510
p3162
ag10
asV\ud53c\ub178\ud14d
p3163
(lp3164
S'150440'
p3165
aFnan
ag34
asV\ub178\ub8e8\ud398\uc778\ud2b8
p3166
(lp3167
S'090350'
p3168
aVKRX:090350
p3169
ag10
asV\ub9e4\uc77c\uc720\uc5c5
p3170
(lp3171
S'005990'
p3172
aVKOSDAQ:005990
p3173
ag5
asV\ubc14\uc774\uc624\ucf54\uc544
p3174
(lp3175
S'216400'
p3176
aFnan
ag34
asV\uc194\ube0c\ub808\uc778
p3177
(lp3178
S'036830'
p3179
aVKOSDAQ:036830
p3180
ag5
asVLG\ud558\uc6b0\uc2dc\uc2a4
p3181
(lp3182
S'108670'
p3183
aVKRX:108670
p3184
ag10
asV\ub3d9\uc544\uc6d0
p3185
(lp3186
S'008040'
p3187
aVKRX:008040
p3188
ag10
asVKSS\ud574\uc6b4
p3189
(lp3190
S'044450'
p3191
aVKRX:044450
p3192
ag10
asV\ud718\ub2c9\uc2a4\uc18c\uc7ac
p3193
(lp3194
S'050090'
p3195
aVKOSDAQ:050090
p3196
ag5
asV\uc9c0\uc5d0\uc2a4\uc774
p3197
(lp3198
S'053050'
p3199
aVKOSDAQ:053050
p3200
ag5
asV\ub2e4\uc6b0\ub370\uc774\ud0c0
p3201
(lp3202
S'032190'
p3203
aVKOSDAQ:032190
p3204
ag5
asVMH\uc5d0\ud0c4\uc62c
p3205
(lp3206
S'023150'
p3207
aVKRX:023150
p3208
ag10
asV\ube59\uadf8\ub808
p3209
(lp3210
S'005180'
p3211
aVKRX:005180
p3212
ag10
asV\ud050\ube0c\uc2a4
p3213
(lp3214
S'065560'
p3215
aVKOSDAQ:065560
p3216
ag5
asV\ud3c9\ud654\uc0b0\uc5c5
p3217
(lp3218
S'090080'
p3219
aVKRX:090080
p3220
ag10
asV\ucf00\uc774\uc5d0\uc2a4\ud53c
p3221
(lp3222
S'073010'
p3223
aVKOSDAQ:073010
p3224
ag5
asV\ub098\ub178\ucea0\ud14d
p3225
(lp3226
S'091970'
p3227
aVKOSDAQ:091970
p3228
ag5
asV\uc528\uc820
p3229
(lp3230
S'096530'
p3231
aVKOSDAQ:096530
p3232
ag5
asV\uc77c\uc2e0\ubc29\uc9c1
p3233
(lp3234
S'003200'
p3235
aVKRX:003200
p3236
ag10
asV\uc0bc\uc131\uc804\uc790\uc6b0
p3237
(lp3238
S'005930'
p3239
aVKRX:005930
p3240
ag10
asV\uc81c\uc774\uc6e8\uc774
p3241
(lp3242
S'058420'
p3243
aVKOSDAQ:058420
p3244
ag5
asV\uc591\uc9c0\uc0ac
p3245
(lp3246
S'030960'
p3247
aVKOSDAQ:030960
p3248
ag5
asVGS\uae00\ub85c\ubc8c
p3249
(lp3250
S'001250'
p3251
aVKRX:001250
p3252
ag10
asV\ub3d9\uc2e0\uac74\uc124
p3253
(lp3254
S'025950'
p3255
aVKOSDAQ:025950
p3256
ag5
asV\ud154\ucf54\uc6e8\uc5b4
p3257
(lp3258
S'078000'
p3259
aVKRX:078000
p3260
ag10
asV\ub300\uc9c4\ub514\uc5e0\ud53c
p3261
(lp3262
S'065690'
p3263
aVKOSDAQ:065690
p3264
ag5
asV\uc138\uc544\ud640\ub529\uc2a4
p3265
(lp3266
S'058650'
p3267
aVKRX:058650
p3268
ag10
asV\uc6d0\uc775IPS
p3269
(lp3270
S'030530'
p3271
aVKOSDAQ:030530
p3272
ag5
asVLS\ub124\ud2b8\uc6cd\uc2a4
p3273
(lp3274
S'000680'
p3275
aVKRX:000680
p3276
ag10
asV\ud050\uce90\ud53c\ud0c8
p3277
(lp3278
S'016600'
p3279
aVKOSDAQ:016600
p3280
ag5
asV\ub3d9\uc6d0
p3281
(lp3282
S'003580'
p3283
aVKRX:003580
p3284
ag10
asV\uc624\uacf5
p3285
(lp3286
S'045060'
p3287
aVKOSDAQ:045060
p3288
ag5
asV\ub3d9\uc77c\ucca0\uac15
p3289
(lp3290
S'023790'
p3291
aVKOSDAQ:023790
p3292
ag5
asVCJ\uc624\uc1fc\ud551
p3293
(lp3294
S'035760'
p3295
aVKOSDAQ:035760
p3296
ag5
asV\ucf00\uc774\uc0ac\uc778
p3297
(lp3298
S'192250'
p3299
aVKOSDAQ:192250
p3300
ag5
asV\ud604\ub300\uc2dc\uba58\ud2b8
p3301
(lp3302
S'006390'
p3303
aVKRX:006390
p3304
ag10
asV\uc81c\uc77c\ubaa8\uc9c1
p3305
(lp3306
S'028260'
p3307
aVKRX:028260
p3308
ag10
asV\ud55c\ubbf8\uc0ac\uc774\uc5b8\uc2a4
p3309
(lp3310
S'008930'
p3311
aVKRX:008930
p3312
ag10
asV\ub514\uc5d4\uc5d0\uc774\ub9c1\ud06c
p3313
(lp3314
S'127120'
p3315
aVKOSDAQ:127120
p3316
ag5
asV\uc608\uc2a4\ud2f0
p3317
(lp3318
S'122640'
p3319
aFnan
ag34
asV\ud55c\uad6d\uc120\uc7ac
p3320
(lp3321
S'025550'
p3322
aVKOSDAQ:025550
p3323
ag5
asV\ud55c\uc0d8
p3324
(lp3325
S'009240'
p3326
aVKRX:009240
p3327
ag10
asVCMG\uc81c\uc57d
p3328
(lp3329
S'058820'
p3330
aVKOSDAQ:058820
p3331
ag5
asV\ubaa8\ubca0\uc774\uc2a4
p3332
(lp3333
S'101330'
p3334
aVKOSDAQ:101330
p3335
ag5
asV\uc544\ubc14\ucf54
p3336
(lp3337
S'083930'
p3338
aVKOSDAQ:083930
p3339
ag5
asV\ud55c\uc138\uc2e4\uc5c5
p3340
(lp3341
S'105630'
p3342
aVKRX:105630
p3343
ag10
asV\uc624\ub69c\uae30
p3344
(lp3345
S'007310'
p3346
aVKRX:007310
p3347
ag10
asV\ub124\uc624\ud31c
p3348
(lp3349
S'092730'
p3350
aVKOSDAQ:092730
p3351
ag5
asV\uccb4\uc2dc\uc2a4
p3352
(lp3353
S'033250'
p3354
aVKRX:033250
p3355
ag10
asV\uc6c5\uc9c4\uc53d\ud06c\ube45
p3356
(lp3357
S'095720'
p3358
aVKRX:095720
p3359
ag10
asV\uc5d0\uc2a4\uc528\ub514
p3360
(lp3361
S'042110'
p3362
aVKOSDAQ:042110
p3363
ag5
asV\uba5c\ud30c\uc2a4
p3364
(lp3365
S'096640'
p3366
aVKOSDAQ:096640
p3367
ag5
asV\uc77c\uc131\uc2e0\uc57d
p3368
(lp3369
S'003120'
p3370
aVKRX:003120
p3371
ag10
asV\ub3d9\uc6b0
p3372
(lp3373
S'088910'
p3374
aVKOSDAQ:088910
p3375
ag5
asVSDN
p3376
(lp3377
S'099220'
p3378
aVKOSDAQ:099220
p3379
ag5
asV\uc3e0\ub9ac\ub4dc
p3380
(lp3381
S'050890'
p3382
aVKOSDAQ:050890
p3383
ag5
asV\uc5d0\uc774\ub514\ud14c\ud06c\ub180\ub85c\uc9c0
p3384
(lp3385
S'200710'
p3386
aVKOSDAQ:200710
p3387
ag5
asV\ud55c\uc591\uc99d\uad8c
p3388
(lp3389
S'001750'
p3390
aVKRX:001750
p3391
ag10
asV\ub3d9\ubd81\uc54411\ud638\uc120\ubc15\ud22c\uc790
p3392
(lp3393
S'083360'
p3394
aVKRX:083360
p3395
ag10
asV\uadf8\ub9b0\ud50c\ub7ec\uc2a4
p3396
(lp3397
S'186230'
p3398
aFnan
ag34
asV\uad11\uc9c4\uc2e4\uc5c5
p3399
(lp3400
S'026910'
p3401
aVKOSDAQ:026910
p3402
ag5
asV\ud544\ub9c1\ud06c
p3403
(lp3404
S'064800'
p3405
aVKOSDAQ:064800
p3406
ag5
asV\ub3d9\uad6dS&C
p3407
(lp3408
S'100130'
p3409
aVKOSDAQ:100130
p3410
ag5
asV\uc81c\uc6b0\uc2a4
p3411
(lp3412
S'079370'
p3413
aVKOSDAQ:079370
p3414
ag5
asV\ud55c\uc194\uc81c\uc9c0
p3415
(lp3416
S'213500'
p3417
aVKRX:213500
p3418
ag10
asV\uace8\ub4e0\ube0c\ub9bf\uc9c0\uc81c3\ud638\uc2a4\ud329
p3419
(lp3420
S'219580'
p3421
aVKOSDAQ:219580
p3422
ag5
asVCJ\ud504\ub808\uc2dc\uc6e8\uc774
p3423
(lp3424
S'051500'
p3425
aVKOSDAQ:051500
p3426
ag5
asV\ud558\uc774\uc81c3\ud638\uc2a4\ud329
p3427
(lp3428
S'217500'
p3429
aVKOSDAQ:217500
p3430
ag5
asV\uc640\ud1a0\uc2a4\ucf54\ub9ac\uc544
p3431
(lp3432
S'079000'
p3433
aVKOSDAQ:079000
p3434
ag5
asV\ub514\ucf00\uc774\ub77d
p3435
(lp3436
S'105740'
p3437
aVKOSDAQ:105740
p3438
ag5
asVLG\uc0dd\uba85\uacfc\ud559
p3439
(lp3440
S'068870'
p3441
aVKRX:068870
p3442
ag10
asV\uc5d8\uc564\uc5d0\ud504
p3443
(lp3444
S'066970'
p3445
aVKOSDAQ:066970
p3446
ag5
asV\ud558\uc774\uc148
p3447
(lp3448
S'200470'
p3449
aVKOSDAQ:200470
p3450
ag5
asV\uc30d\uc6a9\uc591\ud68c\uacf5\uc5c5
p3451
(lp3452
S'003410'
p3453
aVKRX:003410
p3454
ag10
asV\uc138\uc6d0\ubb3c\uc0b0
p3455
(lp3456
S'024830'
p3457
aVKOSDAQ:024830
p3458
ag5
asV\uc528\ud2f0\uc528\ubc14\uc774\uc624
p3459
(lp3460
S'060590'
p3461
aVKOSDAQ:060590
p3462
ag5
asV\ubc14\uc774\ub85c\uba54\ub4dc
p3463
(lp3464
S'084990'
p3465
aVKOSDAQ:084990
p3466
ag5
asV\uae30\uac00\ub808\uc778
p3467
(lp3468
S'049080'
p3469
aVKOSDAQ:049080
p3470
ag5
asV\ub300\uc591\uc804\uae30\uacf5\uc5c5
p3471
(lp3472
S'108380'
p3473
aVKOSDAQ:108380
p3474
ag5
asVKC\ucf54\ud2b8\ub810
p3475
(lp3476
S'119650'
p3477
aVKRX:119650
p3478
ag10
asV\ubbf8\ub798\uc0b0\uc5c5
p3479
(lp3480
S'025560'
p3481
aVKRX:025560
p3482
ag10
asV\ud55c\uad6d\ud654\uc7a5\ud488\uc81c\uc870
p3483
(lp3484
S'003350'
p3485
aVKRX:003350
p3486
ag10
asV\ub098\uc774\ubca1
p3487
(lp3488
S'138610'
p3489
aVKOSDAQ:138610
p3490
ag5
asV\ud604\ub300\ubbf8\ud3ec\uc870\uc120
p3491
(lp3492
S'010620'
p3493
aVKRX:010620
p3494
ag10
asV\uc138\ub3d9
p3495
(lp3496
S'053060'
p3497
aVKOSDAQ:053060
p3498
ag5
asV\uace0\ub824\uc0b0\uc5c5
p3499
(lp3500
S'002140'
p3501
aVKRX:002140
p3502
ag10
asV\uc528\uc720\uba54\ub514\uce7c
p3503
(lp3504
S'115480'
p3505
aVKOSDAQ:115480
p3506
ag5
asV\ube44\uc528\uc6d4\ub4dc\uc81c\uc57d
p3507
(lp3508
S'200780'
p3509
aVKOSDAQ:200780
p3510
ag5
asV\ub300\uc6d0\uc0b0\uc5c5
p3511
(lp3512
S'005710'
p3513
aVKOSDAQ:005710
p3514
ag5
asV\uc6b0\ub9ac\ub4e4\ud734\ube0c\ub808\uc778
p3515
(lp3516
S'118000'
p3517
aVKRX:118000
p3518
ag10
asV\uc5d4\uc5d0\uc774\uce58SL\uc2a4\ud329
p3519
(lp3520
S'207720'
p3521
aVKOSDAQ:207720
p3522
ag5
asV\ud55c\uad6d2\ud638\uc2a4\ud329
p3523
(lp3524
S'206400'
p3525
aVKOSDAQ:206400
p3526
ag5
asV\uac11\uc744\uba54\ud0c8
p3527
(lp3528
S'024840'
p3529
aVKOSDAQ:024840
p3530
ag5
asV\ud30c\uce94OPC
p3531
(lp3532
S'028040'
p3533
aVKOSDAQ:028040
p3534
ag5
asVSK\uac00\uc2a4
p3535
(lp3536
S'018670'
p3537
aVKRX:018670
p3538
ag10
asV\ud050\ub809\uc18c
p3539
(lp3540
S'060280'
p3541
aVKOSDAQ:060280
p3542
ag5
asV\uc2e0\ub300\uc591\uc81c\uc9c0
p3543
(lp3544
S'016590'
p3545
aVKRX:016590
p3546
ag10
asV\uc2e0\ud765
p3547
(lp3548
S'004080'
p3549
aVKRX:004080
p3550
ag10
asV\uc2f8\uc774\ub9e5\uc2a4
p3551
(lp3552
S'160980'
p3553
aVKOSDAQ:160980
p3554
ag5
asV\ud654\ucc9c\uae30\uacf5
p3555
(lp3556
S'000850'
p3557
aVKRX:000850
p3558
ag10
asV\uc81c\uc77c\uc57d\ud488
p3559
(lp3560
S'002620'
p3561
aVKRX:002620
p3562
ag10
asV\ub85c\uccb4\uc2dc\uc2a4\ud15c\uc988
p3563
(lp3564
S'071280'
p3565
aVKOSDAQ:071280
p3566
ag5
asV\ub3d9\uc591
p3567
(lp3568
S'001520'
p3569
aVKRX:001520
p3570
ag10
asV\uc704\uc9c0\ud2b8
p3571
(lp3572
S'036090'
p3573
aVKOSDAQ:036090
p3574
ag5
asV\uae08\ud638\uc5d4\ud2f0
p3575
(lp3576
S'130500'
p3577
aVKOSDAQ:130500
p3578
ag5
asVKCI
p3579
(lp3580
S'036670'
p3581
aVKOSDAQ:036670
p3582
ag5
asV\ud478\ub4dc\uc6f0
p3583
(lp3584
S'005670'
p3585
aVKOSDAQ:005670
p3586
ag5
asV\ud654\ucc9c\uae30\uacc4
p3587
(lp3588
S'010660'
p3589
aVKRX:010660
p3590
ag10
asV\uc9c4\ub85c\ubc1c\ud6a8
p3591
(lp3592
S'018120'
p3593
aVKOSDAQ:018120
p3594
ag5
asVKCW
p3595
(lp3596
S'068060'
p3597
aVKOSDAQ:068060
p3598
ag5
asVKPX\ud640\ub529\uc2a4
p3599
(lp3600
S'092230'
p3601
aVKRX:092230
p3602
ag10
asV\ub9e5\uc2a4\ub85c\ud14d
p3603
(lp3604
S'141070'
p3605
aVKOSDAQ:141070
p3606
ag5
asV\uc544\ubaa8\ub808\ud37c\uc2dc\ud53d
p3607
(lp3608
S'090430'
p3609
aVKRX:090430
p3610
ag10
asV\uc30d\uc6a9\uba38\ud2f0\ub9ac\uc5bc
p3611
(lp3612
S'047400'
p3613
aVKRX:047400
p3614
ag10
asV\uc5d8\uc544\uc774\uc5d0\uc2a4
p3615
(lp3616
S'138690'
p3617
aVKOSDAQ:138690
p3618
ag5
asV\uc774\ud654\uacf5\uc601
p3619
(lp3620
S'001840'
p3621
aVKOSDAQ:001840
p3622
ag5
asV\ud55c\uc77c\ub2e8\uc870
p3623
(lp3624
S'024740'
p3625
aVKOSDAQ:024740
p3626
ag5
asV\ub300\ud604
p3627
(lp3628
S'016090'
p3629
aVKRX:016090
p3630
ag10
asV\ud55c\uc911\uc5d4\uc2dc\uc5d0\uc2a4
p3631
(lp3632
S'107640'
p3633
aFnan
ag34
asV\ud765\uad6c\uc11d\uc720
p3634
(lp3635
S'024060'
p3636
aVKOSDAQ:024060
p3637
ag5
asVCJ\ub300\ud55c\ud1b5\uc6b4
p3638
(lp3639
S'000120'
p3640
aVKRX:000120
p3641
ag10
asV\uad50\ubcf44\ud638\uc2a4\ud329
p3642
(lp3643
S'222810'
p3644
aVKOSDAQ:222810
p3645
ag5
asV\uc5d4\ube0c\uc774\uc5d0\uc774\uce58\ucf54\ub9ac\uc544
p3646
(lp3647
S'067570'
p3648
aVKOSDAQ:067570
p3649
ag5
asV\uc9c4\ub9e4\ud2b8\ub9ad\uc2a4
p3650
(lp3651
S'109820'
p3652
aVKOSDAQ:109820
p3653
ag5
asV\uc804\ubc29
p3654
(lp3655
S'000950'
p3656
aVKRX:000950
p3657
ag10
asV\uc2e0\uc601\uc99d\uad8c
p3658
(lp3659
S'001720'
p3660
aVKRX:001720
p3661
ag10
asV\ub2e4\uc74c\uce74\uce74\uc624
p3662
(lp3663
S'035720'
p3664
aVKOSDAQ:035720
p3665
ag5
asV\uc2e0\ud765\uae30\uacc4
p3666
(lp3667
S'007820'
p3668
aVKOSDAQ:007820
p3669
ag5
asV\ub3d9\uc591\ub124\ud2b8\uc6cd\uc2a4
p3670
(lp3671
S'030790'
p3672
aVKRX:030790
p3673
ag10
asV\ucf00\uc774\ud2f0\uc2a4\uce74\uc774\ub77c\uc774\ud504
p3674
(lp3675
S'053210'
p3676
aVKRX:053210
p3677
ag10
asV\uc5d0\uc2a4\uc5d0\ub108\uc9c0
p3678
(lp3679
S'095910'
p3680
aVKOSDAQ:095910
p3681
ag5
asV\ub3d9\uc131\ud654\uc778\ud14d
p3682
(lp3683
S'033500'
p3684
aVKOSDAQ:033500
p3685
ag5
asV\uc38c\ubc14\uc774\uc624\ud14d
p3686
(lp3687
S'049960'
p3688
aVKOSDAQ:049960
p3689
ag5
asV\uc610\ub85c\ud398\uc774
p3690
(lp3691
S'179720'
p3692
aFnan
ag34
asV\ud2f0\uc5d8\uc544\uc774
p3693
(lp3694
S'062860'
p3695
aVKOSDAQ:062860
p3696
ag5
asVSK1\ud638\uc2a4\ud329
p3697
(lp3698
S'207930'
p3699
aVKOSDAQ:207930
p3700
ag5
asV\uc528\uc5d1\uc2a4\uc528\uc885\ud569\uce90\ud53c\ud0c8
p3701
(lp3702
S'021880'
p3703
aVKOSDAQ:021880
p3704
ag5
asV\uc720\ub2c8\ud14c\uc2a4\ud2b8
p3705
(lp3706
S'086390'
p3707
aVKOSDAQ:086390
p3708
ag5
asV\uc720\uc2e0
p3709
(lp3710
S'054930'
p3711
aVKOSDAQ:054930
p3712
ag5
asV\uc778\ud130\uc5e0
p3713
(lp3714
S'017250'
p3715
aVKOSDAQ:017250
p3716
ag5
asV\ub3d9\ubd81\uc54412\ud638\uc120\ubc15\ud22c\uc790
p3717
(lp3718
S'083370'
p3719
aVKRX:083370
p3720
ag10
asV\ub3d9\uad6d\uc0b0\uc5c5
p3721
(lp3722
S'005160'
p3723
aVKOSDAQ:005160
p3724
ag5
asV\uc77c\uc2e0\uc11d\uc7ac
p3725
(lp3726
S'007110'
p3727
aVKRX:007110
p3728
ag10
asV\ud558\uc774\uc2a4\ud2f8
p3729
(lp3730
S'071090'
p3731
aVKRX:071090
p3732
ag10
asV\ud55c\uad6d\ud2b9\uc218\ud615\uac15
p3733
(lp3734
S'007280'
p3735
aVKRX:007280
p3736
ag10
asV\ubcf4\uc131\ud30c\uc6cc\ud14d
p3737
(lp3738
S'006910'
p3739
aVKOSDAQ:006910
p3740
ag5
asVLG\uc720\ud50c\ub7ec\uc2a4
p3741
(lp3742
S'032640'
p3743
aVKRX:032640
p3744
ag10
asV\ud604\ub300\uc790\ub3d9\ucc28
p3745
(lp3746
S'005380'
p3747
aVKRX:005380
p3748
ag10
asV\ud50c\ub7fc\ub77c\uc778\uc0dd\uba85\uacfc\ud559
p3749
(lp3750
S'222670'
p3751
aFnan
ag34
asV\ubbf8\ub798\uc544\uc774\uc564\uc9c0
p3752
(lp3753
S'007120'
p3754
aVKRX:007120
p3755
ag10
asV\ubd80\uc2a4\ud0c0
p3756
(lp3757
S'008470'
p3758
aVKOSDAQ:008470
p3759
ag5
asV\uc6a9\ud604BM
p3760
(lp3761
S'089230'
p3762
aVKOSDAQ:089230
p3763
ag5
asVSGA
p3764
(lp3765
S'049470'
p3766
aVKOSDAQ:049470
p3767
ag5
asV\ub300\uc2e0\uc815\ubcf4\ud1b5\uc2e0
p3768
(lp3769
S'020180'
p3770
aVKOSDAQ:020180
p3771
ag5
asV\ud558\uc774\uace8\ub4dc2\ud638
p3772
(lp3773
S'139200'
p3774
aVKRX:139200
p3775
ag10
asVAK\ud640\ub529\uc2a4
p3776
(lp3777
S'006840'
p3778
aVKRX:006840
p3779
ag10
asV\ucc28\ub514\uc624\uc2a4\ud14d
p3780
(lp3781
S'196450'
p3782
aVKOSDAQ:196450
p3783
ag5
asV\ub3d9\uc77c\uae30\uc5f0
p3784
(lp3785
S'032960'
p3786
aVKOSDAQ:032960
p3787
ag5
asV\uc2e0\uc138\uacc4\ud478\ub4dc
p3788
(lp3789
S'031440'
p3790
aVKRX:031440
p3791
ag10
asV\ud480\ubb34\uc6d0
p3792
(lp3793
S'017810'
p3794
aVKRX:017810
p3795
ag10
asV\ub9ac\ub178\uc2a4
p3796
(lp3797
S'039980'
p3798
aVKOSDAQ:039980
p3799
ag5
asV\ud55c\uad6d\uc790\uc6d0\ud22c\uc790\uac1c\ubc1c
p3800
(lp3801
S'033430'
p3802
aVKOSDAQ:033430
p3803
ag5
asV\uc5e0\uc528\ub125\uc2a4
p3804
(lp3805
S'097520'
p3806
aVKOSDAQ:097520
p3807
ag5
asV\ud55c\uad6d\uae30\uc5c5\ud3c9\uac00
p3808
(lp3809
S'034950'
p3810
aVKOSDAQ:034950
p3811
ag5
asV\uc0bc\uc131\uacf5\uc870
p3812
(lp3813
S'006660'
p3814
aVKRX:006660
p3815
ag10
asV\uc774\uc5d4\ub4dc\ub514
p3816
(lp3817
S'101360'
p3818
aFnan
ag34
asVCNH
p3819
(lp3820
S'023460'
p3821
aVKOSDAQ:023460
p3822
ag5
asV\uc5d0\uc4f0\uc528\uc5d4\uc9c0\ub2c8\uc5b4\ub9c1
p3823
(lp3824
S'023960'
p3825
aVKRX:023960
p3826
ag10
asV\ud55c\ucef4\uc9c0\uc5e0\ub514
p3827
(lp3828
S'077280'
p3829
aVKOSDAQ:077280
p3830
ag5
asV\uad6d\uc21c\ub2f9
p3831
(lp3832
S'043650'
p3833
aVKOSDAQ:043650
p3834
ag5
asV\uce94\ub4e4\ubbf8\ub514\uc5b4
p3835
(lp3836
S'066410'
p3837
aVKOSDAQ:066410
p3838
ag5
asV\ud050\ub85c\ucef4
p3839
(lp3840
S'040350'
p3841
aVKOSDAQ:040350
p3842
ag5
asV\uc5d0\ud504\uc5d0\uc2a4\ud2f0
p3843
(lp3844
S'036810'
p3845
aVKOSDAQ:036810
p3846
ag5
asVAP\uc2dc\uc2a4\ud15c
p3847
(lp3848
S'054620'
p3849
aVKOSDAQ:054620
p3850
ag5
asVYTN
p3851
(lp3852
S'040300'
p3853
aVKOSDAQ:040300
p3854
ag5
asV\uc0ac\uc870\uc624\uc591
p3855
(lp3856
S'006090'
p3857
aVKRX:006090
p3858
ag10
asV\uc774\uc2a4\ud2b8\uc544\uc2dc\uc544\ud640\ub529\uc2a4
p3859
(lp3860
S'900110'
p3861
aVKOSDAQ:900110
p3862
ag5
asV\uc544\uc774\ub9ac\ubc84
p3863
(lp3864
S'060570'
p3865
aVKOSDAQ:060570
p3866
ag5
asV\uc2dc\uadf8\ub124\ud2f1\uc2a4
p3867
(lp3868
S'033170'
p3869
aVKOSDAQ:033170
p3870
ag5
asV\uc0bc\ub9bd\uc2dd\ud488
p3871
(lp3872
S'005610'
p3873
aVKRX:005610
p3874
ag10
asV\ud55c\ucc3d\uc0b0\uc5c5
p3875
(lp3876
S'079170'
p3877
aVKOSDAQ:079170
p3878
ag5
asV\uc624\ud14d
p3879
(lp3880
S'067170'
p3881
aVKOSDAQ:067170
p3882
ag5
asV\ud55c\uad6d\uc8fc\ucca0\uad00\uacf5\uc5c5
p3883
(lp3884
S'000970'
p3885
aVKRX:000970
p3886
ag10
asV\ud558\uc774\uc81c2\ud638\uc2a4\ud329
p3887
(lp3888
S'205470'
p3889
aVKOSDAQ:205470
p3890
ag5
asV\ucf54\ub370\uc988\ucef4\ubc14\uc778
p3891
(lp3892
S'047770'
p3893
aVKOSDAQ:047770
p3894
ag5
asVNHN\uc5d4\ud130\ud14c\uc778\uba3c\ud2b8
p3895
(lp3896
S'181710'
p3897
aVKRX:181710
p3898
ag10
asV\ubaa8\ub098\ub9ac\uc790
p3899
(lp3900
S'012690'
p3901
aVKRX:012690
p3902
ag10
asV\ub125\uc13c\ud14c\ud06c
p3903
(lp3904
S'073070'
p3905
aVKOSDAQ:073070
p3906
ag5
asV\ub300\uc6b0\uc2a4\ud3292\ud638
p3907
(lp3908
S'204440'
p3909
aVKOSDAQ:204440
p3910
ag5
asV\uace8\ub4e0\ube0c\ub9bf\uc9c0\uc81c2\ud638\uc2a4\ud329
p3911
(lp3912
S'206660'
p3913
aVKOSDAQ:206660
p3914
ag5
asV\uad00\uc545\uc0b0\uc5c5
p3915
(lp3916
S'076340'
p3917
aFnan
ag34
asV\uc11c\uc804\uae30\uc804
p3918
(lp3919
S'189860'
p3920
aVKOSDAQ:189860
p3921
ag5
asVKH\ubc14\ud14d
p3922
(lp3923
S'060720'
p3924
aVKOSDAQ:060720
p3925
ag5
asV\uc0bc\uc77c
p3926
(lp3927
S'032280'
p3928
aVKOSDAQ:032280
p3929
ag5
asV\ub098\uc774\uc2a4\uc815\ubcf4\ud1b5\uc2e0
p3930
(lp3931
S'036800'
p3932
aVKOSDAQ:036800
p3933
ag5
asV\ud558\ub098\ub2c8\ucf081\ud638
p3934
(lp3935
S'099340'
p3936
aVKRX:099340
p3937
ag10
asV\uba54\ub514\ud504\ub860
p3938
(lp3939
S'065650'
p3940
aVKOSDAQ:065650
p3941
ag5
asV\uc544\uc774\ud14d\ubc18\ub3c4\uccb4
p3942
(lp3943
S'119830'
p3944
aVKOSDAQ:119830
p3945
ag5
asV\uc5d0\ub108\uc9c0\uc194\ub8e8\uc158
p3946
(lp3947
S'067630'
p3948
aVKOSDAQ:067630
p3949
ag5
asVS&TC
p3950
(lp3951
S'100840'
p3952
aVKRX:100840
p3953
ag10
asV\ub85c\ucf54\uc870\uc774
p3954
(lp3955
S'109960'
p3956
aVKOSDAQ:109960
p3957
ag5
asV\uc608\uc2a4\ucf54
p3958
(lp3959
S'015360'
p3960
aVKRX:015360
p3961
ag10
asV\uc2e0\ud55c\uc9c0\uc8fc
p3962
(lp3963
S'055550'
p3964
aVKRX:055550
p3965
ag10
asV\uc624\uc2a4\ucf54\ud14d
p3966
(lp3967
S'039200'
p3968
aVKOSDAQ:039200
p3969
ag5
asV\uc601\ud654\uae08\uc18d
p3970
(lp3971
S'012280'
p3972
aVKRX:012280
p3973
ag10
asV\ud589\ub0a8\uc790\uae30
p3974
(lp3975
S'008800'
p3976
aVKOSDAQ:008800
p3977
ag5
asV\uc131\uc6b0\uc804\uc790
p3978
(lp3979
S'081580'
p3980
aVKOSDAQ:081580
p3981
ag5
asV\uc81c\uc774\uc5e0\ud2f0
p3982
(lp3983
S'094970'
p3984
aVKOSDAQ:094970
p3985
ag5
asV\uc81c\uc774\ube0c\uc774\uc5e0
p3986
(lp3987
S'054950'
p3988
aVKOSDAQ:054950
p3989
ag5
asV\ubaa8\uc544\ud14d
p3990
(lp3991
S'033200'
p3992
aVKOSDAQ:033200
p3993
ag5
asV\uc6d0\uc775\ud050\ube0c
p3994
(lp3995
S'014190'
p3996
aVKOSDAQ:014190
p3997
ag5
asV\ub370\ucf54\uc564\uc774
p3998
(lp3999
S'017680'
p4000
aVKOSDAQ:017680
p4001
ag5
asV\uc5d0\uc2a4\ud2f0\uc624
p4002
(lp4003
S'098660'
p4004
aVKOSDAQ:098660
p4005
ag5
asV\ud734\ub2c8\ub4dc\ud14c\ud06c\ub180\ub7ec\uc9c0\uc2a4
p4006
(lp4007
S'005870'
p4008
aVKRX:005870
p4009
ag10
asV\ud55c\uc628\uc2dc\uc2a4\ud15c
p4010
(lp4011
S'018880'
p4012
aVKRX:018880
p4013
ag10
asV\ub3d9\uc544\uc5d8\ud14d
p4014
(lp4015
S'088130'
p4016
aVKOSDAQ:088130
p4017
ag5
asV\ud53c\uc81c\uc774\uba54\ud0c8
p4018
(lp4019
S'128660'
p4020
aVKOSDAQ:128660
p4021
ag5
asV\ud0dc\uc591\uae08\uc18d\uacf5\uc5c5
p4022
(lp4023
S'004100'
p4024
aVKRX:004100
p4025
ag10
asV\uc544\uc138\uc544\uc81c\uc9c0
p4026
(lp4027
S'002310'
p4028
aVKRX:002310
p4029
ag10
asV\uae30\uc544\uc790\ub3d9\ucc28
p4030
(lp4031
S'000270'
p4032
aVKRX:000270
p4033
ag10
asV\uc131\ubcf4\ud654\ud559
p4034
(lp4035
S'003080'
p4036
aVKRX:003080
p4037
ag10
asV\ub18d\uc2ec\ud640\ub529\uc2a4
p4038
(lp4039
S'072710'
p4040
aVKRX:072710
p4041
ag10
asV\ud654\uc131\uc0b0\uc5c5
p4042
(lp4043
S'002460'
p4044
aVKRX:002460
p4045
ag10
asV\uba54\ub9ac\uce20\ud654\uc7ac
p4046
(lp4047
S'000060'
p4048
aVKRX:000060
p4049
ag10
asV\uc9c0\uc5e0\ube44\ucf54\ub9ac\uc544
p4050
(lp4051
S'013870'
p4052
aVKRX:013870
p4053
ag10
asV\ud0dc\uacbd\ud654\ud559
p4054
(lp4055
S'006890'
p4056
aVKRX:006890
p4057
ag10
asV\ub8e8\ud2b8\ub85c\ub2c9
p4058
(lp4059
S'085370'
p4060
aVKOSDAQ:085370
p4061
ag5
asV\uc131\ud638\uc804\uc790
p4062
(lp4063
S'043260'
p4064
aVKOSDAQ:043260
p4065
ag5
asV\uc911\uad6d\uc6d0\uc591\uc790\uc6d0
p4066
(lp4067
S'900050'
p4068
aVKRX:900050
p4069
ag10
asV\uc790\uc5f0\uacfc\ud658\uacbd
p4070
(lp4071
S'043910'
p4072
aVKOSDAQ:043910
p4073
ag5
asV\ud55c\uad6d\uc804\uc790\uae08\uc735
p4074
(lp4075
S'063570'
p4076
aVKOSDAQ:063570
p4077
ag5
asV\uc11c\uc6b8\uc81c\uc57d
p4078
(lp4079
S'018680'
p4080
aVKOSDAQ:018680
p4081
ag5
asV\ucf00\uc774\ub514\uc528
p4082
(lp4083
S'029480'
p4084
aVKOSDAQ:029480
p4085
ag5
asV\uc5d0\ub4c0\ucf00\uc774\uc158\ud30c\ud2b8\ub108
p4086
(lp4087
S'208890'
p4088
aFnan
ag34
asV\uc870\uc120\ub0b4\ud654
p4089
(lp4090
S'000480'
p4091
aVKRX:000480
p4092
ag10
asV\ud154\ub808\uce69\uc2a4
p4093
(lp4094
S'054450'
p4095
aVKOSDAQ:054450
p4096
ag5
asV\uad11\uba85\uc804\uae30
p4097
(lp4098
S'017040'
p4099
aVKRX:017040
p4100
ag10
asV\ub514\uc5d0\uc2a4\ucf00\uc774
p4101
(lp4102
S'109740'
p4103
aVKOSDAQ:109740
p4104
ag5
asV\ucf54\uc774\uc988
p4105
(lp4106
S'121850'
p4107
aVKOSDAQ:121850
p4108
ag5
asV\ud55c\ud654ACPC\uc2a4\ud329
p4109
(lp4110
S'217620'
p4111
aVKOSDAQ:217620
p4112
ag5
asVSK\ucf00\ubbf8\uce7c
p4113
(lp4114
S'006120'
p4115
aVKRX:006120
p4116
ag10
asVF&F
p4117
(lp4118
S'007700'
p4119
aVKRX:007700
p4120
ag10
asV\ube14\ub8e8\ucf64
p4121
(lp4122
S'033560'
p4123
aVKOSDAQ:033560
p4124
ag5
asV\ucf00\uc774\ub514\uac74\uc124
p4125
(lp4126
S'044180'
p4127
aVKOSDAQ:044180
p4128
ag5
asV\uc5d0\ubc84\ub2e4\uc784
p4129
(lp4130
S'041440'
p4131
aVKOSDAQ:041440
p4132
ag5
asV\ucf54\ub9e5\uc2a4
p4133
(lp4134
S'036690'
p4135
aVKOSDAQ:036690
p4136
ag5
asV\ucf54\ub9ac\uc544\uc5d0\uc2a4\uc774
p4137
(lp4138
S'101670'
p4139
aVKOSDAQ:101670
p4140
ag5
asV\ud55c\uc9c4\uc911\uacf5\uc5c5\ud640\ub529\uc2a4
p4141
(lp4142
S'003480'
p4143
aVKRX:003480
p4144
ag10
asV\ub300\uad6c\ubc31\ud654\uc810
p4145
(lp4146
S'006370'
p4147
aVKRX:006370
p4148
ag10
asV\ud604\ub300\ud574\uc0c1
p4149
(lp4150
S'001450'
p4151
aVKRX:001450
p4152
ag10
asV\ub85c\uc9c0\uc2dc\uc2a4
p4153
(lp4154
S'067730'
p4155
aVKOSDAQ:067730
p4156
ag5
asV\ub179\uc2ed\uc790
p4157
(lp4158
S'006280'
p4159
aVKRX:006280
p4160
ag10
asV\ucf00\uc774\ud2f0\ube44\uc2a4\ud3293\ud638
p4161
(lp4162
S'220630'
p4163
aVKOSDAQ:220630
p4164
ag5
asV\ucf54\uc5d4\ud14d
p4165
(lp4166
S'029960'
p4167
aVKOSDAQ:029960
p4168
ag5
asV\uac00\uc628\uc804\uc120
p4169
(lp4170
S'000500'
p4171
aVKRX:000500
p4172
ag10
asVKPX\uc0dd\uba85\uacfc\ud559
p4173
(lp4174
S'114450'
p4175
aVKOSDAQ:114450
p4176
ag5
asV\ud604\ub300\ubc31\ud654\uc810
p4177
(lp4178
S'069960'
p4179
aVKRX:069960
p4180
ag10
asV\uc6d0\ud48d\ubb3c\uc0b0
p4181
(lp4182
S'008290'
p4183
aVKOSDAQ:008290
p4184
ag5
asV\ub0a8\uc601\ube44\ube44\uc548
p4185
(lp4186
S'002070'
p4187
aVKRX:002070
p4188
ag10
asV\ucf00\uc774\ud504
p4189
(lp4190
S'064820'
p4191
aVKOSDAQ:064820
p4192
ag5
asV\uc54c\ud2f0\uce90\uc2a4\ud2b8
p4193
(lp4194
S'085810'
p4195
aVKOSDAQ:085810
p4196
ag5
asV\ud55c\uad6d\ucf5c\ub9c8
p4197
(lp4198
S'161890'
p4199
aVKRX:161890
p4200
ag10
asV\uc77c\uc9c4\ud640\ub529\uc2a4
p4201
(lp4202
S'015860'
p4203
aVKRX:015860
p4204
ag10
asVIB\uc6d4\ub4dc\uc640\uc774\ub4dc
p4205
(lp4206
S'011420'
p4207
aVKRX:011420
p4208
ag10
asVSK
p4209
(lp4210
S'034730'
p4211
aVKRX:034730
p4212
ag10
asV\ud55c\uc77c\uc0ac\ub8cc
p4213
(lp4214
S'005860'
p4215
aVKOSDAQ:005860
p4216
ag5
asV\uc6e8\uc774\ube0c\uc77c\ub809\ud2b8\ub85c
p4217
(lp4218
S'095270'
p4219
aVKOSDAQ:095270
p4220
ag5
asV\ubc31\uad11\uc18c\uc7ac
p4221
(lp4222
S'014580'
p4223
aVKRX:014580
p4224
ag10
asV\ud604\ub300\ube44\uc564\uc9c0\uc2a4\ud2f8
p4225
(lp4226
S'004560'
p4227
aVKRX:004560
p4228
ag10
asVSK\ud558\uc774\ub2c9\uc2a4
p4229
(lp4230
S'000660'
p4231
aVKRX:000660
p4232
ag10
asV\uc5e0\uc820
p4233
(lp4234
S'032790'
p4235
aVKOSDAQ:032790
p4236
ag5
asV\ud14c\ub77c\ud14d
p4237
(lp4238
S'151750'
p4239
aFnan
ag34
asV\uc5d0\uc2a4\ub514\uc2dc\uc2a4\ud15c
p4240
(lp4241
S'121890'
p4242
aVKOSDAQ:121890
p4243
ag5
asV\ud558\ub098\ub9c8\uc774\ud06c\ub860
p4244
(lp4245
S'067310'
p4246
aVKOSDAQ:067310
p4247
ag5
asV\uc11c\ud654\uc815\ubcf4\ud1b5\uc2e0
p4248
(lp4249
S'033790'
p4250
aVKOSDAQ:033790
p4251
ag5
asV\ud658\uc778\uc81c\uc57d
p4252
(lp4253
S'016580'
p4254
aVKRX:016580
p4255
ag10
asV\uc6d0\uc775\uba38\ud2b8\ub9ac\uc5bc\uc988
p4256
(lp4257
S'104830'
p4258
aVKOSDAQ:104830
p4259
ag5
asV\ubbf8\uc6d0\ud654\ud559
p4260
(lp4261
S'134380'
p4262
aVKRX:134380
p4263
ag10
asV\uc54c\ud14c\uc624\uc820
p4264
(lp4265
S'196170'
p4266
aVKOSDAQ:196170
p4267
ag5
asV\uba54\ub514\ud3ec\uc2a4\ud2b8
p4268
(lp4269
S'078160'
p4270
aVKOSDAQ:078160
p4271
ag5
asV\uc708\uc2a4
p4272
(lp4273
S'136540'
p4274
aVKOSDAQ:136540
p4275
ag5
asV\ucf54\uc13c
p4276
(lp4277
S'009730'
p4278
aVKOSDAQ:009730
p4279
ag5
asV\uace0\ub824\uc81c\uac15
p4280
(lp4281
S'002240'
p4282
aVKRX:002240
p4283
ag10
asV\ud604\ub300\uc0c1\uc120
p4284
(lp4285
S'011200'
p4286
aVKRX:011200
p4287
ag10
asV\ub514\uc774\uc5d4\ud2f0
p4288
(lp4289
S'079810'
p4290
aVKOSDAQ:079810
p4291
ag5
asVKB\uae08\uc735
p4292
(lp4293
S'105560'
p4294
aVKRX:105560
p4295
ag10
asV\uc6b0\uc9c4
p4296
(lp4297
S'105840'
p4298
aVKRX:105840
p4299
ag10
asV\uc5d0\uc2a4\uc5d4\uc720
p4300
(lp4301
S'080000'
p4302
aVKOSDAQ:080000
p4303
ag5
asV\uc140\ud2b8\ub9ac\uc628\uc81c\uc57d
p4304
(lp4305
S'068760'
p4306
aVKOSDAQ:068760
p4307
ag5
asVHMC\ud22c\uc790\uc99d\uad8c
p4308
(lp4309
S'001500'
p4310
aVKRX:001500
p4311
ag10
asV\ub514\ud53c\uc564\ucf00\uc774
p4312
(lp4313
S'189700'
p4314
aFnan
ag34
asV\uc5d0\uc774\ub514\uce69\uc2a4
p4315
(lp4316
S'054630'
p4317
aVKOSDAQ:054630
p4318
ag5
asV\uc5d4\ucf00\uc774
p4319
(lp4320
S'085310'
p4321
aVKRX:085310
p4322
ag10
asV\uc5d0\uc2a4\ud53c\uc9c0
p4323
(lp4324
S'058610'
p4325
aVKOSDAQ:058610
p4326
ag5
asV\uc601\uc778\ud504\ub7f0\ud2f0\uc5b4
p4327
(lp4328
S'036180'
p4329
aVKOSDAQ:036180
p4330
ag5
asV\uc2a4\ud398\ucf54
p4331
(lp4332
S'013810'
p4333
aVKOSDAQ:013810
p4334
ag5
asV\uc2e0\ub77c\uc12c\uc720
p4335
(lp4336
S'001000'
p4337
aVKOSDAQ:001000
p4338
ag5
asV\uc5d0\uc2a4\uc5d0\ud504\uc5d0\uc774
p4339
(lp4340
S'056190'
p4341
aVKOSDAQ:056190
p4342
ag5
asV\uc0bc\ubcf4\uc0b0\uc5c5
p4343
(lp4344
S'009620'
p4345
aVKOSDAQ:009620
p4346
ag5
asV\ud50c\ub809\uc2a4\ucef4
p4347
(lp4348
S'065270'
p4349
aVKOSDAQ:065270
p4350
ag5
asV\ud2f0\uc774\uc528\ucf54
p4351
(lp4352
S'008900'
p4353
aVKRX:008900
p4354
ag10
asV\uc885\uadfc\ub2f9\ubc14\uc774\uc624
p4355
(lp4356
S'063160'
p4357
aVKRX:063160
p4358
ag10
asV\ud0dc\uacbd\uc0b0\uc5c5
p4359
(lp4360
S'015890'
p4361
aVKRX:015890
p4362
ag10
asV\uc774\ub178\uc640\uc774\uc5b4\ub9ac\uc2a4
p4363
(lp4364
S'073490'
p4365
aVKOSDAQ:073490
p4366
ag5
asV\uc0ac\ud30c\uc774\uc5b4\ud14c\ud06c\ub180\ub85c\uc9c0
p4367
(lp4368
S'123260'
p4369
aVKOSDAQ:123260
p4370
ag5
asV\uc288\ud53c\uac90\ucf54\ub9ac\uc544
p4371
(lp4372
S'192440'
p4373
aVKOSDAQ:192440
p4374
ag5
asV\ud55c\ub124\ud2b8
p4375
(lp4376
S'052600'
p4377
aVKOSDAQ:052600
p4378
ag5
asV\ub808\ub4dc\ube44\uc528
p4379
(lp4380
S'184230'
p4381
aVKOSDAQ:184230
p4382
ag5
asV\uc560\uacbd\uc720\ud654
p4383
(lp4384
S'161000'
p4385
aVKRX:161000
p4386
ag10
asV\ud55c\uad6d\uacbd\uc81cTV
p4387
(lp4388
S'039340'
p4389
aVKOSDAQ:039340
p4390
ag5
asV\ub450\uc0b0\uac74\uc124
p4391
(lp4392
S'011160'
p4393
aVKRX:011160
p4394
ag10
asV\ub2e4\uc0b0\ub124\ud2b8\uc6cd\uc2a4
p4395
(lp4396
S'039560'
p4397
aVKOSDAQ:039560
p4398
ag5
asV\ub974\ub124\ucf54
p4399
(lp4400
S'042940'
p4401
aVKOSDAQ:042940
p4402
ag5
asV\uc5d4\uc528\uc18c\ud504\ud2b8
p4403
(lp4404
S'036570'
p4405
aVKRX:036570
p4406
ag10
asV\ud55c\uc194\uc778\ud2f0\ud050\ube0c
p4407
(lp4408
S'070590'
p4409
aVKOSDAQ:070590
p4410
ag5
asV\uc911\uc559\ubc31\uc2e0
p4411
(lp4412
S'072020'
p4413
aVKOSDAQ:072020
p4414
ag5
asV\ud30c\ub9c8\ub9ac\uc11c\uce58\ud504\ub85c\ub355\ud2b8
p4415
(lp4416
S'214450'
p4417
aVKOSDAQ:214450
p4418
ag5
asV\ub9c8\uc774\ud06c\ub85c\ucee8\ud14d\uc194
p4419
(lp4420
S'098120'
p4421
aVKOSDAQ:098120
p4422
ag5
asV\uc778\uc9c0\ucee8\ud2b8\ub864\uc2a4
p4423
(lp4424
S'023800'
p4425
aVKRX:023800
p4426
ag10
asV\uc704\uc6d4\ub4dc
p4427
(lp4428
S'140660'
p4429
aFnan
ag34
asV\uc5d0\uc2a4\ucf54\ub125
p4430
(lp4431
S'096630'
p4432
aVKOSDAQ:096630
p4433
ag5
asV\ud55c\uad6d\uc11d\uc720\uacf5\uc5c5
p4434
(lp4435
S'004090'
p4436
aVKRX:004090
p4437
ag10
asV\uc140\ub8e8\uba54\ub4dc
p4438
(lp4439
S'049180'
p4440
aVKOSDAQ:049180
p4441
ag5
asV\uc6b0\ub9ac\uc885\uae08
p4442
(lp4443
S'010050'
p4444
aVKRX:010050
p4445
ag10
asV\uc774\ud654\uc804\uae30
p4446
(lp4447
S'024810'
p4448
aVKOSDAQ:024810
p4449
ag5
asV\ucc3d\ud574\uc5d0\ud0c4\uc62c
p4450
(lp4451
S'004650'
p4452
aVKOSDAQ:004650
p4453
ag5
asV\ub86f\ub370\ucf00\ubbf8\uce7c
p4454
(lp4455
S'011170'
p4456
aVKRX:011170
p4457
ag10
asV\uc9c0\uc5d0\uc2a4\uc778\uc2a4\ud2b8\ub8e8
p4458
(lp4459
S'007630'
p4460
aVKRX:007630
p4461
ag10
asV\ud604\ub300\uacf5\uc5c5
p4462
(lp4463
S'170030'
p4464
aVKOSDAQ:170030
p4465
ag5
asV\ud0dc\uad11
p4466
(lp4467
S'023160'
p4468
aVKOSDAQ:023160
p4469
ag5
asV\ud55c\uc194\ub85c\uc9c0\uc2a4\ud2f1\uc2a4
p4470
(lp4471
S'009180'
p4472
aVKRX:009180
p4473
ag10
asVSG\ucda9\ub0a8\ubc29\uc801
p4474
(lp4475
S'001380'
p4476
aVKRX:001380
p4477
ag10
asV\uc774\uae00\ub8e8\uc2dc\ud050\ub9ac\ud2f0
p4478
(lp4479
S'067920'
p4480
aVKOSDAQ:067920
p4481
ag5
asV\ucf54\uc544\ub85c\uc9c1
p4482
(lp4483
S'048870'
p4484
aVKOSDAQ:048870
p4485
ag5
asV\ud2b8\ub808\uc774\uc2a4
p4486
(lp4487
S'052290'
p4488
aVKOSDAQ:052290
p4489
ag5
asV\uc778\ud14c\uadf8\ub808\uc774\ud2f0\ub4dc\uc5d0\ub108\uc9c0
p4490
(lp4491
S'023430'
p4492
aVKOSDAQ:023430
p4493
ag5
asV\uc120\uc9c4
p4494
(lp4495
S'136490'
p4496
aVKRX:136490
p4497
ag10
asV\ub300\ubd09\uc5d8\uc5d0\uc2a4
p4498
(lp4499
S'078140'
p4500
aVKOSDAQ:078140
p4501
ag5
asV\ud55c\ud0d1
p4502
(lp4503
S'002680'
p4504
aVKOSDAQ:002680
p4505
ag5
asV\ucf54\ub2e4\ucf54
p4506
(lp4507
S'046070'
p4508
aVKOSDAQ:046070
p4509
ag5
asVE1
p4510
(lp4511
S'017940'
p4512
aVKRX:017940
p4513
ag10
asV\ubbf8\ucf54
p4514
(lp4515
S'059090'
p4516
aVKOSDAQ:059090
p4517
ag5
asV\ub370\ube0c\uc2dc\uc2a4\ud130\uc988
p4518
(lp4519
S'194480'
p4520
aVKOSDAQ:194480
p4521
ag5
asV\ud504\ub9ac\uc820
p4522
(lp4523
S'060910'
p4524
aVKOSDAQ:060910
p4525
ag5
asVEG
p4526
(lp4527
S'037370'
p4528
aVKOSDAQ:037370
p4529
ag5
asV\uc5d0\uc2a4\uc544\uc774\ub9ac\uc18c\uc2a4
p4530
(lp4531
S'065420'
p4532
aVKOSDAQ:065420
p4533
ag5
asV\ud604\ub300\uac74\uc124
p4534
(lp4535
S'000720'
p4536
aVKRX:000720
p4537
ag10
asV\uc6b0\ub9ac\uc740\ud589
p4538
(lp4539
S'000030'
p4540
aVKRX:000030
p4541
ag10
asV\ud48d\uc0b0
p4542
(lp4543
S'103140'
p4544
aVKRX:103140
p4545
ag10
asVIBKS\uc81c2\ud638\uc2a4\ud329
p4546
(lp4547
S'204840'
p4548
aVKOSDAQ:204840
p4549
ag5
asV\uacbd\ubc29
p4550
(lp4551
S'000050'
p4552
aVKRX:000050
p4553
ag10
asV\uc815\uc6d0\uc5d4\uc2dc\uc2a4
p4554
(lp4555
S'045510'
p4556
aVKOSDAQ:045510
p4557
ag5
asV\uc774\uc2a4\ud2b8\uc18c\ud504\ud2b8
p4558
(lp4559
S'047560'
p4560
aVKOSDAQ:047560
p4561
ag5
asV\uad11\ud76c\ub9ac\uce20
p4562
(lp4563
S'140910'
p4564
aVKRX:140910
p4565
ag10
asV\uc82c\ubc31\uc2a4
p4566
(lp4567
S'082270'
p4568
aVKOSDAQ:082270
p4569
ag5
asV\ucf54\uc624\ub871
p4570
(lp4571
S'002020'
p4572
aVKRX:002020
p4573
ag10
asV\ub125\uc2a4\ud2b8\ub9ac\ubc0d
p4574
(lp4575
S'139670'
p4576
aVKOSDAQ:139670
p4577
ag5
asVTJ\ubbf8\ub514\uc5b4
p4578
(lp4579
S'032540'
p4580
aVKOSDAQ:032540
p4581
ag5
asV\ud30c\uc138\ucf54
p4582
(lp4583
S'037070'
p4584
aVKOSDAQ:037070
p4585
ag5
asV\ud544\ub8e9\uc2a4
p4586
(lp4587
S'033180'
p4588
aVKRX:033180
p4589
ag10
asV\ub300\uc6d0\ubbf8\ub514\uc5b4
p4590
(lp4591
S'048910'
p4592
aVKOSDAQ:048910
p4593
ag5
asV\ud14c\ub77c\uc820\uc774\ud14d\uc2a4
p4594
(lp4595
S'066700'
p4596
aVKOSDAQ:066700
p4597
ag5
asV\ubc29\ub9bc
p4598
(lp4599
S'003610'
p4600
aVKRX:003610
p4601
ag10
asV\uc9c4\uc591\uc0b0\uc5c5
p4602
(lp4603
S'003780'
p4604
aVKRX:003780
p4605
ag10
asV\ub300\uc6b0\ubd80\ud488
p4606
(lp4607
S'009320'
p4608
aVKRX:009320
p4609
ag10
asV\uba54\ub9ac\uce20\uc885\uae08\uc99d\uad8c
p4610
(lp4611
S'008560'
p4612
aVKRX:008560
p4613
ag10
asV\ud30c\ub77c\ud14d
p4614
(lp4615
S'033540'
p4616
aVKOSDAQ:033540
p4617
ag5
asV\uc0bc\ubaa9\uac15\uc5c5
p4618
(lp4619
S'158380'
p4620
aVKOSDAQ:158380
p4621
ag5
asV\uace8\ub4e0\ube0c\ub9bf\uc9c0\uc99d\uad8c
p4622
(lp4623
S'001290'
p4624
aVKRX:001290
p4625
ag10
asV\uc138\ud654\uc544\uc774\uc5e0\uc528
p4626
(lp4627
S'145210'
p4628
aVKRX:145210
p4629
ag10
asV\ub300\uc815\ud654\uae08
p4630
(lp4631
S'120240'
p4632
aVKOSDAQ:120240
p4633
ag5
asV\uc778\ud3ec\ud53c\uc544
p4634
(lp4635
S'036220'
p4636
aVKOSDAQ:036220
p4637
ag5
asV\uc528\uc528\uc5d0\uc2a4
p4638
(lp4639
S'066790'
p4640
aVKOSDAQ:066790
p4641
ag5
asV\uc18c\ud504\ud2b8\ud3ec\ub7fc
p4642
(lp4643
S'054920'
p4644
aVKOSDAQ:054920
p4645
ag5
asV\uc81c\uc774\ucf58\ud150\ud2b8\ub9ac
p4646
(lp4647
S'036420'
p4648
aVKOSDAQ:036420
p4649
ag5
asV\ud55c\uc77c\uc2dc\uba58\ud2b8
p4650
(lp4651
S'003300'
p4652
aVKRX:003300
p4653
ag10
asV\uc6b0\ub9ac\ub4e4\uc81c\uc57d
p4654
(lp4655
S'004720'
p4656
aVKRX:004720
p4657
ag10
asVSK\ucef4\uc988
p4658
(lp4659
S'066270'
p4660
aVKOSDAQ:066270
p4661
ag5
asV\ub300\uc6b0\uc778\ud130\ub0b4\uc154\ub110
p4662
(lp4663
S'047050'
p4664
aVKRX:047050
p4665
ag10
asVKEC
p4666
(lp4667
S'092220'
p4668
aVKRX:092220
p4669
ag10
asV\uc774\uae40\ud504\ub85c\ub355\uc158
p4670
(lp4671
S'210120'
p4672
aFnan
ag34
asV\uac00\ud76c
p4673
(lp4674
S'030270'
p4675
aVKOSDAQ:030270
p4676
ag5
asV\uc778\ud130\ub85c\uc870
p4677
(lp4678
S'119610'
p4679
aVKOSDAQ:119610
p4680
ag5
asV\uc544\ub0a8\uc804\uc790
p4681
(lp4682
S'008700'
p4683
aVKRX:008700
p4684
ag10
asV\ucf54\ud504\ub77c
p4685
(lp4686
S'126600'
p4687
aVKOSDAQ:126600
p4688
ag5
asV\ub355\uc131
p4689
(lp4690
S'004830'
p4691
aVKRX:004830
p4692
ag10
asV\uc2e0\ud48d\uc81c\uc9c0
p4693
(lp4694
S'002870'
p4695
aVKRX:002870
p4696
ag10
asV\ub3d9\uc544\uc3d8\uc2dc\uc624\ud640\ub529\uc2a4
p4697
(lp4698
S'000640'
p4699
aVKRX:000640
p4700
ag10
asV\uace0\ub824\ud3ec\ub9ac\uba38
p4701
(lp4702
S'009810'
p4703
aVKRX:009810
p4704
ag10
asV\uc778\ud130\ud30c\ud06c
p4705
(lp4706
S'108790'
p4707
aVKOSDAQ:108790
p4708
ag5
asV\ud55c\ud654\uc5d0\uc774\uc2a4\uc2a4\ud3291\ud638
p4709
(lp4710
S'214680'
p4711
aVKOSDAQ:214680
p4712
ag5
asV\ud154\ucf58
p4713
(lp4714
S'200230'
p4715
aVKOSDAQ:200230
p4716
ag5
asV\uc0c1\uc2e0\ube0c\ub808\uc774\ud06c
p4717
(lp4718
S'041650'
p4719
aVKRX:041650
p4720
ag10
asV\ubd80\uc0b0\ubc29\uc9c1
p4721
(lp4722
S'025270'
p4723
aVKOSDAQ:025270
p4724
ag5
asV\ud55c\uad6d\ud14c\ud06c\ub180\ub85c\uc9c0
p4725
(lp4726
S'053590'
p4727
aVKOSDAQ:053590
p4728
ag5
asV\uc720\ub098\uc774\ud2f0\ub4dc
p4729
(lp4730
S'033270'
p4731
aVKRX:033270
p4732
ag10
asV\ub300\ub3d9\uc804\uc790
p4733
(lp4734
S'008110'
p4735
aVKRX:008110
p4736
ag10
asV\uacbd\ub3d9\uc81c\uc57d
p4737
(lp4738
S'011040'
p4739
aVKOSDAQ:011040
p4740
ag5
asV\ud504\ub85c\ud14d
p4741
(lp4742
S'053610'
p4743
aVKOSDAQ:053610
p4744
ag5
asV\uc544\ubc14\ud14d
p4745
(lp4746
S'149950'
p4747
aVKOSDAQ:149950
p4748
ag5
asV\ud53c\uc5d8\uc5d0\uc774
p4749
(lp4750
S'082390'
p4751
aVKOSDAQ:082390
p4752
ag5
asV\uc81c\ubbf8\ub2c8\ud22c\uc790
p4753
(lp4754
S'019570'
p4755
aVKOSDAQ:019570
p4756
ag5
asV\uc131\ubb38\uc804\uc790
p4757
(lp4758
S'014910'
p4759
aVKRX:014910
p4760
ag10
asV\uc544\ub0a8\uc815\ubcf4\uae30\uc220
p4761
(lp4762
S'050320'
p4763
aVKOSDAQ:050320
p4764
ag5
asV\ud06c\ub85c\ubc14\ud558\uc774\ud14d
p4765
(lp4766
S'043590'
p4767
aVKOSDAQ:043590
p4768
ag5
asV\ubc14\ub2e4\ub85c19\ud638
p4769
(lp4770
S'155900'
p4771
aVKRX:155900
p4772
ag10
asV\uc774\uc5e0\ucf54\ub9ac\uc544
p4773
(lp4774
S'095190'
p4775
aVKOSDAQ:095190
p4776
ag5
asV\ub450\uc0b0\uc5d4\uc9c4
p4777
(lp4778
S'082740'
p4779
aVKRX:082740
p4780
ag10
asV\ub300\uacbd\uae30\uacc4\uae30\uc220
p4781
(lp4782
S'015590'
p4783
aVKRX:015590
p4784
ag10
asVSBS\ucf58\ud150\uce20\ud5c8\ube0c
p4785
(lp4786
S'046140'
p4787
aVKOSDAQ:046140
p4788
ag5
asV\ub514\uc820\uc2a4
p4789
(lp4790
S'113810'
p4791
aVKOSDAQ:113810
p4792
ag5
asV\uc778\ud130\ud30c\ud06c\ud640\ub529\uc2a4
p4793
(lp4794
S'035080'
p4795
aVKOSDAQ:035080
p4796
ag5
asV\ucc28\ubc14\uc774\uc624\ud14d
p4797
(lp4798
S'085660'
p4799
aVKOSDAQ:085660
p4800
ag5
asV\ub3c4\ub808\uc774\ucf00\ubbf8\uce7c
p4801
(lp4802
S'008000'
p4803
aVKRX:008000
p4804
ag10
asV\uacbd\ubd09
p4805
(lp4806
S'139050'
p4807
aVKOSDAQ:139050
p4808
ag5
asV\uc131\uad11\ubca4\ub4dc
p4809
(lp4810
S'014620'
p4811
aVKOSDAQ:014620
p4812
ag5
asV\uc138\uc6d0\uc140\ub860\ud14d
p4813
(lp4814
S'091090'
p4815
aVKRX:091090
p4816
ag10
asV\uc2a4\ud2f8\ud50c\ub77c\uc6cc
p4817
(lp4818
S'087220'
p4819
aVKOSDAQ:087220
p4820
ag5
asV\ucf64\ud14d\uc2dc\uc2a4\ud15c
p4821
(lp4822
S'031820'
p4823
aVKRX:031820
p4824
ag10
asV\ub3d9\uc544\ud0c0\uc774\uc5b4\uacf5\uc5c5
p4825
(lp4826
S'007340'
p4827
aVKRX:007340
p4828
ag10
asV\uc774\uc6d0\ucef4\ud3ec\ud14d
p4829
(lp4830
S'088290'
p4831
aVKOSDAQ:088290
p4832
ag5
asV\ud30c\uc774\uc624\ub9c1\ud06c
p4833
(lp4834
S'170790'
p4835
aVKOSDAQ:170790
p4836
ag5
asV\uc0bc\ud638\uac1c\ubc1c
p4837
(lp4838
S'010960'
p4839
aVKRX:010960
p4840
ag10
asV\uae00\ub85c\ubc8c\uc5d0\uc2a4\uc5e0
p4841
(lp4842
S'900070'
p4843
aVKOSDAQ:900070
p4844
ag5
asV\ub514\uc5d0\uc774\ud53c
p4845
(lp4846
S'066900'
p4847
aVKOSDAQ:066900
p4848
ag5
asV\ud558\uce20
p4849
(lp4850
S'066130'
p4851
aVKOSDAQ:066130
p4852
ag5
asV\ub514\ud53c\uc528
p4853
(lp4854
S'026890'
p4855
aVKRX:026890
p4856
ag10
asV\uc54c\uc5d0\ud504\uc138\ubbf8
p4857
(lp4858
S'096610'
p4859
aVKOSDAQ:096610
p4860
ag5
asV\ud61c\uc778
p4861
(lp4862
S'003010'
p4863
aVKRX:003010
p4864
ag10
asV\ub124\uc774\ucc98\uc140
p4865
(lp4866
S'007390'
p4867
aVKOSDAQ:007390
p4868
ag5
asV\ub3d9\ub0a8\ud569\uc131
p4869
(lp4870
S'023450'
p4871
aVKRX:023450
p4872
ag10
asV\ud654\uc2b9\uc54c\uc564\uc5d0\uc774
p4873
(lp4874
S'013520'
p4875
aVKRX:013520
p4876
ag10
asV\ub300\ub3d9\uace0\ub824\uc0bc
p4877
(lp4878
S'178600'
p4879
aFnan
ag34
asV\uc774\ubca0\uc2a4\ud2b8\uc2a4\ud3292\ud638
p4880
(lp4881
S'217600'
p4882
aVKOSDAQ:217600
p4883
ag5
asV\ud558\ub098\uae08\uc735\uc9c0\uc8fc
p4884
(lp4885
S'086790'
p4886
aVKRX:086790
p4887
ag10
asV\uc774\ub514
p4888
(lp4889
S'033110'
p4890
aVKOSDAQ:033110
p4891
ag5
asV\uc5d0\uc2a4\uc5d4\ud53c\uc81c\ub124\ud2f1\uc2a4
p4892
(lp4893
S'086460'
p4894
aFnan
ag34
asV\ud55c\ub77cIMS
p4895
(lp4896
S'092460'
p4897
aVKOSDAQ:092460
p4898
ag5
asV\uc528\uc544\uc774\ud14c\ud06c
p4899
(lp4900
S'004920'
p4901
aVKRX:004920
p4902
ag10
asV\ub300\uad50
p4903
(lp4904
S'019680'
p4905
aVKRX:019680
p4906
ag10
asV\ub3d9\ubd80\uc81c\ucca0
p4907
(lp4908
S'016380'
p4909
aVKRX:016380
p4910
ag10
asV\uad11\ub3d9\uc81c\uc57d
p4911
(lp4912
S'009290'
p4913
aVKRX:009290
p4914
ag10
asV\ub514\uc2a4\ud50c\ub808\uc774\ud14d
p4915
(lp4916
S'066670'
p4917
aVKOSDAQ:066670
p4918
ag5
asV\uc6b0\ub9ac\ub85c
p4919
(lp4920
S'046970'
p4921
aVKOSDAQ:046970
p4922
ag5
asV\uc131\uc6b0\ud14c\ud06c\ub860
p4923
(lp4924
S'045300'
p4925
aVKOSDAQ:045300
p4926
ag5
asV\uc544\uc774\uc528\ucf00\uc774
p4927
(lp4928
S'068940'
p4929
aVKOSDAQ:068940
p4930
ag5
asV\uc2e0\uc131\uc5d0\ud504\uc5d0\uc774
p4931
(lp4932
S'104120'
p4933
aVKRX:104120
p4934
ag10
asV\uc5d0\ud504\uc54c\ud14d
p4935
(lp4936
S'073540'
p4937
aVKOSDAQ:073540
p4938
ag5
asVLG\uc774\ub178\ud14d
p4939
(lp4940
S'011070'
p4941
aVKRX:011070
p4942
ag10
asV\uc5d8\uc5e0\uc5d0\uc2a4
p4943
(lp4944
S'073110'
p4945
aVKOSDAQ:073110
p4946
ag5
asV\ud55c\uc775\uc2a4\ud504\ub808\uc2a4
p4947
(lp4948
S'014130'
p4949
aVKRX:014130
p4950
ag10
asVSKC
p4951
(lp4952
S'011790'
p4953
aVKRX:011790
p4954
ag10
asV\uc815\ub2e4\uc6b4
p4955
(lp4956
S'224090'
p4957
aFnan
ag34
asV\ud55c\uad6d\uac00\uad6c
p4958
(lp4959
S'004590'
p4960
aVKOSDAQ:004590
p4961
ag5
asV\uae30\uc5c5\uc740\ud589
p4962
(lp4963
S'024110'
p4964
aVKRX:024110
p4965
ag10
asV\uc138\ubc29\uc804\uc9c0
p4966
(lp4967
S'004490'
p4968
aVKRX:004490
p4969
ag10
asV\ud55c\ud654MGI\uc2a4\ud329
p4970
(lp4971
S'215380'
p4972
aVKOSDAQ:215380
p4973
ag5
asV\uc2a4\ud3ec\uce20\uc11c\uc6b8
p4974
(lp4975
S'039670'
p4976
aVKOSDAQ:039670
p4977
ag5
asV\uc138\uc911
p4978
(lp4979
S'039310'
p4980
aVKOSDAQ:039310
p4981
ag5
asV\ub300\ub9bc\uc81c\uc9c0
p4982
(lp4983
S'017650'
p4984
aVKOSDAQ:017650
p4985
ag5
asV\ub098\ub178\uc2e0\uc18c\uc7ac
p4986
(lp4987
S'121600'
p4988
aVKOSDAQ:121600
p4989
ag5
asV\ubbf8\ub798\uc5d0\uc14b\uc99d\uad8c
p4990
(lp4991
S'037620'
p4992
aVKRX:037620
p4993
ag10
asV\ub86f\ub370\uad00\uad11\uac1c\ubc1c
p4994
(lp4995
S'032350'
p4996
aVKRX:032350
p4997
ag10
asV\uace0\ub824\uc81c\uc57d
p4998
(lp4999
S'014570'
p5000
aVKOSDAQ:014570
p5001
ag5
asV\ubca0\ub9ac\ud0c0\uc2a4
p5002
(lp5003
S'019660'
p5004
aVKOSDAQ:019660
p5005
ag5
asV\uc5d0\ub4c0\ubc15\uc2a4
p5006
(lp5007
S'035290'
p5008
aVKOSDAQ:035290
p5009
ag5
asV\uc5d0\uc2a4\ud2f0\uc544\uc774
p5010
(lp5011
S'039440'
p5012
aVKOSDAQ:039440
p5013
ag5
asVGKL
p5014
(lp5015
S'114090'
p5016
aVKRX:114090
p5017
ag10
asV\ucf00\uc774\uc528\ud2f0\uc2dc
p5018
(lp5019
S'009070'
p5020
aVKRX:009070
p5021
ag10
asV\ub2e4\ub098\uc640
p5022
(lp5023
S'119860'
p5024
aVKOSDAQ:119860
p5025
ag5
asV\uc5d4\uc5d0\uc774\uce58\uc2a4\ud3297\ud638
p5026
(lp5027
S'217810'
p5028
aVKOSDAQ:217810
p5029
ag5
asV\ub300\ud55c\uc81c\ub2f9
p5030
(lp5031
S'001790'
p5032
aVKRX:001790
p5033
ag10
asV\ub9e4\uc9c1\ub9c8\uc774\ud06c\ub85c
p5034
(lp5035
S'127160'
p5036
aFnan
ag34
asV\ub3d9\uc6d0\uc2dc\uc2a4\ud15c\uc988
p5037
(lp5038
S'014820'
p5039
aVKRX:014820
p5040
ag10
asVLIG\uc778\ubca0\ub2c8\uc544
p5041
(lp5042
S'079950'
p5043
aVKOSDAQ:079950
p5044
ag5
asV\ub300\ud55c\uc57d\ud488
p5045
(lp5046
S'023910'
p5047
aVKOSDAQ:023910
p5048
ag5
asV\ud0a4\uc6c0\uc99d\uad8c
p5049
(lp5050
S'039490'
p5051
aVKRX:039490
p5052
ag10
asV\uc6b0\uc9c4\ud50c\ub77c\uc784
p5053
(lp5054
S'049800'
p5055
aVKRX:049800
p5056
ag10
asV\uc6d0\uc77c\ud2b9\uac15
p5057
(lp5058
S'012620'
p5059
aVKOSDAQ:012620
p5060
ag5
asV\uad6d\ub3c4\ud654\ud559
p5061
(lp5062
S'007690'
p5063
aVKRX:007690
p5064
ag10
asV\ud604\ub300\ucc28
p5065
g3746
sV\uc77c\uc131\uac74\uc124
p5066
(lp5067
S'013360'
p5068
aVKRX:013360
p5069
ag10
asV\uc544\ud2f0\uc2a4
p5070
(lp5071
S'101140'
p5072
aVKRX:101140
p5073
ag10
asV\uc9c0\uc5d4\uc528\uc5d0\ub108\uc9c0
p5074
(lp5075
S'119850'
p5076
aVKOSDAQ:119850
p5077
ag5
asV\ud55c\uc804\uae30\uc220
p5078
(lp5079
S'052690'
p5080
aVKRX:052690
p5081
ag10
asV\uc624\ub9ac\ucf64
p5082
(lp5083
S'010470'
p5084
aVKOSDAQ:010470
p5085
ag5
asV\ubbf8\ub798\ub098\ub178\ud14d
p5086
(lp5087
S'095500'
p5088
aVKOSDAQ:095500
p5089
ag5
asV\uc624\uc774\uc194\ub8e8\uc158
p5090
(lp5091
S'138080'
p5092
aVKOSDAQ:138080
p5093
ag5
asV\ub125\uc13c\ud0c0\uc774\uc5b4
p5094
(lp5095
S'002350'
p5096
aVKRX:002350
p5097
ag10
asV\uc2e0\uc591
p5098
(lp5099
S'086830'
p5100
aVKOSDAQ:086830
p5101
ag5
asV\ud53c\ub378\ub9ad\uc2a4
p5102
(lp5103
S'032580'
p5104
aVKOSDAQ:032580
p5105
ag5
asV\ub4dc\ub9bc\ud2f0\uc5d4\ud130\ud14c\uc778\uba3c\ud2b8
p5106
(lp5107
S'220110'
p5108
aFnan
ag34
asV\ub300\ucc3d
p5109
(lp5110
S'012800'
p5111
aVKRX:012800
p5112
ag10
asV\uacbd\ub0a8\uc2a4\ud2f8
p5113
(lp5114
S'039240'
p5115
aVKOSDAQ:039240
p5116
ag5
asV\uc720\uc544\uc774\ub514
p5117
(lp5118
S'069330'
p5119
aVKOSDAQ:069330
p5120
ag5
asVOCI\uba38\ud2f0\ub9ac\uc5bc\uc988
p5121
(lp5122
S'036490'
p5123
aVKOSDAQ:036490
p5124
ag5
asV\uc544\ud050\ud53d\uc2a4
p5125
(lp5126
S'056730'
p5127
aVKOSDAQ:056730
p5128
ag5
asV\ucf00\uc774\uc5d0\uc2a4\uc528\ube44
p5129
(lp5130
S'065940'
p5131
aVKOSDAQ:065940
p5132
ag5
asV\ud558\uc774\uace8\ub4dc8\ud638
p5133
(lp5134
S'159650'
p5135
aVKRX:159650
p5136
ag10
asV\ub3d9\ubd80\ub77c\uc774\ud14d
p5137
(lp5138
S'045890'
p5139
aVKOSDAQ:045890
p5140
ag5
asV\uc544\uc774\ucef4\ud3ec\ub10c\ud2b8
p5141
(lp5142
S'059100'
p5143
aVKOSDAQ:059100
p5144
ag5
asV\uc720\uc591\ub514\uc564\uc720
p5145
(lp5146
S'011690'
p5147
aVKRX:011690
p5148
ag10
asV\ud604\ub300\ud648\uc1fc\ud551
p5149
(lp5150
S'057050'
p5151
aVKRX:057050
p5152
ag10
asV\ud55c\ud654\uc5d0\uc774\uc2a4\uc2a4\ud3292\ud638
p5153
(lp5154
S'219860'
p5155
aVKOSDAQ:219860
p5156
ag5
asVJW\ud640\ub529\uc2a4
p5157
(lp5158
S'096760'
p5159
aVKRX:096760
p5160
ag10
asV\uc5d0\ub9ac\ud2b8\ubca0\uc774\uc9c1
p5161
(lp5162
S'093240'
p5163
aVKRX:093240
p5164
ag10
asV\ud55c\uad6d\uc815\ubc00\uae30\uacc4
p5165
(lp5166
S'101680'
p5167
aVKOSDAQ:101680
p5168
ag5
asV\ub2a5\ub960\uad50\uc721
p5169
(lp5170
S'053290'
p5171
aVKOSDAQ:053290
p5172
ag5
asV\uc5d0\uc2a4\ub9e5
p5173
(lp5174
S'097780'
p5175
aVKOSDAQ:097780
p5176
ag5
asV\ub2e4\ubbc8\uba40\ud2f0\ubbf8\ub514\uc5b4
p5177
(lp5178
S'093640'
p5179
aVKOSDAQ:093640
p5180
ag5
asV\uc544\uc774\uc13c\uc2a4
p5181
(lp5182
S'099190'
p5183
aVKOSDAQ:099190
p5184
ag5
asV\ud654\uc778\ubca0\uc2a4\ud2f8
p5185
(lp5186
S'133820'
p5187
aVKRX:133820
p5188
ag10
asV\ub354\ubca0\uc774\uc9c1\ud558\uc6b0\uc2a4
p5189
(lp5190
S'084870'
p5191
aVKRX:084870
p5192
ag10
asV\ub125\uc2a4\ud2b8\uce69
p5193
(lp5194
S'092600'
p5195
aVKOSDAQ:092600
p5196
ag5
asV\ub3d9\ud654\uc57d\ud488
p5197
(lp5198
S'000020'
p5199
aVKRX:000020
p5200
ag10
asV\ucf54\ub80c
p5201
(lp5202
S'078650'
p5203
aVKOSDAQ:078650
p5204
ag5
asV\ud14c\uace0\uc0ac\uc774\uc5b8\uc2a4
p5205
(lp5206
S'191420'
p5207
aVKOSDAQ:191420
p5208
ag5
asVKG\ucf00\ubbf8\uce7c
p5209
(lp5210
S'001390'
p5211
aVKRX:001390
p5212
ag10
asV\uc0ac\uc870\uc528\ud478\ub4dc
p5213
(lp5214
S'014710'
p5215
aVKRX:014710
p5216
ag10
asV\ub124\uc774\ube14\ucee4\ubba4\ub2c8\ucf00\uc774\uc158\uc988
p5217
(lp5218
S'153460'
p5219
aVKOSDAQ:153460
p5220
ag5
asV\uc544\ubaa8\ub808\ud37c\uc2dc\ud53d\uadf8\ub8f9
p5221
(lp5222
S'002790'
p5223
aVKRX:002790
p5224
ag10
asV\ub85c\ucf13\ubaa8\ubc14\uc77c
p5225
(lp5226
S'043710'
p5227
aVKOSDAQ:043710
p5228
ag5
asV\uc18c\ud504\ud2b8\ucea0\ud504
p5229
(lp5230
S'210610'
p5231
aFnan
ag34
asV\ucf54\ub9ac\uc54403\ud638
p5232
(lp5233
S'090990'
p5234
aVKRX:090990
p5235
ag10
asV\ubaa8\ubc14\uc77c\ub9ac\ub354
p5236
(lp5237
S'100030'
p5238
aVKOSDAQ:100030
p5239
ag5
asV\ud604\ub300\uae00\ub85c\ube44\uc2a4
p5240
(lp5241
S'086280'
p5242
aVKRX:086280
p5243
ag10
asVCJ E&M
p5244
(lp5245
S'130960'
p5246
aVKOSDAQ:130960
p5247
ag5
asV\uba54\uac00\uc2a4\ud130\ub514
p5248
(lp5249
S'072870'
p5250
aVKOSDAQ:072870
p5251
ag5
asV\uad50\ubcf43\ud638\uc2a4\ud329
p5252
(lp5253
S'208710'
p5254
aVKOSDAQ:208710
p5255
ag5
asV\ud0dc\uc591\uae30\uacc4
p5256
(lp5257
S'116100'
p5258
aFnan
ag34
asV\ub300\uc6b0\uc2a4\ud3293\ud638
p5259
(lp5260
S'215580'
p5261
aVKOSDAQ:215580
p5262
ag5
asV\ub300\uc6b0\uac74\uc124
p5263
(lp5264
S'047040'
p5265
aVKRX:047040
p5266
ag10
asV\uc5d0\uc2a4\uc564\uc5d0\uc2a4\ud14d
p5267
(lp5268
S'101490'
p5269
aVKOSDAQ:101490
p5270
ag5
asV\uc720\ube44\ucffc\uc2a4
p5271
(lp5272
S'078070'
p5273
aVKOSDAQ:078070
p5274
ag5
asV\uc2e0\uc6b0
p5275
(lp5276
S'025620'
p5277
aVKRX:025620
p5278
ag10
asV\ud504\ub809\ucf54
p5279
(lp5280
S'082220'
p5281
aFnan
ag34
asV\ub2e4\ub9b0
p5282
(lp5283
S'204690'
p5284
aFnan
ag34
asVS&K\ud3f4\ub9ac\ud14d
p5285
(lp5286
S'091340'
p5287
aVKOSDAQ:091340
p5288
ag5
asV\uc7ac\uc601\uc194\ub8e8\ud14d
p5289
(lp5290
S'049630'
p5291
aVKOSDAQ:049630
p5292
ag5
asV\uc640\uc774\ube44\ub85c\ub4dc
p5293
(lp5294
S'010600'
p5295
aVKRX:010600
p5296
ag10
asV\ub3d9\ubc29\uc120\uae30
p5297
(lp5298
S'099410'
p5299
aVKOSDAQ:099410
p5300
ag5
asV\uc5d0\uc774\uce58\uc5d8\ube44
p5301
(lp5302
S'028300'
p5303
aVKOSDAQ:028300
p5304
ag5
asV\ucf54\uc6d0
p5305
(lp5306
S'056000'
p5307
aVKOSDAQ:056000
p5308
ag5
asV\ud2f0\ube0c\uc774\ub85c\uc9c1
p5309
(lp5310
S'121800'
p5311
aVKOSDAQ:121800
p5312
ag5
asV\ub3d9\uc77c\uace0\ubb34\ubca8\ud2b8
p5313
(lp5314
S'163560'
p5315
aVKRX:163560
p5316
ag10
asV\ud604\ub300\uc885\ud569\uc0c1\uc0ac
p5317
(lp5318
S'011760'
p5319
aVKRX:011760
p5320
ag10
asV\ub514\uc5d4\uc5d0\ud504
p5321
(lp5322
S'092070'
p5323
aVKOSDAQ:092070
p5324
ag5
asV\uc5d8\ucef4\ud14d
p5325
(lp5326
S'037950'
p5327
aVKOSDAQ:037950
p5328
ag5
asV\uc81c\uc77c\uc81c\uac15
p5329
(lp5330
S'023440'
p5331
aVKOSDAQ:023440
p5332
ag5
asV\ud55c\uad6d\uc218\ucd9c\ud3ec\uc7a5\uacf5\uc5c5
p5333
(lp5334
S'002200'
p5335
aVKRX:002200
p5336
ag10
asV\uc5d4\uc5d0\uc2a4\ube0c\uc774
p5337
(lp5338
S'095300'
p5339
aVKOSDAQ:095300
p5340
ag5
asV\uc5d0\uc774\ud14d
p5341
(lp5342
S'045660'
p5343
aVKOSDAQ:045660
p5344
ag5
asV\ub125\uc2a8\uc9c0\ud2f0
p5345
(lp5346
S'041140'
p5347
aVKOSDAQ:041140
p5348
ag5
asV\ud55c\uc77c\uc9c4\uacf5
p5349
(lp5350
S'123840'
p5351
aVKOSDAQ:123840
p5352
ag5
asV\uc0bc\uc601\uc774\uc5d4\uc528
p5353
(lp5354
S'065570'
p5355
aVKOSDAQ:065570
p5356
ag5
asV\ud734\uc2a4\ud2f8
p5357
(lp5358
S'005010'
p5359
aVKRX:005010
p5360
ag10
asV\ub9c8\ub2c8\ucee4
p5361
(lp5362
S'027740'
p5363
aVKRX:027740
p5364
ag10
asV\ud398\uc774\ud37c\ucf54\ub9ac\uc544
p5365
(lp5366
S'001020'
p5367
aVKRX:001020
p5368
ag10
asV\ubc14\ub978\uc190
p5369
(lp5370
S'018700'
p5371
aVKOSDAQ:018700
p5372
ag5
asV\ud558\ub098\ud22c\uc5b4
p5373
(lp5374
S'039130'
p5375
aVKRX:039130
p5376
ag10
asV\ud50c\ub808\uc774\uc704\ub4dc
p5377
(lp5378
S'023770'
p5379
aVKOSDAQ:023770
p5380
ag5
asV\uc2e0\uc6d0
p5381
(lp5382
S'009270'
p5383
aVKRX:009270
p5384
ag10
asV\uc120\uad11
p5385
(lp5386
S'003100'
p5387
aVKOSDAQ:003100
p5388
ag5
asV\ub300\uc6d0\uc804\uc120
p5389
(lp5390
S'006340'
p5391
aVKRX:006340
p5392
ag10
asV\uc528\uc564\ube44\ud14d
p5393
(lp5394
S'086200'
p5395
aVKOSDAQ:086200
p5396
ag5
asV\uc5d0\ud504\uc5d4\uc528\uc5d4\ud130
p5397
(lp5398
S'173940'
p5399
aVKOSDAQ:173940
p5400
ag5
asV\uc0bc\uc131SDI
p5401
(lp5402
S'006400'
p5403
aVKRX:006400
p5404
ag10
asV\uc0bc\ud654\uc804\uc790\uacf5\uc5c5
p5405
(lp5406
S'011230'
p5407
aVKRX:011230
p5408
ag10
asV\uc0bc\uc131\uc5d4\uc9c0\ub2c8\uc5b4\ub9c1
p5409
(lp5410
S'028050'
p5411
aVKRX:028050
p5412
ag10
asV\uc528\uc774\ub7a9
p5413
(lp5414
S'189330'
p5415
aFnan
ag34
asV\ub450\uc0b0\uc911\uacf5\uc5c5
p5416
(lp5417
S'034020'
p5418
aVKRX:034020
p5419
ag10
asV\uc0bc\uc131\uc804\uae30
p5420
(lp5421
S'009150'
p5422
aVKRX:009150
p5423
ag10
asV\uc5d0\ub125\uc2a4
p5424
(lp5425
S'011090'
p5426
aVKRX:011090
p5427
ag10
asV\uc5d8\ube44\uc138\ubbf8\ucf58
p5428
(lp5429
S'061970'
p5430
aVKOSDAQ:061970
p5431
ag5
asV\uc624\ud0a8\uc2a4\uc804\uc790
p5432
(lp5433
S'080580'
p5434
aVKOSDAQ:080580
p5435
ag5
asV\uc720\uc9c4\uc99d\uad8c
p5436
(lp5437
S'001200'
p5438
aVKRX:001200
p5439
ag10
asV\ub124\ud328\uc2a4\uc2e0\uc18c\uc7ac
p5440
(lp5441
S'087730'
p5442
aVKOSDAQ:087730
p5443
ag5
asV\uc704\uba54\uc774\ub4dc
p5444
(lp5445
S'112040'
p5446
aVKOSDAQ:112040
p5447
ag5
asV\uc2e0\uc77c\uc0b0\uc5c5
p5448
(lp5449
S'002700'
p5450
aVKRX:002700
p5451
ag10
asV\ucf00\uc774\ud2f0
p5452
(lp5453
S'030200'
p5454
aVKRX:030200
p5455
ag10
asV\ud30c\ub77c\ub2e4\uc774\uc2a4
p5456
(lp5457
S'034230'
p5458
aVKOSDAQ:034230
p5459
ag5
asV\ub098\ub178\uc2a4
p5460
(lp5461
S'151910'
p5462
aVKOSDAQ:151910
p5463
ag5
asV\uc774\ucf54\ub9ac\uc544\ub9ac\uce20
p5464
(lp5465
S'138440'
p5466
aVKRX:138440
p5467
ag10
asV\uc5d4\uc54c\ucf00\uc774
p5468
(lp5469
S'054340'
p5470
aVKOSDAQ:054340
p5471
ag5
asVDSR\uc81c\uac15
p5472
(lp5473
S'069730'
p5474
aVKRX:069730
p5475
ag10
asV\uc6c5\uc9c4
p5476
(lp5477
S'016880'
p5478
aVKRX:016880
p5479
ag10
asV\uc2e0\uc138\uacc4\uac74\uc124
p5480
(lp5481
S'034300'
p5482
aVKRX:034300
p5483
ag10
asV\uc5d0\uc2a4\uc81c\uc774\uc5e0\ud640\ub529\uc2a4
p5484
(lp5485
S'025530'
p5486
aVKRX:025530
p5487
ag10
asV\uc544\uc2dc\uc544\uc885\ubb18
p5488
(lp5489
S'154030'
p5490
aFnan
ag34
asV\uc820\ud2b8\ub85c
p5491
(lp5492
S'083660'
p5493
aVKOSDAQ:083660
p5494
ag5
asV\ubc94\uc591\uac74\uc601
p5495
(lp5496
S'002410'
p5497
aVKRX:002410
p5498
ag10
asV\uc138\uc544\ud2b9\uc218\uac15
p5499
(lp5500
S'019440'
p5501
aVKRX:019440
p5502
ag10
asV\ud765\uad6d\ud654\uc7ac
p5503
(lp5504
S'000540'
p5505
aVKRX:000540
p5506
ag10
asV\uc81c\ub180\ub8e8\uc158
p5507
(lp5508
S'225220'
p5509
aFnan
ag34
asV\ucf00\uc774\ud2f0\uc564\uc9c0
p5510
(lp5511
S'033780'
p5512
aVKRX:033780
p5513
ag10
asV\ud558\ub098\uc77c\ub809\ucf64
p5514
(lp5515
S'103650'
p5516
aFnan
ag34
asV\ucf54\uc624\ub871\uc778\ub354
p5517
(lp5518
S'120110'
p5519
aVKRX:120110
p5520
ag10
asV\ub355\uc2e0\ud558\uc6b0\uc9d5
p5521
(lp5522
S'090410'
p5523
aVKOSDAQ:090410
p5524
ag5
asV\uc774\ub2c8\ud14d
p5525
(lp5526
S'053350'
p5527
aVKOSDAQ:053350
p5528
ag5
asV\ub514\uc640\uc774
p5529
(lp5530
S'013570'
p5531
aVKRX:013570
p5532
ag10
asV\ube44\uc544\ud2b8\ub860
p5533
(lp5534
S'141000'
p5535
aVKOSDAQ:141000
p5536
ag5
asV\ubbf8\ub798\uc5d0\uc14b\uc81c4\ud638\uc2a4\ud329
p5537
(lp5538
S'222420'
p5539
aVKOSDAQ:222420
p5540
ag5
asV\uc6d0\uc775
p5541
(lp5542
S'032940'
p5543
aVKOSDAQ:032940
p5544
ag5
asV\ub514\ud2f0\uc564\uc528
p5545
(lp5546
S'187220'
p5547
aVKOSDAQ:187220
p5548
ag5
asV\uc2a4\ub9e5
p5549
(lp5550
S'099440'
p5551
aVKOSDAQ:099440
p5552
ag5
asV\uba54\ud0c0\ubc14\uc774\uc624\uba54\ub4dc
p5553
(lp5554
S'059210'
p5555
aVKOSDAQ:059210
p5556
ag5
asV\uc544\uc774\ub514\uc2a4
p5557
(lp5558
S'143160'
p5559
aVKOSDAQ:143160
p5560
ag5
asVNEW
p5561
(lp5562
S'160550'
p5563
aVKOSDAQ:160550
p5564
ag5
asV\uc9c4\uc591\ud3f4\ub9ac\uc6b0\ub808\ud0c4
p5565
(lp5566
S'010640'
p5567
aVKRX:010640
p5568
ag10
asV\ucf54\uc624\ub871\uae00\ub85c\ubc8c
p5569
(lp5570
S'003070'
p5571
aVKRX:003070
p5572
ag10
asV\ud654\uc2e0
p5573
(lp5574
S'010690'
p5575
aVKRX:010690
p5576
ag10
asV\ub514\uc544\uc774
p5577
(lp5578
S'003160'
p5579
aVKRX:003160
p5580
ag10
asV\uc54c\uc5d4\ud22c\ud14c\ud06c\ub180\ub85c\uc9c0
p5581
(lp5582
S'148250'
p5583
aFnan
ag34
asVSBI\uc561\uc2dc\uc988
p5584
(lp5585
S'950110'
p5586
aVKOSDAQ:950110
p5587
ag5
asV\ub9f5\uc2a4\ub9ac\uc5bc\ud2f01
p5588
(lp5589
S'094800'
p5590
aVKRX:094800
p5591
ag10
asV\uc601\ud48d\uc81c\uc9c0
p5592
(lp5593
S'006740'
p5594
aVKRX:006740
p5595
ag10
asV\ubb38\ubc30\ucca0\uac15
p5596
(lp5597
S'008420'
p5598
aVKRX:008420
p5599
ag10
asV\uc138\ud638\ub85c\ubcf4\ud2b8
p5600
(lp5601
S'158310'
p5602
aVKOSDAQ:158310
p5603
ag5
asV\uc81c\uc774\uc528\ud604\uc2dc\uc2a4\ud15c
p5604
(lp5605
S'033320'
p5606
aVKOSDAQ:033320
p5607
ag5
asV\uc11c\ud765
p5608
(lp5609
S'008490'
p5610
aVKRX:008490
p5611
ag10
asV\ub300\uc591\uae08\uc18d
p5612
(lp5613
S'009190'
p5614
aVKRX:009190
p5615
ag10
asV\uc0bc\ubcf4\ubaa8\ud130\uc2a4
p5616
(lp5617
S'053700'
p5618
aVKOSDAQ:053700
p5619
ag5
asV\uc81c\uc774\uc5e0\uc544\uc774
p5620
(lp5621
S'033050'
p5622
aVKOSDAQ:033050
p5623
ag5
asV\ud1a0\ud0c8\uc18c\ud504\ud2b8
p5624
(lp5625
S'045340'
p5626
aVKOSDAQ:045340
p5627
ag5
asV\ud720\ub77c\ucf54\ub9ac\uc544
p5628
(lp5629
S'081660'
p5630
aVKRX:081660
p5631
ag10
asV\uc194\ubcf8
p5632
(lp5633
S'035610'
p5634
aVKOSDAQ:035610
p5635
ag5
asV\ud2b8\ub8e8\uc708
p5636
(lp5637
S'105550'
p5638
aVKOSDAQ:105550
p5639
ag5
asV\uc544\ud504\ub9ac\uce74TV
p5640
(lp5641
S'067160'
p5642
aVKOSDAQ:067160
p5643
ag5
asV\uc708\ud558\uc774\ud14d
p5644
(lp5645
S'192390'
p5646
aVKOSDAQ:192390
p5647
ag5
asV\ud0dc\ub9bc\ud3ec\uc7a5\uacf5\uc5c5
p5648
(lp5649
S'011280'
p5650
aVKRX:011280
p5651
ag10
asV\ud55c\uc131\uae30\uc5c5
p5652
(lp5653
S'003680'
p5654
aVKRX:003680
p5655
ag10
asV\ub3d9\ubc29
p5656
(lp5657
S'004140'
p5658
aVKRX:004140
p5659
ag10
asV\ud55c\ucc3d\uc81c\uc9c0
p5660
(lp5661
S'009460'
p5662
aVKRX:009460
p5663
ag10
asV\ub514\uc5d0\uc774\uce58\ud53c\ucf54\ub9ac\uc544
p5664
(lp5665
S'131030'
p5666
aVKOSDAQ:131030
p5667
ag5
asV\ubd80\uc0b0\ub3c4\uc2dc\uac00\uc2a4
p5668
(lp5669
S'015350'
p5670
aVKRX:015350
p5671
ag10
asV\uccad\ub2f4\ub7ec\ub2dd
p5672
(lp5673
S'096240'
p5674
aVKOSDAQ:096240
p5675
ag5
asV\ud0a4\uc2a4\ud1a4\uae00\ub85c\ubc8c
p5676
(lp5677
S'012170'
p5678
aVKRX:012170
p5679
ag10
asV\ub0a8\ud574\ud654\ud559
p5680
(lp5681
S'025860'
p5682
aVKRX:025860
p5683
ag10
asV\ub3d9\uc591\ucca0\uad00
p5684
(lp5685
S'008970'
p5686
aVKRX:008970
p5687
ag10
asV\uc11c\uc554\uae30\uacc4\uacf5\uc5c5
p5688
(lp5689
S'100660'
p5690
aVKOSDAQ:100660
p5691
ag5
asV\ub3d9\ubd81\uc54410\ud638\uc120\ubc15\ud22c\uc790
p5692
(lp5693
S'083350'
p5694
aVKRX:083350
p5695
ag10
asV\ucf54\ub9ac\uc54402\ud638
p5696
(lp5697
S'090980'
p5698
aVKRX:090980
p5699
ag10
asV\uc81c\ub2c9
p5700
(lp5701
S'123330'
p5702
aVKOSDAQ:123330
p5703
ag5
asV\uc0bc\ucc9c\ub2f9\uc81c\uc57d
p5704
(lp5705
S'000250'
p5706
aVKOSDAQ:000250
p5707
ag5
asV\ub4c0\ucf10\ubc14\uc774\uc624
p5708
(lp5709
S'176750'
p5710
aFnan
ag34
asV\ub450\uc62c\uc0b0\uc5c5
p5711
(lp5712
S'078590'
p5713
aVKOSDAQ:078590
p5714
ag5
asV\uc0d8\ud45c\uc2dd\ud488
p5715
(lp5716
S'007540'
p5717
aVKRX:007540
p5718
ag10
asV\ud55c\ud654\uc190\ud574\ubcf4\ud5d8
p5719
(lp5720
S'000370'
p5721
aVKRX:000370
p5722
ag10
asV\ub514\uc5e0\uc528
p5723
(lp5724
S'101000'
p5725
aVKOSDAQ:101000
p5726
ag5
asVCJ\uc81c\uc77c\uc81c\ub2f9
p5727
(lp5728
S'097950'
p5729
aVKRX:097950
p5730
ag10
asV\uc0bc\uc6d0\uac15\uc7ac
p5731
(lp5732
S'023000'
p5733
aVKRX:023000
p5734
ag10
asV\uc138\uc9c4\ud2f0\uc5d0\uc2a4
p5735
(lp5736
S'067770'
p5737
aVKOSDAQ:067770
p5738
ag5
asV\ub85c\ubcf4\uc2a4\ud0c0
p5739
(lp5740
S'090360'
p5741
aVKOSDAQ:090360
p5742
ag5
asV\ucf00\uc774\ube44\uc81c8\ud638\uc2a4\ud329
p5743
(lp5744
S'222390'
p5745
aVKOSDAQ:222390
p5746
ag5
asV\uc9c4\uc131\ud2f0\uc774\uc528
p5747
(lp5748
S'036890'
p5749
aVKOSDAQ:036890
p5750
ag5
asV\uc720\ube44\ubca8\ub85d\uc2a4
p5751
(lp5752
S'089850'
p5753
aVKOSDAQ:089850
p5754
ag5
asV\uc528\ud2f0\ub124\ud2b8\uc6cd\uc2a4
p5755
(lp5756
S'189540'
p5757
aFnan
ag34
asV\uc1a1\uc6d0\uc0b0\uc5c5
p5758
(lp5759
S'004430'
p5760
aVKRX:004430
p5761
ag10
asVKGP
p5762
(lp5763
S'109070'
p5764
aVKRX:109070
p5765
ag10
asV\uc870\uc774\uc2dc\ud2f0
p5766
(lp5767
S'067000'
p5768
aVKOSDAQ:067000
p5769
ag5
asV\uc720\uc6d0\ucef4\ud14d
p5770
(lp5771
S'036500'
p5772
aVKOSDAQ:036500
p5773
ag5
asV\ub300\ud55c\ud654\uc12c
p5774
(lp5775
S'003830'
p5776
aVKRX:003830
p5777
ag10
asV\ud55c\uae00\uacfc\ucef4\ud4e8\ud130
p5778
(lp5779
S'030520'
p5780
aVKOSDAQ:030520
p5781
ag5
asV\uc720\ub2c8\ucf10
p5782
(lp5783
S'011330'
p5784
aVKRX:011330
p5785
ag10
asV\ud55c\uad6d\ud328\ub7ec\ub7a0
p5786
(lp5787
S'168490'
p5788
aVKRX:168490
p5789
ag10
asV\uc138\uc885\ud154\ub808\ucf64
p5790
(lp5791
S'036630'
p5792
aVKOSDAQ:036630
p5793
ag5
asVC&S\uc790\uc0b0\uad00\ub9ac
p5794
(lp5795
S'032040'
p5796
aVKOSDAQ:032040
p5797
ag5
asV\uc778\ud130\uc9c0\uc2a4
p5798
(lp5799
S'129260'
p5800
aVKRX:129260
p5801
ag10
asV\ud0dc\ud3c9\uc591\ubb3c\uc0b0
p5802
(lp5803
S'007980'
p5804
aVKRX:007980
p5805
ag10
asV\uc131\uc6b0\ud558\uc774\ud14d
p5806
(lp5807
S'015750'
p5808
aVKOSDAQ:015750
p5809
ag5
asV\ucf54\ud06c\ub81915\ud638
p5810
(lp5811
S'121550'
p5812
aVKRX:121550
p5813
ag10
asV\uc5d4\uc5d0\uc2a4\uc1fc\ud551
p5814
(lp5815
S'138250'
p5816
aVKRX:138250
p5817
ag10
asV\ub300\uc8fc\uc0b0\uc5c5
p5818
(lp5819
S'003310'
p5820
aVKOSDAQ:003310
p5821
ag5
asV\ud3ec\uc2a4\ucf54\uac15\ud310
p5822
(lp5823
S'058430'
p5824
aVKRX:058430
p5825
ag10
asV\ud48d\uc0b0\ud640\ub529\uc2a4
p5826
(lp5827
S'005810'
p5828
aVKRX:005810
p5829
ag10
asV\ucf00\uc774\uc528\ud14d
p5830
(lp5831
S'029460'
p5832
aVKRX:029460
p5833
ag10
asV\ubc14\uc774\uc624\uc2a4\ub9c8\ud2b8
p5834
(lp5835
S'038460'
p5836
aVKOSDAQ:038460
p5837
ag5
asV\uc0bc\uc9c4\uc81c\uc57d
p5838
(lp5839
S'005500'
p5840
aVKRX:005500
p5841
ag10
asV\ud55c\ud654\uac24\ub7ec\ub9ac\uc544\ud0c0\uc784\uc6d4\ub4dc
p5842
(lp5843
S'027390'
p5844
aVKRX:027390
p5845
ag10
asV\uc6b0\uc131\uc0ac\ub8cc
p5846
(lp5847
S'006980'
p5848
aVKRX:006980
p5849
ag10
asVAJ\ub80c\ud130\uce74
p5850
(lp5851
S'068400'
p5852
aVKRX:068400
p5853
ag10
asV\uc5d0\uba38\uc2a8\ud37c\uc2dc\ud53d
p5854
(lp5855
S'025980'
p5856
aVKOSDAQ:025980
p5857
ag5
asVKPX\uadf8\ub9b0\ucf00\ubbf8\uce7c
p5858
(lp5859
S'083420'
p5860
aVKRX:083420
p5861
ag10
asV\ub300\ud55c\ub274\ud31c
p5862
(lp5863
S'054670'
p5864
aVKOSDAQ:054670
p5865
ag5
asV\ud37c\uc2a4\ud14d
p5866
(lp5867
S'010820'
p5868
aVKRX:010820
p5869
ag10
asV\ub450\uc0b0
p5870
(lp5871
S'000150'
p5872
aVKRX:000150
p5873
ag10
asV\uc2dc\ud050\ube0c
p5874
(lp5875
S'131090'
p5876
aVKOSDAQ:131090
p5877
ag5
asVSBS
p5878
(lp5879
S'034120'
p5880
aVKRX:034120
p5881
ag10
asV\ub125\uc2a4\ud134
p5882
(lp5883
S'089140'
p5884
aVKOSDAQ:089140
p5885
ag5
asV\uce74\ud504\ub85c
p5886
(lp5887
S'006380'
p5888
aVKRX:006380
p5889
ag10
asV\ub300\ud55c\ud56d\uacf5
p5890
(lp5891
S'003490'
p5892
aVKRX:003490
p5893
ag10
asV\ub3d9\uc544\ud654\uc131
p5894
(lp5895
S'041930'
p5896
aVKOSDAQ:041930
p5897
ag5
asV\uba54\ub514\uc544\ub098
p5898
(lp5899
S'041920'
p5900
aVKOSDAQ:041920
p5901
ag5
asV\ud55c\uc591\uc774\uc5d4\uc9c0
p5902
(lp5903
S'045100'
p5904
aVKOSDAQ:045100
p5905
ag5
asV\uc5d0\ucf54\uc5d0\ub108\uc9c0
p5906
(lp5907
S'038870'
p5908
aVKOSDAQ:038870
p5909
ag5
asV\uc5d0\uc774\uc2a4\ud14c\ud06c
p5910
(lp5911
S'088800'
p5912
aVKOSDAQ:088800
p5913
ag5
asV\ud3ec\uc2a4\ucf54
p5914
(lp5915
S'005490'
p5916
aVKRX:005490
p5917
ag10
asV\ud0d1\uc5d4\uc9c0\ub2c8\uc5b4\ub9c1
p5918
(lp5919
S'065130'
p5920
aVKOSDAQ:065130
p5921
ag5
asV\uba54\ub9ac\uce20\uae08\uc735\uc9c0\uc8fc
p5922
(lp5923
S'138040'
p5924
aVKRX:138040
p5925
ag10
asV\ud14c\ud06c\uc719
p5926
(lp5927
S'089030'
p5928
aVKOSDAQ:089030
p5929
ag5
asV\ub3d9\uc591\ubb3c\uc0b0\uae30\uc5c5
p5930
(lp5931
S'002900'
p5932
aVKRX:002900
p5933
ag10
asV3S
p5934
(lp5935
S'060310'
p5936
aVKOSDAQ:060310
p5937
ag5
asV\uc774\uc218\ud398\ud0c0\uc2dc\uc2a4
p5938
(lp5939
S'007660'
p5940
aVKRX:007660
p5941
ag10
asV\ucf54\uc704\ubc84
p5942
(lp5943
S'056360'
p5944
aVKOSDAQ:056360
p5945
ag5
asV\uc5d0\uc2a4\uc564\ub354\ube14\ub958
p5946
(lp5947
S'103230'
p5948
aVKOSDAQ:103230
p5949
ag5
asV\ubc31\uad11\uc0b0\uc5c5
p5950
(lp5951
S'001340'
p5952
aVKRX:001340
p5953
ag10
asV\ud310\ub3c4\ub77c\ud2f0\ube44
p5954
(lp5955
S'202960'
p5956
aFnan
ag34
asV\uac24\ub7ed\uc2dc\uc544\ucef4\uc988
p5957
(lp5958
S'094480'
p5959
aVKOSDAQ:094480
p5960
ag5
asV\ub3d9\uc591\uc0dd\uba85
p5961
(lp5962
S'082640'
p5963
aVKRX:082640
p5964
ag10
asV\ud32c\uc624\uc158
p5965
(lp5966
S'028670'
p5967
aVKRX:028670
p5968
ag10
asV\ub3d9\ubd80\uc99d\uad8c
p5969
(lp5970
S'016610'
p5971
aVKRX:016610
p5972
ag10
asV\ud55c\uad6d\ud654\uc7a5\ud488
p5973
(lp5974
S'123690'
p5975
aVKRX:123690
p5976
ag10
asV\uacbd\ubcf4\uc81c\uc57d
p5977
(lp5978
S'214390'
p5979
aVKRX:214390
p5980
ag10
asV\ud6a8\uc131
p5981
(lp5982
S'004800'
p5983
aVKRX:004800
p5984
ag10
asV\ub300\ud55c\uc720\ud654
p5985
(lp5986
S'006650'
p5987
aVKRX:006650
p5988
ag10
asV\uc720\ud55c\uc591\ud589
p5989
(lp5990
S'000100'
p5991
aVKRX:000100
p5992
ag10
asV\uc2e0\ub3c4\ub9ac\ucf54
p5993
(lp5994
S'029530'
p5995
aVKRX:029530
p5996
ag10
asV\uc5d1\uc2dc\ucf58
p5997
(lp5998
S'092870'
p5999
aFnan
ag34
asV\ud558\uc774\ube44\uc83c\uc2dc\uc2a4\ud15c
p6000
(lp6001
S'126700'
p6002
aVKOSDAQ:126700
p6003
ag5
asV\uad50\ubcf4\uc99d\uad8c
p6004
(lp6005
S'030610'
p6006
aVKRX:030610
p6007
ag10
asViMBC
p6008
(lp6009
S'052220'
p6010
aVKOSDAQ:052220
p6011
ag5
asV\uae08\ud638\uc11d\uc720\ud654\ud559
p6012
(lp6013
S'011780'
p6014
aVKRX:011780
p6015
ag10
asV\ud765\uc544\ud574\uc6b4
p6016
(lp6017
S'003280'
p6018
aVKRX:003280
p6019
ag10
asV\ud55c\ub3c5
p6020
(lp6021
S'002390'
p6022
aVKRX:002390
p6023
ag10
asV\uc870\uad11ILI
p6024
(lp6025
S'044060'
p6026
aVKOSDAQ:044060
p6027
ag5
asV\ud0d1\uae08\uc18d
p6028
(lp6029
S'019770'
p6030
aVKOSDAQ:019770
p6031
ag5
asV\uacbd\ub3d9\ub098\ube44\uc5d4
p6032
(lp6033
S'009450'
p6034
aVKRX:009450
p6035
ag10
asV\ucf54\uc624\ub871\ud50c\ub77c\uc2a4\ud2f1
p6036
(lp6037
S'138490'
p6038
aVKRX:138490
p6039
ag10
asV\uc6b0\uc804\uc564\ud55c\ub2e8
p6040
(lp6041
S'052270'
p6042
aVKOSDAQ:052270
p6043
ag5
asV\ucf54\ubbf8\ud31c
p6044
(lp6045
S'041960'
p6046
aVKOSDAQ:041960
p6047
ag5
asV\ub300\ud55c\uc804\uc120
p6048
(lp6049
S'001440'
p6050
aVKRX:001440
p6051
ag10
asV\ub9ac\ucf10
p6052
(lp6053
S'131100'
p6054
aVKOSDAQ:131100
p6055
ag5
asV\ucf54\uc624\ub871\uc0dd\uba85\uacfc\ud559
p6056
(lp6057
S'102940'
p6058
aVKOSDAQ:102940
p6059
ag5
asV\uc0bc\uc601\uc804\uc790\uacf5\uc5c5
p6060
(lp6061
S'005680'
p6062
aVKRX:005680
p6063
ag10
asV\ub274\uc778\ud14d
p6064
(lp6065
S'012340'
p6066
aVKOSDAQ:012340
p6067
ag5
asV\ubc14\ub978\uc190\uc774\uc564\uc5d0\uc774
p6068
(lp6069
S'035620'
p6070
aVKOSDAQ:035620
p6071
ag5
asV\uc36c\ucf54\uc5b4
p6072
(lp6073
S'051170'
p6074
aVKOSDAQ:051170
p6075
ag5
asV\ud55c\ud654\ud654\uc778\ucf00\ubbf8\uce7c
p6076
(lp6077
S'025850'
p6078
aVKRX:025850
p6079
ag10
asV\uc18c\ud504\ud2b8\uc13c
p6080
(lp6081
S'032680'
p6082
aVKOSDAQ:032680
p6083
ag5
asV\uce69\uc2a4\uc564\ubbf8\ub514\uc5b4
p6084
(lp6085
S'094360'
p6086
aVKOSDAQ:094360
p6087
ag5
asV\ud3f4\ub9ac\ube44\uc804
p6088
(lp6089
S'032980'
p6090
aVKOSDAQ:032980
p6091
ag5
asV\ub3d9\ubc29\uc544\uadf8\ub85c
p6092
(lp6093
S'007590'
p6094
aVKRX:007590
p6095
ag10
asV\uc0bc\ubd80\ud1a0\uac74
p6096
(lp6097
S'001470'
p6098
aVKRX:001470
p6099
ag10
asV\ucf00\uc774\ube44\uc81c5\ud638\uc2a4\ud329
p6100
(lp6101
S'208350'
p6102
aVKOSDAQ:208350
p6103
ag5
asV\ud604\uc6b0\uc0b0\uc5c5
p6104
(lp6105
S'092300'
p6106
aVKOSDAQ:092300
p6107
ag5
asV\ud0dc\uc6c5
p6108
(lp6109
S'044490'
p6110
aVKOSDAQ:044490
p6111
ag5
asV\ud55c\uad6d\uc0ac\uc774\ubc84\uacb0\uc81c
p6112
(lp6113
S'060250'
p6114
aVKOSDAQ:060250
p6115
ag5
asV\uc5d0\uc774\ud14c\ud06c\uc194\ub8e8\uc158
p6116
(lp6117
S'071670'
p6118
aVKOSDAQ:071670
p6119
ag5
asV\uad6d\ubcf4\ub514\uc790\uc778
p6120
(lp6121
S'066620'
p6122
aVKOSDAQ:066620
p6123
ag5
asV\ud604\ub300\ud398\uc778\ud2b8
p6124
(lp6125
S'011720'
p6126
aVKRX:011720
p6127
ag10
asV\ub204\ub9ac\ud154\ub808\ucf64
p6128
(lp6129
S'040160'
p6130
aVKOSDAQ:040160
p6131
ag5
asV\ucf00\uc774\ube44\uc81c6\ud638\uc2a4\ud329
p6132
(lp6133
S'208640'
p6134
aVKOSDAQ:208640
p6135
ag5
asV\uc601\ud765\ucca0\uac15
p6136
(lp6137
S'012160'
p6138
aVKRX:012160
p6139
ag10
asV\ub355\uc591\uc0b0\uc5c5
p6140
(lp6141
S'024900'
p6142
aVKRX:024900
p6143
ag10
asV\uc81c\ub125\uc2e0
p6144
(lp6145
S'095700'
p6146
aVKOSDAQ:095700
p6147
ag5
asV\uc624\ub9ac\uc5d4\ud0c8\uc815\uacf5
p6148
(lp6149
S'014940'
p6150
aVKOSDAQ:014940
p6151
ag5
asV\ubbfc\uc564\uc9c0
p6152
(lp6153
S'214180'
p6154
aVKOSDAQ:214180
p6155
ag5
asV\uc544\ubbf8\ucf54\uc820
p6156
(lp6157
S'092040'
p6158
aVKOSDAQ:092040
p6159
ag5
asV\ubbf8\ub798\ucef4\ud37c\ub2c8
p6160
(lp6161
S'049950'
p6162
aVKOSDAQ:049950
p6163
ag5
asV\uc0bc\ud604\ucca0\uac15
p6164
(lp6165
S'017480'
p6166
aVKOSDAQ:017480
p6167
ag5
asV\uc544\uc2a4\ud2b8
p6168
(lp6169
S'067390'
p6170
aVKOSDAQ:067390
p6171
ag5
asV\uc5d0\uc774\uce58\ucf00\uc774
p6172
(lp6173
S'044780'
p6174
aVKOSDAQ:044780
p6175
ag5
asV\ud31c\uc2a4\ucf54
p6176
(lp6177
S'036580'
p6178
aVKRX:036580
p6179
ag10
asV\uc5d4\ud2f0\ud53c\uc544
p6180
(lp6181
S'068150'
p6182
aVKOSDAQ:068150
p6183
ag5
asV\ud55c\uad6d\uc804\ub825
p6184
(lp6185
S'015760'
p6186
aVKRX:015760
p6187
ag10
asV\ud604\ub300\uc5d0\uc774\ube14\uc2a4\ud3291\ud638
p6188
(lp6189
S'204760'
p6190
aVKOSDAQ:204760
p6191
ag5
asV\uc778\ucc9c\ub3c4\uc2dc\uac00\uc2a4
p6192
(lp6193
S'034590'
p6194
aVKRX:034590
p6195
ag10
asV\uc0bc\uc544\uc81c\uc57d
p6196
(lp6197
S'009300'
p6198
aVKOSDAQ:009300
p6199
ag5
asVYW
p6200
(lp6201
S'051390'
p6202
aVKOSDAQ:051390
p6203
ag5
asV\uc2e0\ub77c\uad50\uc5ed
p6204
(lp6205
S'004970'
p6206
aVKRX:004970
p6207
ag10
asV\uc18c\ud504\ud2b8\ub9e5\uc2a4
p6208
(lp6209
S'052190'
p6210
aVKOSDAQ:052190
p6211
ag5
asV\uace0\ub824\uac1c\ubc1c
p6212
(lp6213
S'004200'
p6214
aVKRX:004200
p6215
ag10
asV\ub9ac\ud648\ucfe0\uccb8
p6216
(lp6217
S'014470'
p6218
aVKOSDAQ:014470
p6219
ag5
asV\uc720\ub2c8\uc148
p6220
(lp6221
S'036200'
p6222
aVKOSDAQ:036200
p6223
ag5
asV\ub18d\uc6b0\ubc14\uc774\uc624
p6224
(lp6225
S'054050'
p6226
aVKOSDAQ:054050
p6227
ag5
asV\ud55c\uc591\ub514\uc9c0\ud14d
p6228
(lp6229
S'078350'
p6230
aVKOSDAQ:078350
p6231
ag5
asV\ub3d9\uc591\ud53c\uc5d4\uc5d0\ud504
p6232
(lp6233
S'104460'
p6234
aVKOSDAQ:104460
p6235
ag5
asV\ucc9c\uc77c\uace0\uc18d
p6236
(lp6237
S'000650'
p6238
aVKRX:000650
p6239
ag10
asV\ub300\uc0c1
p6240
(lp6241
S'001680'
p6242
aVKRX:001680
p6243
ag10
asVKTH
p6244
(lp6245
S'036030'
p6246
aVKOSDAQ:036030
p6247
ag5
asV\ud55c\uad6d\ud1a0\uc9c0\uc2e0\ud0c1
p6248
(lp6249
S'034830'
p6250
aVKOSDAQ:034830
p6251
ag5
asV\uc544\uc2dc\uc544\ud37c\uc2dc\ud53d13\ud638
p6252
(lp6253
S'083600'
p6254
aVKRX:083600
p6255
ag10
asV\ud1a0\ub2c8\ubaa8\ub9ac
p6256
(lp6257
S'214420'
p6258
aVKRX:214420
p6259
ag10
asV\ub124\uc624\uc704\uc988\ud640\ub529\uc2a4
p6260
(lp6261
S'042420'
p6262
aVKOSDAQ:042420
p6263
ag5
asVSKC\ucf54\uc624\ub871PI
p6264
(lp6265
S'178920'
p6266
aVKOSDAQ:178920
p6267
ag5
asV\ub514\uc9c0\ud2c0\uc870\uc120
p6268
(lp6269
S'033130'
p6270
aVKOSDAQ:033130
p6271
ag5
asV\uc5b4\ubcf4\ube0c\ubc18\ub3c4\uccb4
p6272
(lp6273
S'102120'
p6274
aVKOSDAQ:102120
p6275
ag5
asV\uc77c\uc9c4\uba38\ud2f0\ub9ac\uc5bc\uc988
p6276
(lp6277
S'020150'
p6278
aVKRX:020150
p6279
ag10
asVKB\uc624\ud1a0\uc2dc\uc2a4
p6280
(lp6281
S'024120'
p6282
aVKOSDAQ:024120
p6283
ag5
asV\uacbd\ub0a8\uc81c\uc57d
p6284
(lp6285
S'053950'
p6286
aVKOSDAQ:053950
p6287
ag5
asV\ud0dc\uc591
p6288
(lp6289
S'053620'
p6290
aVKOSDAQ:053620
p6291
ag5
asV\uc6d0\ud48d
p6292
(lp6293
S'008370'
p6294
aVKOSDAQ:008370
p6295
ag5
asV\ud558\ub098\uba38\uc2a4\ud2b84\ud638\uc2a4\ud329
p6296
(lp6297
S'215100'
p6298
aVKOSDAQ:215100
p6299
ag5
asV\uc870\uc544\uc81c\uc57d
p6300
(lp6301
S'034940'
p6302
aVKOSDAQ:034940
p6303
ag5
asV\ud050\uc5e0\uc528
p6304
(lp6305
S'136660'
p6306
aFnan
ag34
asV\ub125\uc2a4\ud2b8\uc544\uc774
p6307
(lp6308
S'137940'
p6309
aVKOSDAQ:137940
p6310
ag5
asV\uc720\ub77c\ud14c\ud06c
p6311
(lp6312
S'048430'
p6313
aVKOSDAQ:048430
p6314
ag5
asV\ud478\ub978\uae30\uc220
p6315
(lp6316
S'094940'
p6317
aVKOSDAQ:094940
p6318
ag5
asV\uc774\ub178\uce69
p6319
(lp6320
S'080420'
p6321
aVKOSDAQ:080420
p6322
ag5
asV\uc624\ub514\ud14d
p6323
(lp6324
S'080520'
p6325
aVKOSDAQ:080520
p6326
ag5
asV\uc774\uc2a4\ud0c0\ucf54
p6327
(lp6328
S'015020'
p6329
aVKRX:015020
p6330
ag10
asVBNK\uae08\uc735\uc9c0\uc8fc
p6331
(lp6332
S'138930'
p6333
aVKRX:138930
p6334
ag10
asV\ud55c\uad6d\ub2e8\uc790\uacf5\uc5c5
p6335
(lp6336
S'025540'
p6337
aVKRX:025540
p6338
ag10
asV\ub2c9\uc2a4\ud14c\ud06c
p6339
(lp6340
S'063840'
p6341
aFnan
ag34
asV\uc2e0\uc131\uc194\ub77c\uc5d0\ub108\uc9c0
p6342
(lp6343
S'011930'
p6344
aVKRX:011930
p6345
ag10
asV\ud604\ub300\uc911\uacf5\uc5c5
p6346
(lp6347
S'009540'
p6348
aVKRX:009540
p6349
ag10
asV\ucf54\uc2a4\ubaa8\ud654\ud559
p6350
(lp6351
S'005420'
p6352
aVKRX:005420
p6353
ag10
asV\ube0c\ub9ac\uc9c0\ud14d
p6354
(lp6355
S'064480'
p6356
aVKOSDAQ:064480
p6357
ag5
asV\uc774\uc218\uc571\uc9c0\uc2a4
p6358
(lp6359
S'086890'
p6360
aVKOSDAQ:086890
p6361
ag5
asVHB\ud14c\ud06c\ub180\ub7ec\uc9c0
p6362
(lp6363
S'078150'
p6364
aVKOSDAQ:078150
p6365
ag5
asV\uad11\ub9bc
p6366
(lp6367
S'014200'
p6368
aVKOSDAQ:014200
p6369
ag5
asV\uc81c\uc77c\uae30\ud68d
p6370
(lp6371
S'030000'
p6372
aVKRX:030000
p6373
ag10
asV\uc720\ub2c8\uc2a8
p6374
(lp6375
S'018000'
p6376
aVKOSDAQ:018000
p6377
ag5
asV\uc5d4\uc5d0\uc2a4\ucef4\ud37c\ub2c8
p6378
(lp6379
S'224760'
p6380
aFnan
ag34
asV\ub204\ub9ac\ud50c\ub79c
p6381
(lp6382
S'069140'
p6383
aVKOSDAQ:069140
p6384
ag5
asV\uc5f0\uc774\uc815\ubcf4\ud1b5\uc2e0
p6385
(lp6386
S'090740'
p6387
aVKOSDAQ:090740
p6388
ag5
asV\uc140\ud2b8\ub9ac\uc628
p6389
(lp6390
S'068270'
p6391
aVKOSDAQ:068270
p6392
ag5
asV\ub300\uc131\ucc3d\ud22c
p6393
(lp6394
S'027830'
p6395
aVKOSDAQ:027830
p6396
ag5
asV\uc138\uc544\ubca0\uc2a4\ud2f8
p6397
(lp6398
S'001430'
p6399
aVKRX:001430
p6400
ag10
asV\ub098\ub77c\ucf00\uc774\uc544\uc774\uc528
p6401
(lp6402
S'007460'
p6403
aVKRX:007460
p6404
ag10
asV\ud55c\ub77c
p6405
(lp6406
S'014790'
p6407
aVKRX:014790
p6408
ag10
asV\ub124\ud328\uc2a4
p6409
(lp6410
S'033640'
p6411
aVKOSDAQ:033640
p6412
ag5
asV\ud53c\uc81c\uc774\uc804\uc790
p6413
(lp6414
S'006140'
p6415
aVKOSDAQ:006140
p6416
ag5
asV\uc720\uc131\ud2f0\uc5d4\uc5d0\uc2a4
p6417
(lp6418
S'024800'
p6419
aVKOSDAQ:024800
p6420
ag5
asV\uc778\uc131\uc815\ubcf4
p6421
(lp6422
S'033230'
p6423
aVKOSDAQ:033230
p6424
ag5
asVOCI
p6425
(lp6426
S'010060'
p6427
aVKRX:010060
p6428
ag10
asV\ube45\ud14d
p6429
(lp6430
S'065450'
p6431
aVKOSDAQ:065450
p6432
ag5
asV\ub3d9\uc6d0\uae08\uc18d
p6433
(lp6434
S'018500'
p6435
aVKRX:018500
p6436
ag10
asV\ud2f8\ub860
p6437
(lp6438
S'217880'
p6439
aFnan
ag34
asV\ud604\ub300\uc5d0\uc774\uce58\uc528\uc5d4
p6440
(lp6441
S'126560'
p6442
aVKRX:126560
p6443
ag10
asV\ub300\ud55c\ud574\uc6b4
p6444
(lp6445
S'005880'
p6446
aVKRX:005880
p6447
ag10
asV\uc528\uadf8\ub110\uc5d4\ud130\ud14c\uc778\uba3c\ud2b8\uadf8\ub8f9
p6448
(lp6449
S'099830'
p6450
aVKOSDAQ:099830
p6451
ag5
asV\ud2f0\uc5d0\uc2a4\uc774
p6452
(lp6453
S'131290'
p6454
aVKOSDAQ:131290
p6455
ag5
asV\uc9c4\ud765\uae30\uc5c5
p6456
(lp6457
S'002780'
p6458
aVKRX:002780
p6459
ag10
asV\ub098\ub77c\uc5e0\uc564\ub514
p6460
(lp6461
S'051490'
p6462
aVKOSDAQ:051490
p6463
ag5
asV\ub808\uace0\ucf10\ubc14\uc774\uc624
p6464
(lp6465
S'141080'
p6466
aVKOSDAQ:141080
p6467
ag5
asV\ud55c\uc194\ub125\uc2a4\uc9c0
p6468
(lp6469
S'081970'
p6470
aVKOSDAQ:081970
p6471
ag5
asV\uc81c\uc8fc\uc740\ud589
p6472
(lp6473
S'006220'
p6474
aVKRX:006220
p6475
ag10
asV\uc0bc\uc131\uce74\ub4dc
p6476
(lp6477
S'029780'
p6478
aVKRX:029780
p6479
ag10
asV\ud3a9\ud2b8\ub860
p6480
(lp6481
S'087010'
p6482
aVKOSDAQ:087010
p6483
ag5
asV\ud604\ub300\uc57d\ud488
p6484
(lp6485
S'004310'
p6486
aVKRX:004310
p6487
ag10
asV\uace0\ub824\uc544\uc5f0
p6488
(lp6489
S'010130'
p6490
aVKRX:010130
p6491
ag10
asV\ubb34\ub9bc\ud398\uc774\ud37c
p6492
(lp6493
S'009200'
p6494
aVKRX:009200
p6495
ag10
asV\ub4dc\ub798\uace4\ud50c\ub77c\uc774
p6496
(lp6497
S'030350'
p6498
aVKOSDAQ:030350
p6499
ag5
asV\uc218\ud504\ub85c
p6500
(lp6501
S'185190'
p6502
aFnan
ag34
asV\uc640\uc774\uc9c0-\uc6d0
p6503
(lp6504
S'019210'
p6505
aVKOSDAQ:019210
p6506
ag5
asV\ud55c\uc2a4\ubc14\uc774\uc624\uba54\ub4dc
p6507
(lp6508
S'042520'
p6509
aVKOSDAQ:042520
p6510
ag5
asV\ud55c\uad6d\uae08\uc735\uc9c0\uc8fc
p6511
(lp6512
S'071050'
p6513
aVKRX:071050
p6514
ag10
asV\ubbf8\ub798\uc5d0\uc14b\uc81c3\ud638\uc2a4\ud329
p6515
(lp6516
S'215750'
p6517
aVKOSDAQ:215750
p6518
ag5
asV\uc36c\ud14c\ud06c
p6519
(lp6520
S'217320'
p6521
aFnan
ag34
asV\uc0bc\uc131\uc911\uacf5\uc5c5
p6522
(lp6523
S'010140'
p6524
aVKRX:010140
p6525
ag10
asV\uc774\ud4e8\uccd0
p6526
(lp6527
S'134060'
p6528
aVKOSDAQ:134060
p6529
ag5
asV\uc911\uc559\uc624\uc158
p6530
(lp6531
S'054180'
p6532
aVKOSDAQ:054180
p6533
ag5
asV\ubbf8\uc6d0\uc0c1\uc0ac
p6534
(lp6535
S'002840'
p6536
aVKRX:002840
p6537
ag10
asV\uace0\ub824\ubc18\ub3c4\uccb4
p6538
(lp6539
S'089890'
p6540
aVKOSDAQ:089890
p6541
ag5
asV\uc5d8\uc564\ucf00\uc774\ubc14\uc774\uc624
p6542
(lp6543
S'156100'
p6544
aFnan
ag34
asV\uc911\uc559\uc5d0\ub108\ube44\uc2a4
p6545
(lp6546
S'000440'
p6547
aVKOSDAQ:000440
p6548
ag5
asV\uc778\ud2b8\ub85c\uba54\ub515
p6549
(lp6550
S'150840'
p6551
aVKOSDAQ:150840
p6552
ag5
asV\uc5d4\ud53c\uc528
p6553
(lp6554
S'004250'
p6555
aVKRX:004250
p6556
ag10
asV\ud30c\ub098\uc9c4
p6557
(lp6558
S'046210'
p6559
aVKOSDAQ:046210
p6560
ag5
asV\uc5d0\uc774\ud2f0\ub118\uc778\ubca0\uc2a4\ud2b8
p6561
(lp6562
S'021080'
p6563
aVKOSDAQ:021080
p6564
ag5
asV\ud604\uc9c4\uc18c\uc7ac
p6565
(lp6566
S'053660'
p6567
aVKOSDAQ:053660
p6568
ag5
asV\uc544\uc988\ud14dWB
p6569
(lp6570
S'032080'
p6571
aVKOSDAQ:032080
p6572
ag5
asVITX\uc2dc\ud050\ub9ac\ud2f0
p6573
(lp6574
S'099520'
p6575
aVKOSDAQ:099520
p6576
ag5
asV\ud55c\uad6d\uc804\uc790\uc778\uc99d
p6577
(lp6578
S'041460'
p6579
aVKOSDAQ:041460
p6580
ag5
asV\ub3d9\ud654\uae30\uc5c5
p6581
(lp6582
S'025900'
p6583
aVKOSDAQ:025900
p6584
ag5
asV\ud3ec\uc2a4\ucf54\ud50c\ub79c\ud14d
p6585
(lp6586
S'051310'
p6587
aVKRX:051310
p6588
ag10
asV\ud154\ub808\ud544\ub4dc
p6589
(lp6590
S'091440'
p6591
aVKOSDAQ:091440
p6592
ag5
asV\uc0bc\uc131\ud654\uc7ac\ud574\uc0c1\ubcf4\ud5d8
p6593
(lp6594
S'000810'
p6595
aVKRX:000810
p6596
ag10
asV\ud604\ub300\ub9ac\ubc14\ud2b8
p6597
(lp6598
S'079430'
p6599
aVKRX:079430
p6600
ag10
asV\uc2b9\ud654\ud504\ub9ac\ud14d
p6601
(lp6602
S'111610'
p6603
aVKOSDAQ:111610
p6604
ag5
asV\ub8e8\ubbf8\ub9c8\uc774\ud06c\ub85c
p6605
(lp6606
S'082800'
p6607
aVKOSDAQ:082800
p6608
ag5
asV\ucf54\uc2a4\uc628
p6609
(lp6610
S'069110'
p6611
aVKOSDAQ:069110
p6612
ag5
asV\ube44\uc544\uc774\uc774\uc5e0\ud2f0
p6613
(lp6614
S'052900'
p6615
aVKOSDAQ:052900
p6616
ag5
asV\uc2e0\ud654\uc778\ud130\ud14d
p6617
(lp6618
S'056700'
p6619
aVKOSDAQ:056700
p6620
ag5
asV\ud55c\uad6d\ud0c0\uc774\uc5b4
p6621
(lp6622
S'161390'
p6623
aVKRX:161390
p6624
ag10
asV\ud55c\ubbf8\ubc18\ub3c4\uccb4
p6625
(lp6626
S'042700'
p6627
aVKRX:042700
p6628
ag10
asV\ud55c\ud654
p6629
(lp6630
S'000880'
p6631
aVKRX:000880
p6632
ag10
asV\uc778\ud329
p6633
(lp6634
S'023810'
p6635
aVKRX:023810
p6636
ag10
asV\uc870\uad11\ud398\uc778\ud2b8
p6637
(lp6638
S'004910'
p6639
aVKRX:004910
p6640
ag10
asV\ubc14\uc774\uc624\ub79c\ub4dc
p6641
(lp6642
S'052260'
p6643
aVKOSDAQ:052260
p6644
ag5
asVSH\uc5d0\ub108\uc9c0\ud654\ud559
p6645
(lp6646
S'002360'
p6647
aVKRX:002360
p6648
ag10
asV\ud55c\ud654\ucf00\ubbf8\uce7c
p6649
(lp6650
S'009830'
p6651
aVKRX:009830
p6652
ag10
asV\uc81c\uc77c\uc5f0\ub9c8
p6653
(lp6654
S'001560'
p6655
aVKRX:001560
p6656
ag10
asV\uc601\ud48d\uc815\ubc00
p6657
(lp6658
S'036560'
p6659
aVKOSDAQ:036560
p6660
ag5
asV\uc774\ub77c\uc774\ucf64
p6661
(lp6662
S'041520'
p6663
aVKOSDAQ:041520
p6664
ag5
asV\uc544\ubaa8\ud14d
p6665
(lp6666
S'052710'
p6667
aVKOSDAQ:052710
p6668
ag5
asV\uc720\ub514\ud53c
p6669
(lp6670
S'091270'
p6671
aFnan
ag34
asV\uc138\uc6b0\ud14c\ud06c
p6672
(lp6673
S'096690'
p6674
aVKOSDAQ:096690
p6675
ag5
asV\uc9c4\uc6d0\uc0dd\uba85\uacfc\ud559
p6676
(lp6677
S'011000'
p6678
aVKRX:011000
p6679
ag10
asV\ub86f\ub370\ud478\ub4dc
p6680
(lp6681
S'002270'
p6682
aVKRX:002270
p6683
ag10
asV\uc9c0\ud2f0\uc9c0\uc6f0\ub2c8\uc2a4
p6684
(lp6685
S'219750'
p6686
aFnan
ag34
asV\ud3ec\uc2a4\ucf54\uc5e0\ud14d
p6687
(lp6688
S'009520'
p6689
aVKOSDAQ:009520
p6690
ag5
asV\ub9cc\ud638\uc81c\uac15
p6691
(lp6692
S'001080'
p6693
aVKRX:001080
p6694
ag10
asV\uc774\uc5d4\uc5d0\ud504\ud14c\ud06c\ub180\ub85c\uc9c0
p6695
(lp6696
S'102710'
p6697
aVKOSDAQ:102710
p6698
ag5
asV\uc9c4\ub3c4
p6699
(lp6700
S'088790'
p6701
aVKRX:088790
p6702
ag10
asV\uc544\uc2dc\uc544\ud37c\uc2dc\ud53d12\ud638
p6703
(lp6704
S'083590'
p6705
aVKRX:083590
p6706
ag10
asV\ub300\ud55c\uc81c\ubd84
p6707
(lp6708
S'001130'
p6709
aVKRX:001130
p6710
ag10
asV\uc0bc\ud654\uc655\uad00
p6711
(lp6712
S'004450'
p6713
aVKRX:004450
p6714
ag10
asV\uc81c\uc8fc\ubc18\ub3c4\uccb4
p6715
(lp6716
S'080220'
p6717
aVKOSDAQ:080220
p6718
ag5
asV\ub355\uc0b0\ub124\uc624\ub8e9\uc2a4
p6719
(lp6720
S'213420'
p6721
aVKOSDAQ:213420
p6722
ag5
asV\ud300\uc2a4
p6723
(lp6724
S'134790'
p6725
aVKRX:134790
p6726
ag10
asVCS\ud640\ub529\uc2a4
p6727
(lp6728
S'000590'
p6729
aVKRX:000590
p6730
ag10
asV\uc5d0\uc774\uc5d4\ud53c
p6731
(lp6732
S'015260'
p6733
aVKRX:015260
p6734
ag10
asV\ub355\uc0b0\ud558\uc774\uba54\ud0c8
p6735
(lp6736
S'077360'
p6737
aVKOSDAQ:077360
p6738
ag5
asV\uc0bc\ucc9c\ub9ac\uc790\uc804\uac70
p6739
(lp6740
S'024950'
p6741
aVKOSDAQ:024950
p6742
ag5
asV\ud53c\uc5d0\uc2a4\ucf00\uc774
p6743
(lp6744
S'031980'
p6745
aVKOSDAQ:031980
p6746
ag5
asV\ud2f0\ud53c\uc528\uae00\ub85c\ubc8c
p6747
(lp6748
S'130740'
p6749
aVKOSDAQ:130740
p6750
ag5
asV\ucc38\uc5d4\uc9c0\ub2c8\uc5b4\ub9c1
p6751
(lp6752
S'009310'
p6753
aVKRX:009310
p6754
ag10
asV\uc6d4\ub371\uc2a4
p6755
(lp6756
S'101160'
p6757
aVKOSDAQ:101160
p6758
ag5
asV\ubd80\uad6d\uc99d\uad8c
p6759
(lp6760
S'001270'
p6761
aVKRX:001270
p6762
ag10
asV\ub124\uc624\uc774\ub179\uc2a4\uc5d4\ubaa8\ud06c\uc2a4
p6763
(lp6764
S'037340'
p6765
aVKOSDAQ:037340
p6766
ag5
asV\uc6b0\ub9ac\uc870\uba85
p6767
(lp6768
S'037400'
p6769
aVKOSDAQ:037400
p6770
ag5
asV\ud37c\uc2dc\ud53d\ubc14\uc774\uc624
p6771
(lp6772
S'060900'
p6773
aVKOSDAQ:060900
p6774
ag5
asV\uc81c\ub85c\ud22c\uc138\ube10
p6775
(lp6776
S'159580'
p6777
aVKOSDAQ:159580
p6778
ag5
asV\uc544\uc2dc\uc544\ub098\ud56d\uacf5
p6779
(lp6780
S'020560'
p6781
aVKRX:020560
p6782
ag10
asV\uc81c\ub8e1\uc804\uae30
p6783
(lp6784
S'033100'
p6785
aVKOSDAQ:033100
p6786
ag5
asV\ub514\uc640\uc774\ud30c\uc6cc
p6787
(lp6788
S'210540'
p6789
aVKRX:210540
p6790
ag10
asV\ub808\ub4dc\ucea1\ud22c\uc5b4
p6791
(lp6792
S'038390'
p6793
aVKOSDAQ:038390
p6794
ag5
asV\ud654\uc2e0\uc815\uacf5
p6795
(lp6796
S'126640'
p6797
aVKOSDAQ:126640
p6798
ag5
asV\ub3c4\ud654\uc5d4\uc9c0\ub2c8\uc5b4\ub9c1
p6799
(lp6800
S'002150'
p6801
aVKRX:002150
p6802
ag10
asV\ucf00\uc774\uc528\ud53c\ub4dc
p6803
(lp6804
S'025880'
p6805
aVKOSDAQ:025880
p6806
ag5
asV\uc624\uc2a4\ud15c
p6807
(lp6808
S'031510'
p6809
aVKOSDAQ:031510
p6810
ag5
asV\ub2e4\uc6b0\uae30\uc220
p6811
(lp6812
S'023590'
p6813
aVKRX:023590
p6814
ag10
asV\ucf54\uc2a4\ubaa8\uc2e0\uc18c\uc7ac
p6815
(lp6816
S'005070'
p6817
aVKRX:005070
p6818
ag10
asV\uc640\uc774\uc5d4\ud14d
p6819
(lp6820
S'067900'
p6821
aVKOSDAQ:067900
p6822
ag5
asV\uc0ac\uc870\ud574\ud45c
p6823
(lp6824
S'079660'
p6825
aVKRX:079660
p6826
ag10
asV\uc774\ubbf8\uc9c0\uc2a4
p6827
(lp6828
S'115610'
p6829
aVKOSDAQ:115610
p6830
ag5
asV\uc0c8\ub85c\ub2c9\uc2a4
p6831
(lp6832
S'042600'
p6833
aVKOSDAQ:042600
p6834
ag5
asV\ud55c\uc591\ud558\uc774\ud0c0\uc624
p6835
(lp6836
S'064090'
p6837
aVKOSDAQ:064090
p6838
ag5
asV\ud654\uc9c4
p6839
(lp6840
S'134780'
p6841
aVKOSDAQ:134780
p6842
ag5
asV\uace0\ub824\uc2e0\uc6a9\uc815\ubcf4
p6843
(lp6844
S'049720'
p6845
aVKOSDAQ:049720
p6846
ag5
asV\uc774\uc6d4\ub4dc
p6847
(lp6848
S'084680'
p6849
aVKRX:084680
p6850
ag10
asV\ub514\ube44\ucf00\uc774
p6851
(lp6852
S'073190'
p6853
aVKOSDAQ:073190
p6854
ag5
asV\ub300\uc591\uc81c\uc9c0
p6855
(lp6856
S'006580'
p6857
aVKOSDAQ:006580
p6858
ag5
asV\uc190\uc624\uacf5
p6859
(lp6860
S'066910'
p6861
aVKOSDAQ:066910
p6862
ag5
asV\ub3d9\uc544\uc5d0\uc2a4\ud2f0
p6863
(lp6864
S'170900'
p6865
aVKRX:170900
p6866
ag10
asV\ud30c\uc778\ud14c\ud06c\ub2c9\uc2a4
p6867
(lp6868
S'106240'
p6869
aVKOSDAQ:106240
p6870
ag5
asV\uc138\ubbf8\ucf58\ub77c\uc774\ud2b8
p6871
(lp6872
S'214310'
p6873
aVKOSDAQ:214310
p6874
ag5
asV\ucf00\uc774\ud2f0\ub864
p6875
(lp6876
S'122800'
p6877
aVKOSDAQ:122800
p6878
ag5
asV\ub3d9\uc6d0\uc0b0\uc5c5
p6879
(lp6880
S'006040'
p6881
aVKRX:006040
p6882
ag10
asV\ub9c8\ud06c\ub85c\uc820
p6883
(lp6884
S'038290'
p6885
aVKOSDAQ:038290
p6886
ag5
asV\ub0b4\uce04\ub7f4\uc5d4\ub3c4\ud14d
p6887
(lp6888
S'168330'
p6889
aVKOSDAQ:168330
p6890
ag5
asV\ub8fd\ud22c\ucf54\ub9ac\uc544
p6891
(lp6892
S'060240'
p6893
aVKOSDAQ:060240
p6894
ag5
asV\ub300\ucc3d\ub2e8\uc870
p6895
(lp6896
S'015230'
p6897
aVKRX:015230
p6898
ag10
asV\uc624\ub9ac\uc628
p6899
(lp6900
S'001800'
p6901
aVKRX:001800
p6902
ag10
asV\uc54c\ub8e8\ucf54
p6903
(lp6904
S'001780'
p6905
aVKRX:001780
p6906
ag10
asV\ub86f\ub370\uc1fc\ud551
p6907
(lp6908
S'023530'
p6909
aVKRX:023530
p6910
ag10
asV\ud30c\uc218\ub2f7\ucef4
p6911
(lp6912
S'150900'
p6913
aVKOSDAQ:150900
p6914
ag5
asV\ucf00\uc774\ud0d1\ub9ac\uce20
p6915
(lp6916
S'145270'
p6917
aVKRX:145270
p6918
ag10
asV\ub300\ud638\uc5d0\uc774\uc5d8
p6919
(lp6920
S'069460'
p6921
aVKRX:069460
p6922
ag10
asV\uc120\ub3c4\uc804\uae30
p6923
(lp6924
S'007610'
p6925
aVKRX:007610
p6926
ag10
asV\ud55c\uad6d\uc804\ub825\uacf5\uc0ac
p6927
g6185
sV\ub300\uc8fc\uc804\uc790\uc7ac\ub8cc
p6928
(lp6929
S'078600'
p6930
aVKOSDAQ:078600
p6931
ag5
asV\uc720\uc218\ud640\ub529\uc2a4
p6932
(lp6933
S'000700'
p6934
aVKRX:000700
p6935
ag10
asV\uc81c\uc774\ud2f0
p6936
(lp6937
S'089790'
p6938
aVKOSDAQ:089790
p6939
ag5
asV\uc635\ud1a0\ud329
p6940
(lp6941
S'123010'
p6942
aFnan
ag34
asV\uc804\ud30c\uae30\uc9c0\uad6d
p6943
(lp6944
S'065530'
p6945
aVKOSDAQ:065530
p6946
ag5
asV\ub300\uc6b0SBI\uc2a4\ud3291\ud638
p6947
(lp6948
S'215480'
p6949
aVKOSDAQ:215480
p6950
ag5
asVKTB\ud22c\uc790\uc99d\uad8c
p6951
(lp6952
S'030210'
p6953
aVKRX:030210
p6954
ag10
asV\ub274\ubcf4\ud14d
p6955
(lp6956
S'060260'
p6957
aVKOSDAQ:060260
p6958
ag5
asV\ud30c\ud2b8\ub860
p6959
(lp6960
S'091700'
p6961
aVKOSDAQ:091700
p6962
ag5
asVSIMPAC
p6963
(lp6964
S'009160'
p6965
aVKRX:009160
p6966
ag10
asV\ucf00\uc774\uc5d8\ub137
p6967
(lp6968
S'039420'
p6969
aVKOSDAQ:039420
p6970
ag5
asVS&T\uc911\uacf5\uc5c5
p6971
(lp6972
S'003570'
p6973
aVKRX:003570
p6974
ag10
asV\ud2f0\ud50c\ub799\uc2a4
p6975
(lp6976
S'081150'
p6977
aVKOSDAQ:081150
p6978
ag5
asV\uc30d\uc6a9\uc790\ub3d9\ucc28
p6979
(lp6980
S'003620'
p6981
aVKRX:003620
p6982
ag10
asV\uad11\uc9c4\uc708\ud14d
p6983
(lp6984
S'090150'
p6985
aVKOSDAQ:090150
p6986
ag5
asVJW\uc911\uc678\uc2e0\uc57d
p6987
(lp6988
S'067290'
p6989
aVKOSDAQ:067290
p6990
ag5
asV\ucf00\uc774\uc5d8\ud2f0
p6991
(lp6992
S'053810'
p6993
aVKOSDAQ:053810
p6994
ag5
asV\uc6c5\uc9c4\uc5d0\ub108\uc9c0
p6995
(lp6996
S'103130'
p6997
aVKRX:103130
p6998
ag10
asV\ud654\uc131
p6999
(lp7000
S'039610'
p7001
aVKOSDAQ:039610
p7002
ag5
asV\uc5e0\ubca4\ucc98\ud22c\uc790
p7003
(lp7004
S'019590'
p7005
aVKOSDAQ:019590
p7006
ag5
asV\ubcf4\ub839\uc81c\uc57d
p7007
(lp7008
S'003850'
p7009
aVKRX:003850
p7010
ag10
asV\uc544\uc774\uc5d0\uc2a4\ub3d9\uc11c
p7011
(lp7012
S'010780'
p7013
aVKRX:010780
p7014
ag10
asV\uccad\ud638\ucef4\ub137
p7015
(lp7016
S'012600'
p7017
aVKRX:012600
p7018
ag10
asV\ud55c\uc194\ud53c\uc5d4\uc5d0\uc2a4
p7019
(lp7020
S'010420'
p7021
aVKRX:010420
p7022
ag10
asV\uc6b0\ub9ac\ub137
p7023
(lp7024
S'115440'
p7025
aVKOSDAQ:115440
p7026
ag5
asV\uc815\uc0c1\uc81c\uc774\uc5d8\uc5d0\uc2a4
p7027
(lp7028
S'040420'
p7029
aVKOSDAQ:040420
p7030
ag5
asV\ud604\ub300\uc81c\ucca0
p7031
(lp7032
S'004020'
p7033
aVKRX:004020
p7034
ag10
asV\uc5d0\uc2a4\uc5d0\ud504\uc528
p7035
(lp7036
S'112240'
p7037
aVKOSDAQ:112240
p7038
ag5
asV\ucf54\uc544\ud06c\ub85c\uc2a4
p7039
(lp7040
S'038530'
p7041
aVKOSDAQ:038530
p7042
ag5
asV\uc720\uc9c4\ub85c\ubd07
p7043
(lp7044
S'056080'
p7045
aVKOSDAQ:056080
p7046
ag5
asV\ud604\ub300\ud1b5\uc2e0
p7047
(lp7048
S'039010'
p7049
aVKOSDAQ:039010
p7050
ag5
asVSG\uc138\uacc4\ubb3c\uc0b0
p7051
(lp7052
S'004060'
p7053
aVKRX:004060
p7054
ag10
asV\uc0bc\uc131\uc5d0\uc2a4\ub514\uc5d0\uc2a4
p7055
(lp7056
S'018260'
p7057
aVKRX:018260
p7058
ag10
asV\uc9c4\uc591\ud654\ud559
p7059
(lp7060
S'051630'
p7061
aVKRX:051630
p7062
ag10
asV\ucf00\uc774\ud2f0\ube44\uc2a4\ud3292\ud638
p7063
(lp7064
S'214150'
p7065
aVKOSDAQ:214150
p7066
ag5
asV\uce90\uc2a4\ud14d\ucf54\ub9ac\uc544
p7067
(lp7068
S'071850'
p7069
aVKOSDAQ:071850
p7070
ag5
asV\uc5d0\uc2a4\ud14d
p7071
(lp7072
S'069510'
p7073
aVKOSDAQ:069510
p7074
ag5
asV\uc0bc\ubcf4\ud310\uc9c0
p7075
(lp7076
S'023600'
p7077
aVKOSDAQ:023600
p7078
ag5
asV\uc544\uc9c4\uc5d1\uc2a4\ud14d
p7079
(lp7080
S'059120'
p7081
aVKOSDAQ:059120
p7082
ag5
asVLG\ub514\uc2a4\ud50c\ub808\uc774
p7083
(lp7084
S'034220'
p7085
aVKRX:034220
p7086
ag10
asV\uc9c0\uc5e0\ud53c
p7087
(lp7088
S'018290'
p7089
aVKOSDAQ:018290
p7090
ag5
asV\uc528\ud2f0\uc5d8
p7091
(lp7092
S'036170'
p7093
aVKOSDAQ:036170
p7094
ag5
asV\uc5d0\uc2a4\ub137
p7095
(lp7096
S'038680'
p7097
aVKOSDAQ:038680
p7098
ag5
asV\ub514\uc9c0\ud0c8\uc635\ud2f1
p7099
(lp7100
S'106520'
p7101
aVKOSDAQ:106520
p7102
ag5
asV\uc544\uc2dc\uc544\ud37c\uc2dc\ud53d15\ud638
p7103
(lp7104
S'083620'
p7105
aVKRX:083620
p7106
ag10
asV\ub300\uc131\ud640\ub529\uc2a4
p7107
(lp7108
S'016710'
p7109
aVKRX:016710
p7110
ag10
asV\uc544\uc774\ud06c\ub798\ud504\ud2b8
p7111
(lp7112
S'052460'
p7113
aVKOSDAQ:052460
p7114
ag5
asV\uc81c\uc774\uc5d4\ucf00\uc774\ud788\ud130
p7115
(lp7116
S'126880'
p7117
aVKOSDAQ:126880
p7118
ag5
asV\ud558\ub098\uba38\uc2a4\ud2b85\ud638\uc2a4\ud329
p7119
(lp7120
S'218150'
p7121
aVKOSDAQ:218150
p7122
ag5
asV\ub77c\uc774\uc628\ucf10\ud14d
p7123
(lp7124
S'171120'
p7125
aVKOSDAQ:171120
p7126
ag5
asV\uad6c\uc601\ud14c\ud06c
p7127
(lp7128
S'053270'
p7129
aVKOSDAQ:053270
p7130
ag5
asV\ube44\uc5e0\ud2f0
p7131
(lp7132
S'086670'
p7133
aVKOSDAQ:086670
p7134
ag5
asV\ub3d9\uad6d\uc54c\uc564\uc5d0\uc2a4
p7135
(lp7136
S'075970'
p7137
aVKOSDAQ:075970
p7138
ag5
asV\uc5e0\uac8c\uc784
p7139
(lp7140
S'058630'
p7141
aVKOSDAQ:058630
p7142
ag5
asV\uae08\uc591
p7143
(lp7144
S'001570'
p7145
aVKRX:001570
p7146
ag10
asV\uc601\ubcf4\ud654\ud559
p7147
(lp7148
S'014440'
p7149
aVKRX:014440
p7150
ag10
asV\ucf54\uc544\uc2a4
p7151
(lp7152
S'071950'
p7153
aVKRX:071950
p7154
ag10
asVCJ\ud5ec\ub85c\ube44\uc804
p7155
(lp7156
S'037560'
p7157
aVKRX:037560
p7158
ag10
asV\ud558\ub098\uba38\uc2a4\ud2b83\ud638\uc2a4\ud329
p7159
(lp7160
S'208870'
p7161
aVKOSDAQ:208870
p7162
ag5
asV\uc774\uad6c\uc0b0\uc5c5
p7163
(lp7164
S'025820'
p7165
aVKRX:025820
p7166
ag10
asV\ub9cc\ub3c4
p7167
(lp7168
S'204320'
p7169
aVKRX:204320
p7170
ag10
asVMBK
p7171
(lp7172
S'159910'
p7173
aVKOSDAQ:159910
p7174
ag5
asV\uc0ac\uc870\ub300\ub9bc
p7175
(lp7176
S'003960'
p7177
aVKRX:003960
p7178
ag10
asV\uc194\ube0c\ub808\uc778\uc774\uc5d4\uc9c0
p7179
(lp7180
S'039230'
p7181
aVKOSDAQ:039230
p7182
ag5
asV\uae68\ub057\ud55c\ub098\ub77c
p7183
(lp7184
S'004540'
p7185
aVKRX:004540
p7186
ag10
asV\ucf00\uc774\ub9e5
p7187
(lp7188
S'043290'
p7189
aVKOSDAQ:043290
p7190
ag5
asV\ud55c\uad6d\uc815\ubcf4\ud1b5\uc2e0
p7191
(lp7192
S'025770'
p7193
aVKOSDAQ:025770
p7194
ag5
asV\ud1a0\ube44\uc2a4
p7195
(lp7196
S'051360'
p7197
aVKOSDAQ:051360
p7198
ag5
asV\ub179\uc2ed\uc790\uc5e0\uc5d0\uc2a4
p7199
(lp7200
S'142280'
p7201
aVKOSDAQ:142280
p7202
ag5
asV\uc2e0\ud654\ucf58\ud14d
p7203
(lp7204
S'187270'
p7205
aVKOSDAQ:187270
p7206
ag5
asV\ub77d\uc564\ub77d
p7207
(lp7208
S'115390'
p7209
aVKRX:115390
p7210
ag10
asV\ucf00\uc774\ud2f0\ube44\uc2a4\ud3291\ud638
p7211
(lp7212
S'204650'
p7213
aVKOSDAQ:204650
p7214
ag5
asV\uc0bc\uc591\uc81c\ub125\uc2a4
p7215
(lp7216
S'003940'
p7217
aVKRX:003940
p7218
ag10
asV\uc544\ub098\ud328\uc2a4
p7219
(lp7220
S'123860'
p7221
aVKOSDAQ:123860
p7222
ag5
asV\ud604\ub300\uc544\uc774\ube44\ud2f0
p7223
(lp7224
S'048410'
p7225
aVKOSDAQ:048410
p7226
ag5
asV\uc544\uc774\uc5d0\uc2a4\uc774\ucee4\uba38\uc2a4
p7227
(lp7228
S'069920'
p7229
aVKOSDAQ:069920
p7230
ag5
asV\uc5d0\uc2a4\uc564\uc528\uc5d4\uc9c4\uadf8\ub8f9
p7231
(lp7232
S'900080'
p7233
aVKOSDAQ:900080
p7234
ag5
asV\ud55c\uad6d\ucef4\ud4e8\ud130
p7235
(lp7236
S'054040'
p7237
aVKOSDAQ:054040
p7238
ag5
asV\ub300\ub3d9\uacf5\uc5c5
p7239
(lp7240
S'000490'
p7241
aVKRX:000490
p7242
ag10
asV\uc5d0\uc784\ud558\uc774
p7243
(lp7244
S'043580'
p7245
aVKOSDAQ:043580
p7246
ag5
asVDGB\uae08\uc735\uc9c0\uc8fc
p7247
(lp7248
S'139130'
p7249
aVKRX:139130
p7250
ag10
asV\uc9c0\ud2b8\ub9ac\ube44\uc564\ud2f0
p7251
(lp7252
S'115450'
p7253
aVKOSDAQ:115450
p7254
ag5
asVGST
p7255
(lp7256
S'083450'
p7257
aVKOSDAQ:083450
p7258
ag5
asV\ud734\ub9e5\uc2a4
p7259
(lp7260
S'115160'
p7261
aVKOSDAQ:115160
p7262
ag5
asV\ub3d9\uad6d\uc2e4\uc5c5
p7263
(lp7264
S'001620'
p7265
aVKRX:001620
p7266
ag10
asV\ud55c\ud654\uc0dd\uba85
p7267
(lp7268
S'088350'
p7269
aVKRX:088350
p7270
ag10
asV\uae08\ud638\uc804\uae30
p7271
(lp7272
S'001210'
p7273
aVKRX:001210
p7274
ag10
asVSTX\uc5d4\uc9c4
p7275
(lp7276
S'077970'
p7277
aVKRX:077970
p7278
ag10
asV\ube5b\uacfc\uc804\uc790
p7279
(lp7280
S'069540'
p7281
aVKOSDAQ:069540
p7282
ag5
asV\uc0bc\ud654\ucf58\ub374\uc11c\uacf5\uc5c5
p7283
(lp7284
S'001820'
p7285
aVKRX:001820
p7286
ag10
asV\ud06c\ub77c\uc6b4\uc81c\uacfc
p7287
(lp7288
S'005740'
p7289
aVKRX:005740
p7290
ag10
asV\uc5d8\ud53c\ucf00\uc774
p7291
(lp7292
S'183350'
p7293
aFnan
ag34
asV\ub9ac\uc820
p7294
(lp7295
S'038340'
p7296
aVKOSDAQ:038340
p7297
ag5
asV\uc774\uc624\ud14c\ud06c\ub2c9\uc2a4
p7298
(lp7299
S'039030'
p7300
aVKOSDAQ:039030
p7301
ag5
asVNICE\ud3c9\uac00\uc815\ubcf4
p7302
(lp7303
S'030190'
p7304
aVKOSDAQ:030190
p7305
ag5
asV\uc11c\ud55c
p7306
(lp7307
S'011370'
p7308
aVKOSDAQ:011370
p7309
ag5
asV\ud0dc\uc601\uac74\uc124
p7310
(lp7311
S'009410'
p7312
aVKRX:009410
p7313
ag10
asV\ube44\uc564\uc5d0\uc2a4\ubbf8\ub514\uc5b4
p7314
(lp7315
S'156170'
p7316
aFnan
ag34
asV\ubcbd\uc0b0
p7317
(lp7318
S'007210'
p7319
aVKRX:007210
p7320
ag10
asV\uc138\uc6d0\uc815\uacf5
p7321
(lp7322
S'021820'
p7323
aVKRX:021820
p7324
ag10
asV\ud6a8\uc131\uc624\uc564\ube44
p7325
(lp7326
S'097870'
p7327
aVKOSDAQ:097870
p7328
ag5
asV\ub179\uc2ed\uc790\ud640\ub529\uc2a4
p7329
(lp7330
S'005250'
p7331
aVKRX:005250
p7332
ag10
asV\uc11c\uc6b8\uc2e0\uc6a9\ud3c9\uac00
p7333
(lp7334
S'036120'
p7335
aVKOSDAQ:036120
p7336
ag5
asV\ud604\uc131\ubc14\uc774\ud0c8
p7337
(lp7338
S'204990'
p7339
aFnan
ag34
asV\uc0bc\uc775\uc545\uae30
p7340
(lp7341
S'002450'
p7342
aVKRX:002450
p7343
ag10
asV\ud55c\uc194\ucf00\ubbf8\uce7c
p7344
(lp7345
S'014680'
p7346
aVKRX:014680
p7347
ag10
asVLG\ud654\ud559
p7348
(lp7349
S'051910'
p7350
aVKRX:051910
p7351
ag10
asV\uad6d\uc77c\uc2e0\ub3d9
p7352
(lp7353
S'060480'
p7354
aVKOSDAQ:060480
p7355
ag5
asV\ud48d\uac15
p7356
(lp7357
S'093380'
p7358
aVKOSDAQ:093380
p7359
ag5
asV\ubbf8\ub798\uc5d0\uc14b\uc0dd\uba85
p7360
(lp7361
S'085620'
p7362
aVKRX:085620
p7363
ag10
asV\ub9e4\ucee4\uc2a4
p7364
(lp7365
S'093520'
p7366
aVKOSDAQ:093520
p7367
ag5
asV\uc0bc\uc131\uc81c\uc57d
p7368
(lp7369
S'001360'
p7370
aVKRX:001360
p7371
ag10
asV\ud558\ub098\ub2c8\ucf082\ud638
p7372
(lp7373
S'099350'
p7374
aVKRX:099350
p7375
ag10
asV\uc774\uc9c0\uc6f0\ud398\uc5b4
p7376
(lp7377
S'090850'
p7378
aVKOSDAQ:090850
p7379
ag5
asV\ub3d9\uc6b4\uc544\ub098\ud14d
p7380
(lp7381
S'094170'
p7382
aVKOSDAQ:094170
p7383
ag5
asV\uc0bc\uc601\ud654\ud559\uacf5\uc5c5
p7384
(lp7385
S'003720'
p7386
aVKRX:003720
p7387
ag10
asV\uc77c\uc9c4\ud30c\uc6cc
p7388
(lp7389
S'094820'
p7390
aVKOSDAQ:094820
p7391
ag5
asV\ube44\uc5d0\uc2a4\uc774
p7392
(lp7393
S'045970'
p7394
aVKOSDAQ:045970
p7395
ag5
asV\uc0bc\uc131\uc815\ubc00\ud654\ud559
p7396
(lp7397
S'004000'
p7398
aVKRX:004000
p7399
ag10
asV\ubd80\uad11\uc57d\ud488
p7400
(lp7401
S'003000'
p7402
aVKRX:003000
p7403
ag10
asV\uc774\uc0c1\ub124\ud2b8\uc6cd\uc2a4
p7404
(lp7405
S'080010'
p7406
aVKOSDAQ:080010
p7407
ag5
asV\ud3c9\ud654\ud640\ub529\uc2a4
p7408
(lp7409
S'010770'
p7410
aVKRX:010770
p7411
ag10
asV\ub3d9\uc6d0F&B
p7412
(lp7413
S'049770'
p7414
aVKRX:049770
p7415
ag10
asV\uc544\uc774\ud2f0\uc13c
p7416
(lp7417
S'124500'
p7418
aVKOSDAQ:124500
p7419
ag5
asV\ud2f0\uc528\ucf00\uc774
p7420
(lp7421
S'064760'
p7422
aVKOSDAQ:064760
p7423
ag5
asV\uc0bc\uae30\uc624\ud1a0\ubaa8\ud2f0\ube0c
p7424
(lp7425
S'122350'
p7426
aVKOSDAQ:122350
p7427
ag5
asV\uc11c\uc6b8\uc625\uc158
p7428
(lp7429
S'063170'
p7430
aVKOSDAQ:063170
p7431
ag5
asV\ub0a8\uc131
p7432
(lp7433
S'004270'
p7434
aVKRX:004270
p7435
ag10
asV\ubaa8\ub450\ud22c\uc5b4
p7436
(lp7437
S'080160'
p7438
aVKOSDAQ:080160
p7439
ag5
asV\uc720\ud22c\ubc14\uc774\uc624
p7440
(lp7441
S'221800'
p7442
aFnan
ag34
asV\ub300\ub355GDS
p7443
(lp7444
S'004130'
p7445
aVKRX:004130
p7446
ag10
asV\uc720\ub2c8\uc628
p7447
(lp7448
S'000910'
p7449
aVKRX:000910
p7450
ag10
asV\ucf00\uc774\ud53c\ud2f0
p7451
(lp7452
S'054410'
p7453
aVKOSDAQ:054410
p7454
ag5
asVBGF\ub9ac\ud14c\uc77c
p7455
(lp7456
S'027410'
p7457
aVKRX:027410
p7458
ag10
asVSG&G
p7459
(lp7460
S'040610'
p7461
aVKOSDAQ:040610
p7462
ag5
asV\uc0bc\uc6b0\uc5e0\uc2a4
p7463
(lp7464
S'082660'
p7465
aVKOSDAQ:082660
p7466
ag5
asV\uc5d0\ucf54\ud50c\ub77c\uc2a4\ud2f1
p7467
(lp7468
S'038110'
p7469
aVKOSDAQ:038110
p7470
ag5
asV\ud06c\ub808\ub4c0
p7471
(lp7472
S'067280'
p7473
aVKOSDAQ:067280
p7474
ag5
asV\ucf00\uc774\ub514\ubbf8\ub514\uc5b4
p7475
(lp7476
S'063440'
p7477
aVKOSDAQ:063440
p7478
ag5
asV\uad6d\ubcf4
p7479
(lp7480
S'001140'
p7481
aVKRX:001140
p7482
ag10
asV\uc0bc\uc9c4
p7483
(lp7484
S'032750'
p7485
aVKOSDAQ:032750
p7486
ag5
asV\ud55c\uad6d\uacf5\ud56d
p7487
(lp7488
S'005430'
p7489
aVKRX:005430
p7490
ag10
asV\uc2dc\ub178\ud399\uc2a4
p7491
(lp7492
S'025320'
p7493
aVKOSDAQ:025320
p7494
ag5
asV\ud6c4\uc131
p7495
(lp7496
S'093370'
p7497
aVKRX:093370
p7498
ag10
asV\ub098\ub178\uc5d4\ud14d
p7499
(lp7500
S'039860'
p7501
aVKOSDAQ:039860
p7502
ag5
asV\ub514\uc624\ud14d
p7503
(lp7504
S'108860'
p7505
aVKOSDAQ:108860
p7506
ag5
asV\ub2e4\ub0a0
p7507
(lp7508
S'064260'
p7509
aVKOSDAQ:064260
p7510
ag5
asV\uc5d8\uc624\ud2f0\ubca0\ud060
p7511
(lp7512
S'083310'
p7513
aVKOSDAQ:083310
p7514
ag5
asV\uc608\ub9bc\ub2f9
p7515
(lp7516
S'036000'
p7517
aVKOSDAQ:036000
p7518
ag5
asV\uc601\ubc31\uc528\uc5e0
p7519
(lp7520
S'193250'
p7521
aVKOSDAQ:193250
p7522
ag5
asV\uc5d4\uc9c0\ucf10\uc0dd\uba85\uacfc\ud559
p7523
(lp7524
S'183490'
p7525
aFnan
ag34
asV\uace8\ud504\uc874\uc720\uc6d0\ud640\ub529\uc2a4
p7526
(lp7527
S'121440'
p7528
aVKOSDAQ:121440
p7529
ag5
asV\uc2e0\ud48d\uc81c\uc57d
p7530
(lp7531
S'019170'
p7532
aVKRX:019170
p7533
ag10
asV\uc544\uc2dc\uc544\ud37c\uc2dc\ud53d14\ud638
p7534
(lp7535
S'083610'
p7536
aVKRX:083610
p7537
ag10
asV\ub77c\uc774\ube0c\ud50c\ub809\uc2a4
p7538
(lp7539
S'050120'
p7540
aVKOSDAQ:050120
p7541
ag5
asV\uc774\uac74\ucc3d\ud638
p7542
(lp7543
S'039020'
p7544
aVKOSDAQ:039020
p7545
ag5
asV\uc0bc\uc131\uc804\uc790
p7546
g3238
sV\uc11c\ub9b0\ubc14\uc774\uc624
p7547
(lp7548
S'038070'
p7549
aVKOSDAQ:038070
p7550
ag5
asV\ud55c\uc804\uc0b0\uc5c5
p7551
(lp7552
S'130660'
p7553
aVKRX:130660
p7554
ag10
asVGS\ud648\uc1fc\ud551
p7555
(lp7556
S'028150'
p7557
aVKOSDAQ:028150
p7558
ag5
asV\uc5d8\ud2f0\uc528
p7559
(lp7560
S'170920'
p7561
aVKOSDAQ:170920
p7562
ag5
asVSH \ud640\ub529\uc2a4
p7563
(lp7564
S'052300'
p7565
aVKOSDAQ:052300
p7566
ag5
asV\ubc31\uc0b0
p7567
(lp7568
S'035150'
p7569
aVKRX:035150
p7570
ag10
asV\ubbf8\uc6d0\uc5d0\uc2a4\uc528
p7571
(lp7572
S'107590'
p7573
aVKRX:107590
p7574
ag10
asV\ucd08\ub85d\ubc40
p7575
(lp7576
S'047820'
p7577
aVKOSDAQ:047820
p7578
ag5
asV\ud55c\uad6d\ub0b4\ud654
p7579
(lp7580
S'010040'
p7581
aVKRX:010040
p7582
ag10
asV\ucf00\uc774\ud53c\uc5e0\ud14c\ud06c
p7583
(lp7584
S'042040'
p7585
aVKOSDAQ:042040
p7586
ag5
asV\uc138\uc9c4\uc804\uc790
p7587
(lp7588
S'080440'
p7589
aVKOSDAQ:080440
p7590
ag5
asV\ud55c\ud654\ud14c\ud06c\uc708
p7591
(lp7592
S'012450'
p7593
aVKRX:012450
p7594
ag10
asV\ud31c\uc2a4\uc6f0\ubc14\uc774\uc624
p7595
(lp7596
S'043090'
p7597
aVKOSDAQ:043090
p7598
ag5
asV\ub300\uc720\uc5d0\uc774\ud14d
p7599
(lp7600
S'002880'
p7601
aVKRX:002880
p7602
ag10
asV\ud55c\uc194\uc2e0\ud14d
p7603
(lp7604
S'099660'
p7605
aVKOSDAQ:099660
p7606
ag5
asV\uc720\uc9c0\uc778\ud2b8
p7607
(lp7608
S'195990'
p7609
aVKOSDAQ:195990
p7610
ag5
asV\ucef4\ud22c\uc2a4
p7611
(lp7612
S'078340'
p7613
aVKOSDAQ:078340
p7614
ag5
asV\uacbd\ub18d
p7615
(lp7616
S'002100'
p7617
aVKRX:002100
p7618
ag10
asV\uacbd\uc778\uc591\ud589
p7619
(lp7620
S'012610'
p7621
aVKRX:012610
p7622
ag10
asV\uc5e0\uc81c\uc774\ube44
p7623
(lp7624
S'074150'
p7625
aVKOSDAQ:074150
p7626
ag5
asV\ub450\uc0b0\uc778\ud504\ub77c\ucf54\uc5b4
p7627
(lp7628
S'042670'
p7629
aVKRX:042670
p7630
ag10
asV\uc704\uc988\ucf54\ud504
p7631
(lp7632
S'038620'
p7633
aVKOSDAQ:038620
p7634
ag5
asVDRB\ub3d9\uc77c
p7635
(lp7636
S'004840'
p7637
aVKRX:004840
p7638
ag10
asV\uc288\ub12c\uc0dd\uba85\uacfc\ud559
p7639
(lp7640
S'003060'
p7641
aVKRX:003060
p7642
ag10
asV\uc2e0\uc131\ud1b5\uc0c1
p7643
(lp7644
S'005390'
p7645
aVKRX:005390
p7646
ag10
asV\ucf54\ucf64
p7647
(lp7648
S'015710'
p7649
aVKOSDAQ:015710
p7650
ag5
asV\uc5d8\uc544\uc774\uc9c0\uc774\uc5d0\uc2a4\uc2a4\ud329
p7651
(lp7652
S'220260'
p7653
aVKOSDAQ:220260
p7654
ag5
asV\ud504\ub9ac\uc5e0\uc2a4
p7655
(lp7656
S'053160'
p7657
aVKOSDAQ:053160
p7658
ag5
asVSBI\uc778\ubca0\uc2a4\ud2b8\uba3c\ud2b8
p7659
(lp7660
S'019550'
p7661
aVKOSDAQ:019550
p7662
ag5
asV\ud3ec\uc2a4\ucf54\ucf10\ud14d
p7663
(lp7664
S'003670'
p7665
aVKOSDAQ:003670
p7666
ag5
asV\uc81c\uc77c\ubc14\uc774\uc624
p7667
(lp7668
S'052670'
p7669
aVKOSDAQ:052670
p7670
ag5
asV\uc11c\ud76c\uac74\uc124
p7671
(lp7672
S'035890'
p7673
aVKOSDAQ:035890
p7674
ag5
asV\ube44\uc5d0\uc774\uce58\uc544\uc774
p7675
(lp7676
S'083650'
p7677
aVKOSDAQ:083650
p7678
ag5
asVSIMPAC METALLOY
p7679
(lp7680
S'090730'
p7681
aVKOSDAQ:090730
p7682
ag5
asV\ub300\uc6c5
p7683
(lp7684
S'003090'
p7685
aVKRX:003090
p7686
ag10
asV\uc0bc\uc6d0\ud14c\ud06c
p7687
(lp7688
S'073640'
p7689
aVKOSDAQ:073640
p7690
ag5
asV\ube5b\uc0d8\uc804\uc790
p7691
(lp7692
S'072950'
p7693
aVKOSDAQ:072950
p7694
ag5
asV\ub300\uc6b0\uc870\uc120\ud574\uc591
p7695
(lp7696
S'042660'
p7697
aVKRX:042660
p7698
ag10
asV\uc624\uc131\uc5d8\uc5d0\uc2a4\ud2f0
p7699
(lp7700
S'052420'
p7701
aVKOSDAQ:052420
p7702
ag5
asVLG\uc804\uc790
p7703
(lp7704
S'066570'
p7705
aVKRX:066570
p7706
ag10
asV\ub098\uc774\uc2a4\ub514\uc564\ube44
p7707
(lp7708
S'130580'
p7709
aVKOSDAQ:130580
p7710
ag5
asV\uae30\uc0b0\ud154\ub808\ucf64
p7711
(lp7712
S'035460'
p7713
aVKOSDAQ:035460
p7714
ag5
asV\uc5d4\ud154\uc2a4
p7715
(lp7716
S'069410'
p7717
aVKOSDAQ:069410
p7718
ag5
asV\ud604\ub300\uc99d\uad8c
p7719
(lp7720
S'003450'
p7721
aVKRX:003450
p7722
ag10
asV\ud55c\ub18d\ud654\uc131
p7723
(lp7724
S'011500'
p7725
aVKRX:011500
p7726
ag10
asV\uc778\ud130\ud50c\ub809\uc2a4
p7727
(lp7728
S'051370'
p7729
aVKOSDAQ:051370
p7730
ag5
asV\ub3d9\uc544\uc5d0\uc2a4\ud14d
p7731
(lp7732
S'058730'
p7733
aVKRX:058730
p7734
ag10
asV\uc0bc\uad11\uae00\ub77c\uc2a4
p7735
(lp7736
S'005090'
p7737
aVKRX:005090
p7738
ag10
asV\uc5d0\uc774\ud14d\ud2f0\uc564
p7739
(lp7740
S'224110'
p7741
aVKOSDAQ:224110
p7742
ag5
as.