(dp0
VKODEX \uc99d\uad8c
p1
VKRX:102970
p2
sV\uc720\uc131\uae30\uc5c5
p3
VKRX:002920
p4
sV\ub9e5\ucffc\ub9ac\uc778\ud504\ub77c
p5
VKRX:088980
p6
sV\uacbd\ub0a8\uc2a4\ud2f8
p7
VKOSDAQ:039240
p8
sV\ubb34\ub9bcSP
p9
VKOSDAQ:001810
p10
sVKODEX S&P500\uc120\ubb3c(H)
p11
VKRX:219480
p12
sV\uc634\ub2c8\uc2dc\uc2a4\ud15c
p13
VKOSDAQ:057540
p14
sV\ub3d9\uc591\uc774\uc5d4\ud53c
p15
VKOSDAQ:079960
p16
sV\ubaa8\ub2e4\uc774\ub178\uce69
p17
VKOSDAQ:080420
p18
sV\uc11c\uc5f0\uc804\uc790
p19
VKOSDAQ:012860
p20
sV\ud734\ube44\uc2a4
p21
VKRX:079980
p22
sVJW\uc911\uc678\uc81c\uc57d
p23
VKRX:001060
p24
sVSFA\ubc18\ub3c4\uccb4
p25
VKOSDAQ:036540
p26
sV\ud558\uc774\ud2b8\uc9c4\ub85c\ud640\ub529\uc2a4
p27
VKRX:000140
p28
sV\uc774\ub178\uc158
p29
VKRX:214320
p30
sVCJ\uc6b0
p31
VKRX:001045
p32
sV\ub300\uc6d0\uc81c\uc57d
p33
VKRX:003220
p34
sVGS
p35
VKRX:078930
p36
sV\uc544\uc774\ub9ac\ubc84
p37
VKOSDAQ:060570
p38
sV\uc0bc\ud654\ud398\uc778\ud2b8
p39
VKRX:000390
p40
sV\ud574\uc131\uc635\ud2f1\uc2a4
p41
VKOSDAQ:076610
p42
sV\ub300\uacbd\uae30\uacc4
p43
VKRX:015590
p44
sVBYC
p45
VKRX:001460
p46
sVARIRANG \uc2a4\ub9c8\ud2b8\ubca0\ud0c0 Quality
p47
VKRX:222200
p48
sVQV \ub0b4\uc218\uc18c\ube44 TOP5 ETN
p49
VKRX:550006
p50
sV\ud55c\uad6d\uc8fc\ucca0\uad00
p51
VKRX:000970
p52
sV\uc138\ubc29\uc6b0
p53
VKRX:004365
p54
sV\uc0bc\uc6d0\ud14c\ud06c
p55
VKOSDAQ:073640
p56
sV\uc2e0\ud55c \uc778\ubc84\uc2a4 \uad6c\ub9ac \uc120\ubb3c ETN(H)
p57
VKRX:500008
p58
sVable Monthly Best 11 ETN
p59
VKRX:580003
p60
sV\uc2ec\ud14d\ud640\ub529\uc2a4
p61
VKOSDAQ:036710
p62
sV\ub125\uc194\ub860
p63
VKRX:110570
p64
sV\ube44\uce20\ub85c\uc2dc\uc2a4
p65
VKOSDAQ:054220
p66
sV\ub0a8\uad11\ud1a0\uac74
p67
VKRX:001260
p68
sV\uc5d0\uc2a4\uc5d0\uc774\ud2f0
p69
VKOSDAQ:060540
p70
sV\ub300\uc131\uc5d8\ud14d
p71
VKOSDAQ:025440
p72
sV\ud55c\uad6d\uc258\uc11d\uc720
p73
VKRX:002960
p74
sVSMART MSCI\uc120\uc9c4\uad6d(\ud569\uc131 H)
p75
VKRX:208470
p76
sVSTX\uc911\uacf5\uc5c5
p77
VKRX:071970
p78
sVKINDEX \uc778\ubc84\uc2a4
p79
VKRX:145670
p80
sV\uc0bc\uc131\ud654\uc7ac\uc6b0
p81
VKRX:000815
p82
sV\uadf8\ub79c\ub4dc\ubc31\ud654\uc810
p83
VKOSDAQ:019010
p84
sV\uc131\ucc3d\uc624\ud1a0\ud14d
p85
VKOSDAQ:080470
p86
sV\ud648\uce90\uc2a4\ud2b8
p87
VKOSDAQ:064240
p88
sVCSA \ucf54\uc2a4\ubbf9
p89
VKOSDAQ:083660
p90
sV\uc131\uc2e0\uc591\ud68c2\uc6b0B
p91
VKRX:004987
p92
sV\uae08\uc131\ud14c\ud06c
p93
VKOSDAQ:058370
p94
sV\ucf00\uc774\ube44\uce90\ud53c\ud0c8
p95
VKRX:021960
p96
sV\uc138\ubcf4\uc5e0\uc774\uc528
p97
VKOSDAQ:011560
p98
sV\ud2f0\uc5d0\uc774\uce58\uc5d4
p99
VKRX:019180
p100
sV\ub300\ub355\uc804\uc790
p101
VKRX:008060
p102
sV\uc11c\uc0b0
p103
VKOSDAQ:079650
p104
sV\uc30d\uc6a9\uc815\ubcf4\ud1b5\uc2e0
p105
VKOSDAQ:010280
p106
sVJW\uc911\uc678\uc81c\uc57d\uc6b0
p107
VKRX:001065
p108
sV\uc624\ub85c\ub77c
p109
VKOSDAQ:039830
p110
sV\uc194\ubcf8
p111
VKOSDAQ:035610
p112
sV\ud0dc\uad11\uc0b0\uc5c5
p113
VKRX:003240
p114
sV\uc2e0\uc138\uacc4 I&C
p115
VKRX:035510
p116
sV\uc720\uc720\uc81c\uc57d2\uc6b0B
p117
VKRX:000227
p118
sV\uc774\ub179\uc2a4
p119
VKOSDAQ:088390
p120
sV\uc6b0\uc8fc\uc77c\ub809\ud2b8\ub85c
p121
VKOSDAQ:065680
p122
sV\uc0bc\ud638
p123
VKRX:001880
p124
sVTRUE \uc778\ubc84\uc2a4 \uc5d4\uc120\ubb3c ETN
p125
VKRX:570012
p126
sV\ud30c\uc778\ub514\uc564\uc528
p127
VKOSDAQ:049120
p128
sV\uc0bc\uc591\uc2dd\ud488
p129
VKRX:003230
p130
sV\ud55c\uad6d\uc81c\uc9c0
p131
VKRX:002300
p132
sV\uc885\uadfc\ub2f9
p133
VKRX:185750
p134
sV\ud55c\ucc3d
p135
VKRX:005110
p136
sVNPC\uc6b0
p137
VKRX:004255
p138
sV\uc0bc\uc815\ud384\ud504
p139
VKRX:009770
p140
sV\uc601\uc6d0\ubb34\uc5ed\ud640\ub529\uc2a4
p141
VKRX:009970
p142
sV\uc138\uba85\uc804\uae30
p143
VKOSDAQ:017510
p144
sVKR\ubaa8\ud130\uc2a4
p145
VKRX:000040
p146
sV\ub3d9\uc591\uc2dc\uba58\ud2b8
p147
VKOSDAQ:038500
p148
sV\uc720\uc9c4\ud22c\uc790\uc99d\uad8c
p149
VKRX:001200
p150
sV\uc30d\ubc29\uc6b8
p151
VKRX:102280
p152
sV\ud06c\ub9b0\uc564\uc0ac\uc774\uc5b8\uc2a4
p153
VKOSDAQ:045520
p154
sV\ub300\ud638\ud53c\uc564\uc528\uc6b0
p155
VKOSDAQ:021045
p156
sV\ub300\uc6d0\ud654\uc131
p157
VKRX:024890
p158
sV\uccad\ubcf4\uc0b0\uc5c5
p159
VKOSDAQ:013720
p160
sV\ub300\uc6b0 \uc5d0\ub108\uc9c0\ud654\ud559 Core5 ETN
p161
VKRX:520006
p162
sV\uc5d1\uc0ac\uc774\uc5d4\uc528
p163
VKOSDAQ:054940
p164
sV\uc778\ubc14\ub514
p165
VKOSDAQ:041830
p166
sVAJ\ub124\ud2b8\uc6cd\uc2a4
p167
VKRX:095570
p168
sV\ub2a5\ub960\uad50\uc721
p169
VKOSDAQ:053290
p170
sV\ucf10\ud2b8\ub85c\ub2c9\uc2a4
p171
VKOSDAQ:089010
p172
sVTIGER \ud5ec\uc2a4\ucf00\uc5b4
p173
VKRX:143860
p174
sV\ubd80\uad6d\uc99d\uad8c\uc6b0
p175
VKRX:001275
p176
sV\uc5d0\uc2a4\uc5d0\uc2a4\ucef4\ud14d
p177
VKOSDAQ:036500
p178
sVTIGER \ucc28\uc774\ub098A300
p179
VKRX:192090
p180
sVARIRANG K100EW
p181
VKRX:141240
p182
sVKODEX \ubbf8\uad6d\uc5d0\ub108\uc9c0(\ud569\uc131)
p183
VKRX:218420
p184
sV\uc138\ubc29
p185
VKRX:004360
p186
sV\uc0bc\uc544\uc54c\ubbf8\ub284
p187
VKRX:006110
p188
sV\ub18d\uc2ec
p189
VKRX:004370
p190
sVKINDEX \uace8\ub4dc\uc120\ubb3c \ub808\ubc84\ub9ac\uc9c0(\ud569\uc131 H)
p191
VKRX:225130
p192
sV\ub9ac\ub4dc\ucf54\ud504
p193
VKOSDAQ:012700
p194
sV\uc2e0\uc601\uc99d\uad8c\uc6b0
p195
VKRX:001725
p196
sV\ucf54\uba54\ub860
p197
VKOSDAQ:049430
p198
sVLF
p199
VKRX:093050
p200
sVLG
p201
VKRX:003550
p202
sV\ud574\uc131\uc0b0\uc5c5
p203
VKOSDAQ:034810
p204
sV\uc6f0\ud06c\ub860\ud55c\ud14d
p205
VKOSDAQ:076080
p206
sV\uc30d\uc6a9\uc591\ud68c3\uc6b0B
p207
VKRX:003419
p208
sV\ucf54\ud14d
p209
VKOSDAQ:052330
p210
sVLS
p211
VKRX:006260
p212
sV\uc885\uadfc\ub2f9\ud640\ub529\uc2a4
p213
VKRX:001630
p214
sV\ucf00\uc774\uc5e0
p215
VKOSDAQ:083550
p216
sVW\ud640\ub529\ucef4\ud37c\ub2c8
p217
VKOSDAQ:052300
p218
sV\ubb34\ud559
p219
VKRX:033920
p220
sV\ubbf8\ub798\uc5d0\uc14b \ubbf8\uad6d \ud56d\uacf5\uc6b0\uc8fc ETN(H)
p221
VKRX:590009
p222
sV\ub300\ub9bc\uc0b0\uc5c5
p223
VKRX:000210
p224
sV\uc0bc\ud654\uc804\uc790
p225
VKRX:011230
p226
sV\uc5d0\uc2a4\ud3f4\ub9ac\ud14d
p227
VKOSDAQ:050760
p228
sV\ud30c\ubbf8\uc140
p229
VKRX:005690
p230
sV\ub3d9\ubd80\uac74\uc124\uc6b0
p231
VKRX:005965
p232
sV\uc218\uc0b0\uc911\uacf5\uc5c5
p233
VKRX:017550
p234
sVTIGER \ucf54\uc2a4\ud53c\uace0\ubc30\ub2f9
p235
VKRX:210780
p236
sV\uc774\uc820\ud14d
p237
VKOSDAQ:033600
p238
sV\uc5d0\uc2a4\uc5d0\uc774\uc5e0\ud2f0
p239
VKOSDAQ:031330
p240
sV\uc544\ud2b8\ub77c\uc2a4BX
p241
VKOSDAQ:023890
p242
sVKODEX \ucf54\uc2a4\ub2e5 150
p243
VKRX:229200
p244
sVKBSTAR \uc8fc\uc2dd\ud63c\ud569
p245
VKRX:183710
p246
sV\uc0bc\uc131 \uc74c\uc2dd\ub8cc \ud14c\ub9c8\uc8fc ETN
p247
VKRX:530006
p248
sV\ub8e8\uba58\uc2a4
p249
VKOSDAQ:038060
p250
sV\ud55c\ube5b\uc18c\ud504\ud2b8
p251
VKOSDAQ:047080
p252
sV\ub3d9\uc544\uc9c0\uc9c8
p253
VKRX:028100
p254
sV\uc9c0\ucf54
p255
VKRX:010580
p256
sV\ub3d9\ubd80\uac74\uc124
p257
VKRX:005960
p258
sV\ud30c\uc6cc\ub85c\uc9c1\uc2a4
p259
VKOSDAQ:047310
p260
sV\uc601\uc2e0\uae08\uc18d
p261
VKOSDAQ:007530
p262
sV\ucf54\ub9ac\uc54404\ud638
p263
VKRX:091000
p264
sV\uc774\ubca0\uc2a4\ud2b8\ud22c\uc790\uc99d\uad8c
p265
VKOSDAQ:078020
p266
sV\uc77c\uc9c4\uc804\uae30
p267
VKRX:103590
p268
sV\uadf9\ub3d9\uc720\ud654
p269
VKRX:014530
p270
sV\ub3d9\uad6d\uc81c\uc57d
p271
VKOSDAQ:086450
p272
sV\ucf00\uc774\uc5d0\uc2a4\ud53c
p273
VKOSDAQ:073010
p274
sV\uc77c\uc2e0\ubc29\uc9c1
p275
VKRX:003200
p276
sV\ud55c\uad6d\ud0c0\uc774\uc5b4\uc6d4\ub4dc\uc640\uc774\ub4dc
p277
VKRX:000240
p278
sV\uc9c4\ud765\uae30\uc5c5\uc6b0B
p279
VKRX:002785
p280
sV\uc138\ucf54\ub2c9\uc2a4
p281
VKOSDAQ:053450
p282
sV\uc81c\uc77c\ud14c\ud06c\ub178\uc2a4
p283
VKOSDAQ:038010
p284
sVTIGER \ucc28\uc774\ub098A\ub808\ubc84\ub9ac\uc9c0(\ud569\uc131)
p285
VKRX:204480
p286
sV\uc5d0\uc2a4\uc5d4\uc720
p287
VKOSDAQ:080000
p288
sV\uc2e0\ud55c \uc778\ubc84\uc2a4 \uae08 \uc120\ubb3c ETN(H)
p289
VKRX:500006
p290
sV\ub3d9\uc544\ud0c0\uc774\uc5b4
p291
VKRX:007340
p292
sVKODEX \ucca0\uac15
p293
VKRX:117680
p294
sVKODEX MSCI KOREA
p295
VKRX:156080
p296
sV\ud55c\uc194\uc544\ud2b8\uc6d0\uc81c\uc9c0
p297
VKRX:007190
p298
sVKG\ubaa8\ube4c\ub9ac\uc5b8\uc2a4
p299
VKOSDAQ:046440
p300
sV\ubc14\ud14d
p301
VKOSDAQ:043150
p302
sV\ud2f0\uc528\ucf00\uc774
p303
VKOSDAQ:064760
p304
sV\uc5d0\ucf54\ubc14\uc774\uc624
p305
VKOSDAQ:038870
p306
sV\uc544\uc8fc\uce90\ud53c\ud0c8
p307
VKRX:033660
p308
sV\ub300\uc2e0\uc99d\uad8c
p309
VKRX:003540
p310
sVKOSEF \ub2ec\ub7ec\uc778\ubc84\uc2a4\uc120\ubb3c
p311
VKRX:139660
p312
sVQV \uc2a4\ub9c8\ud2b8\ub9ac\ubc38\ub7f0\uc2f1 250/3 ETN
p313
VKRX:550003
p314
sV\uc6f9\uc820
p315
VKOSDAQ:069080
p316
sV\uac00\ube44\uc544
p317
VKOSDAQ:079940
p318
sV\uc77c\uc815\uc2e4\uc5c5
p319
VKRX:008500
p320
sV\uc601\ud654\uae08\uc18d
p321
VKRX:012280
p322
sV\uc774\uac74\uc0b0\uc5c5
p323
VKRX:008250
p324
sV\ud574\uc131\ub514\uc5d0\uc2a4
p325
VKRX:195870
p326
sV\uc8fc\uc5f0\ud14c\ud06c
p327
VKRX:044380
p328
sVS&T\ubaa8\ud2f0\ube0c
p329
VKRX:064960
p330
sV\ucf54\ub370\uc988\ucef4\ubc14\uc778
p331
VKOSDAQ:047770
p332
sVKT\ubba4\uc9c1
p333
VKOSDAQ:043610
p334
sV\uc5d0\uc774\uc2a4\uce68\ub300
p335
VKOSDAQ:003800
p336
sV\ud55c\ubbf8\uae00\ub85c\ubc8c
p337
VKRX:053690
p338
sVTIGER \ub2e8\uae30\uc120\uc9c4\ud558\uc774\uc77c\ub4dc(\ud569\uc131 H)
p339
VKRX:182490
p340
sVTIGER \uc720\ub85c\uc2a4\ud0c1\uc2a4\ubc30\ub2f930
p341
VKRX:245350
p342
sV\ud55c\uc2e0\uacf5\uc601
p343
VKRX:004960
p344
sV\ubc31\uae08T&A
p345
VKOSDAQ:046310
p346
sV\ud55c\uad6d\uc815\ubcf4\uacf5\ud559
p347
VKOSDAQ:039740
p348
sV\uc720\ud654\uc99d\uad8c
p349
VKRX:003460
p350
sV\uc624\ub9ac\uc5d4\ud2b8\uc815\uacf5
p351
VKOSDAQ:065500
p352
sVJW\uc911\uc678\uc81c\uc57d2\uc6b0B
p353
VKRX:001067
p354
sV\uc528\uc5d8\uc778\ud130\ub0b4\uc154\ub110
p355
VKOSDAQ:037340
p356
sVSBS\ubbf8\ub514\uc5b4\ud640\ub529\uc2a4
p357
VKRX:101060
p358
sVTIGER \uae08\uc740\uc120\ubb3c(H)
p359
VKRX:139320
p360
sV\ud558\uc774\ub85d\ucf54\ub9ac\uc544
p361
VKOSDAQ:013030
p362
sV\ub098\uc2a4\ubbf8\ub514\uc5b4
p363
VKOSDAQ:089600
p364
sV\uc5d0\uc774\ube14\uc528\uc5d4\uc528
p365
VKRX:078520
p366
sV\uce90\uc2a4\ud14d\ucf54\ub9ac\uc544
p367
VKOSDAQ:071850
p368
sV\uc2e0\ub77c\uc5d0\uc2a4\uc9c0
p369
VKOSDAQ:025870
p370
sV\ud718\ub2c9\uc2a4\uc18c\uc7ac
p371
VKOSDAQ:050090
p372
sV\uc774\uc528\uc5d0\uc2a4
p373
VKOSDAQ:067010
p374
sV\ube44\ud2b8\ucef4\ud4e8\ud130
p375
VKOSDAQ:032850
p376
sV\uc2e0\uc131\uc774\uc5d4\uc9c0
p377
VKRX:104110
p378
sV\uae08\ud638\ud0c0\uc774\uc5b4
p379
VKRX:073240
p380
sV\uc77c\uc591\uc57d\ud488\uc6b0
p381
VKRX:007575
p382
sVKG\uc774\ub2c8\uc2dc\uc2a4
p383
VKOSDAQ:035600
p384
sV\ub3d9\ubd80\ud558\uc774\ud14d
p385
VKRX:000990
p386
sV\uc870\ube44
p387
VKRX:001550
p388
sV\ub300\ud654\uc81c\uc57d
p389
VKOSDAQ:067080
p390
sV\ud55c\uc194\ud640\ub529\uc2a4
p391
VKRX:004150
p392
sVTIGER S&P500\ub808\ubc84\ub9ac\uc9c0(\ud569\uc131 H)
p393
VKRX:225040
p394
sV\ud604\ub300\ub85c\ud15c
p395
VKRX:064350
p396
sV\ud55c\ud654\ud22c\uc790\uc99d\uad8c\uc6b0
p397
VKRX:003535
p398
sVKODEX \ubc38\ub958Plus
p399
VKRX:244670
p400
sVTIGER \ubc18\ub3c4\uccb4
p401
VKRX:091230
p402
sV\ud53c\uc5d0\uc2a4\uc5e0\uc528
p403
VKOSDAQ:024850
p404
sV\uc544\uc774\ub9c8\ucf13\ucf54\ub9ac\uc544
p405
VKRX:122900
p406
sV\uc0bc\ud654\uc804\uae30
p407
VKRX:009470
p408
sV\uc0c8\ub860\uc624\ud1a0\ubaa8\ud2f0\ube0c
p409
VKRX:075180
p410
sV\ucf54\ub77c\uc624\ud640\ub529\uc2a4
p411
VKRX:900140
p412
sVKINDEX \uc0bc\uc131\uadf8\ub8f9EW
p413
VKRX:131890
p414
sVKODEX \ubc30\ub2f9\uc131\uc7a5\ucc44\uad8c\ud63c\ud569
p415
VKRX:237370
p416
sV\uc0bc\uc601\ubb34\uc5ed
p417
VKRX:002810
p418
sV\ub2e4\uc6b0\uc778\ud050\ube0c
p419
VKRX:020120
p420
sV\ud32c\uc2a4\ud0c0\uc5d4\ud130\ud504\ub77c\uc774\uc988
p421
VKOSDAQ:054300
p422
sV\ub125\uc13c\ud14c\ud06c
p423
VKOSDAQ:073070
p424
sV\uc5d0\uc388\ud14c\ud06c
p425
VKOSDAQ:043340
p426
sV\uc5d0\uc2a4\ud14d\ud30c\ub9c8
p427
VKOSDAQ:041910
p428
sV\uc5e0\uc5d0\uc2a4\uc528
p429
VKOSDAQ:009780
p430
sV\uc774\uc544\uc774\ub514
p431
VKRX:093230
p432
sV\uc77c\ub3d9\uc81c\uc57d
p433
VKRX:000230
p434
sV\ub300\ub9bc\uc0b0\uc5c5\uc6b0
p435
VKRX:000215
p436
sV\uc0c1\uc544\ud504\ub860\ud14c\ud06c
p437
VKOSDAQ:089980
p438
sVKINDEX \uc77c\ubcf8\uc778\ubc84\uc2a4(\ud569\uc131 H)
p439
VKRX:205720
p440
sV\ub85c\uc5d4
p441
VKOSDAQ:016170
p442
sV\uc2e0\ud55c \ub2e4\uc6b0\uc874\uc2a4\uc9c0\uc218 \uc120\ubb3c ETN(H)
p443
VKRX:500009
p444
sV\ud558\uc774\ud2b8\uc9c4\ub85c\ud640\ub529\uc2a4\uc6b0
p445
VKRX:000145
p446
sVTIGER 200 \uacbd\uae30\uc18c\ube44\uc7ac
p447
VKRX:139290
p448
sV\uad11\uc8fc\uc740\ud589
p449
VKRX:192530
p450
sV\ud56b\ud14d
p451
VKRX:015540
p452
sV\ud55c\uad6d\uc8fc\uac15
p453
VKRX:025890
p454
sVTIGER \uacbd\uae30\ubc29\uc5b4
p455
VKRX:139280
p456
sVKODEX \uad6c\ub9ac\uc120\ubb3c(H)
p457
VKRX:138910
p458
sV\ud55c\ud654\ud22c\uc790\uc99d\uad8c
p459
VKRX:003530
p460
sV\ud55c\uad6d\uce90\ud53c\ud0c8
p461
VKOSDAQ:023760
p462
sV\ubbf8\ub798\uc5d0\uc14b \uc720\ub7fd \ub300\ud615\uc8fc ETN(H)
p463
VKRX:590003
p464
sV\ub300\uc131\ubbf8\uc0dd\ubb3c
p465
VKOSDAQ:036480
p466
sV\ud55c\uad6d\ucca0\uac15
p467
VKRX:104700
p468
sV\ubbf8\ub798\uc5d0\uc14b \ubbf8\uad6d \ubc14\uc774\ubc31 ETN(H)
p469
VKRX:590001
p470
sVQV \uc6b4\uc1a1 TOP5 ETN
p471
VKRX:550010
p472
sV\uc1a1\uc6d0\uc0b0\uc5c5
p473
VKRX:004430
p474
sVKODEX \ubaa8\uba58\ud140Plus
p475
VKRX:244620
p476
sV\ud0dc\ud3c9\uc591\ubb3c\uc0b0
p477
VKRX:007980
p478
sVS-Oil\uc6b0
p479
VKRX:010955
p480
sV\uc774\ub9c8\ud2b8
p481
VKRX:139480
p482
sVCJ\uc528\ud478\ub4dc
p483
VKRX:011150
p484
sV\uacc4\uc591\uc804\uae30
p485
VKRX:012200
p486
sV\ub0a8\uc591\uc720\uc5c5
p487
VKRX:003920
p488
sV\ud0d1\uc5d4\uc9c0\ub2c8\uc5b4\ub9c1
p489
VKOSDAQ:065130
p490
sV\ud55c\uc77c\ud654\ud559
p491
VKOSDAQ:007770
p492
sV\ud0dc\uc591\uae08\uc18d
p493
VKRX:004100
p494
sV\uc0bc\uc131 China A50 \uc120\ubb3c ETN(H)
p495
VKRX:530014
p496
sV\uc720\ud55c\uc591\ud589
p497
VKRX:000100
p498
sVKBSTAR 5\ub300\uadf8\ub8f9\uc8fc
p499
VKRX:105780
p500
sV\ub300\uc131\uc0b0\uc5c5
p501
VKRX:128820
p502
sV\ubb34\ub9bcP&P
p503
VKRX:009580
p504
sV\uc774\uc5f0\uc81c\uc57d
p505
VKRX:102460
p506
sV\uc774\ub8e8\uc628
p507
VKOSDAQ:065440
p508
sVKODEX Japan
p509
VKRX:101280
p510
sV\ubcf4\ud0c0\ubc14\uc774\uc624
p511
VKOSDAQ:026260
p512
sV\ube44\uc0c1\uad50\uc721
p513
VKRX:100220
p514
sV\uc30d\uc6a9\ucc28
p515
VKRX:003620
p516
sV\ud55c\uad6d\ud1a0\uc9c0\uc2e0\ud0c1
p517
VKRX:034830
p518
sV\ud3ec\uc2a4\ucf54 ICT
p519
VKOSDAQ:022100
p520
sV\uc720\uc9c4\uae30\uc5c5
p521
VKOSDAQ:023410
p522
sV\uc9c4\uc591\uc81c\uc57d
p523
VKOSDAQ:007370
p524
sVPIONEER SRI
p525
VKRX:148040
p526
sV\uc81c\ub099\uc2a4
p527
VKOSDAQ:065620
p528
sV\ub125\uc13c
p529
VKRX:005720
p530
sV\ud050\uc5d0\uc2a4\uc544\uc774
p531
VKOSDAQ:066310
p532
sV\uc548\uad6d\uc57d\ud488
p533
VKOSDAQ:001540
p534
sVIHQ
p535
VKRX:003560
p536
sV\uc6b0\ub9ac\uae30\uc220\ud22c\uc790
p537
VKOSDAQ:041190
p538
sV\uc601\uc9c4\uc57d\ud488
p539
VKRX:003520
p540
sV\ucf54\uc6f0\ud328\uc158
p541
VKOSDAQ:033290
p542
sVQV \uc218\uc790\uc6d0 \ud14c\ub9c8 ETN
p543
VKRX:550024
p544
sV\ub3d9\uc77c\uc0b0\uc5c5
p545
VKRX:004890
p546
sVKTcs
p547
VKRX:058850
p548
sV\uad6d\uc77c\uc81c\uc9c0
p549
VKOSDAQ:078130
p550
sVARIRANG \ub2e8\uae30\uc720\ub3d9\uc131
p551
VKRX:190160
p552
sV\ub355\uc131
p553
VKRX:004830
p554
sV\ub9c1\ub124\ud2b8
p555
VKOSDAQ:042500
p556
sV\ubca0\ud2b8\ub0a8\uac1c\ubc1c1
p557
VKRX:096300
p558
sVLG\uc0c1\uc0ac
p559
VKRX:001120
p560
sVDMS
p561
VKOSDAQ:068790
p562
sV\uc624\ub9ac\uc5d4\ud2b8\ubc14\uc774\uc624
p563
VKRX:002630
p564
sV\ud06c\ub9ac\uc2a4\ud0c8
p565
VKOSDAQ:083790
p566
sV\ucf54\uc2a4\ub9e5\uc2a4\ube44\ud2f0\uc544\uc774
p567
VKRX:044820
p568
sV\uc774\uadf8\uc7ad\uc2a4
p569
VKOSDAQ:060230
p570
sV\uc720\ub2c8\ub354\uc2a4
p571
VKOSDAQ:044480
p572
sV\ucf54\uc624\ub871\uae00\ub85c\ubc8c\uc6b0
p573
VKRX:003075
p574
sV\uad11\uc8fc\uc2e0\uc138\uacc4
p575
VKRX:037710
p576
sV\uc0bc\ubaa9\uc5d0\uc2a4\ud3fc
p577
VKOSDAQ:018310
p578
sV\ubd80\ubc29
p579
VKOSDAQ:014470
p580
sV\ub300\uc6d0\uac15\uc5c5
p581
VKRX:000430
p582
sVKODEX \uc870\uc120
p583
VKRX:102960
p584
sV\ubd80\uc0b0\uc8fc\uacf5
p585
VKRX:005030
p586
sV\uae68\ub057\ud55c\ub098\ub77c\uc6b0
p587
VKRX:004545
p588
sVQV \ud558\ub4dc\uc6e8\uc5b4 TOP5 ETN
p589
VKRX:550009
p590
sV\uc0bc\uc591\ud640\ub529\uc2a4
p591
VKRX:000070
p592
sV\ud604\ub300\ube44\uc564\uc9c0\uc2a4\ud2f8\uc6b0
p593
VKRX:004565
p594
sV\ud55c\uc9c4
p595
VKRX:002320
p596
sV\uc7ac\uc601\uc194\ub8e8\ud14d
p597
VKOSDAQ:049630
p598
sV\ub3d9\uc9c4\uc384\ubbf8\ucf10
p599
VKOSDAQ:005290
p600
sV\ub274\ud504\ub809\uc2a4
p601
VKOSDAQ:085670
p602
sVKINDEX \ubc30\ub2f9\uc131\uc7a5
p603
VKRX:211260
p604
sV\uc0bc\uc77c\uae30\uc5c5\uacf5\uc0ac
p605
VKOSDAQ:002290
p606
sV\ud55c\uad6d\ud050\ube45
p607
VKOSDAQ:021650
p608
sV\uc138\uae30\uc0c1\uc0ac
p609
VKRX:002420
p610
sV\uc11c\ud638\uc804\uae30
p611
VKOSDAQ:065710
p612
sV\uce74\uc2a4
p613
VKOSDAQ:016920
p614
sV\ud0dc\uc591\uae08\uc18d\uc6b0
p615
VKRX:004105
p616
sV\uc6d0\ud48d
p617
VKOSDAQ:008370
p618
sV\ub3d9\uad6d\uc2e4\uc5c5
p619
VKRX:001620
p620
sV\uc138\uc6b0\uae00\ub85c\ubc8c
p621
VKRX:013000
p622
sV\uc54c\uc5d0\ud504\ud14d
p623
VKOSDAQ:061040
p624
sVKODEX \uc5d0\ub108\uc9c0\ud654\ud559
p625
VKRX:117460
p626
sV\uc774\ub79c\ud14d
p627
VKOSDAQ:054210
p628
sV\ud604\ub300\ucc283\uc6b0B
p629
VKRX:005389
p630
sV\ud654\uc2e0\ud14c\ud06c
p631
VKOSDAQ:086250
p632
sV\ud504\ub7fc\ud30c\uc2a4\ud2b8
p633
VKOSDAQ:035200
p634
sV\uac8c\uc784\ube4c
p635
VKOSDAQ:063080
p636
sV\uc5d4\ud53c\ucf00\uc774
p637
VKOSDAQ:048830
p638
sV\ud55c\uad6d\ud56d\uacf5\uc6b0\uc8fc
p639
VKRX:047810
p640
sV\uc774\ud654\uc0b0\uc5c5
p641
VKRX:000760
p642
sV\uc778\uc9c0\ub514\uc2a4\ud50c\ub808
p643
VKOSDAQ:037330
p644
sVCJ
p645
VKRX:001040
p646
sVKODEX \uc0bc\uc131\uadf8\ub8f9\ubc38\ub958
p647
VKRX:213610
p648
sVCS
p649
VKOSDAQ:065770
p650
sVTIGER 200
p651
VKRX:102110
p652
sVQV \uc870\uc120 TOP5 ETN
p653
VKRX:550007
p654
sVSK\uc774\ub178\ubca0\uc774\uc158\uc6b0
p655
VKRX:096775
p656
sV\ucf54\ub9ac\uc544\ub098
p657
VKOSDAQ:027050
p658
sVKODEX MSCI\ub3c5\uc77c(\ud569\uc131)
p659
VKRX:200050
p660
sV\uc774\uc5d4\uc4f0\ub9ac
p661
VKRX:074610
p662
sV\uc0bc\ub96d\ubb3c\uc0b0
p663
VKOSDAQ:014970
p664
sV\uc720\uc544\uc774\uc5d8
p665
VKOSDAQ:049520
p666
sV\uc82c\ubc31\uc2a4\ud14c\ud06c\ub180\ub7ec\uc9c0
p667
VKOSDAQ:041590
p668
sV\uc138\uc544\uc81c\uac15
p669
VKRX:003030
p670
sV\ucf00\uc774\ud2f0\uc2a4
p671
VKRX:058860
p672
sV\uc11c\uc5f0
p673
VKRX:007860
p674
sV\uc0bc\uc775THK
p675
VKRX:004380
p676
sV\ud55c\uc9c4\ud53c\uc564\uc528
p677
VKOSDAQ:061460
p678
sV\uc2e0\ud55c \uc778\ubc84\uc2a4 \ube0c\ub80c\ud2b8\uc6d0\uc720 \uc120\ubb3c ETN(H)
p679
VKRX:500005
p680
sV\ub3d9\uc77c\uc81c\uac15
p681
VKRX:002690
p682
sV\ubaa8\ud5e8\uc988
p683
VKOSDAQ:006920
p684
sV\ud32c\uc5d4\ud130\ud14c\uc778\uba3c\ud2b8
p685
VKOSDAQ:068050
p686
sV\ud55c\uad6d\uc720\ub9ac
p687
VKRX:002000
p688
sV\uc138\ubc29\uc804\uc9c0
p689
VKRX:004490
p690
sV\uc789\ud06c\ud14c\ud06c
p691
VKOSDAQ:049550
p692
sVKODEX \uc740\ud589
p693
VKRX:091170
p694
sVKODEX \uac00\uce58\ud22c\uc790
p695
VKRX:247780
p696
sV\ub86f\ub370\uad00\uad11\uac1c\ubc1c
p697
VKRX:032350
p698
sV\uc1fc\ubc15\uc2a4
p699
VKOSDAQ:086980
p700
sVTIGER \uc18c\ud504\ud2b8\uc6e8\uc5b4
p701
VKRX:157490
p702
sV\uc778\ub514\uc5d0\ud504
p703
VKRX:014990
p704
sV\ud55c\uad6d\uc885\ud569\uae30\uc220
p705
VKRX:023350
p706
sV\ub300\uc2e0\uc99d\uad8c2\uc6b0B
p707
VKRX:003547
p708
sVLG\uc804\uc790\uc6b0
p709
VKRX:066575
p710
sV\ucf00\uc774\uc528\ud2f0
p711
VKOSDAQ:089150
p712
sV\ubc14\uc774\uc624\ub2c8\uc544
p713
VKOSDAQ:064550
p714
sV\ub300\uc6b0 \uc778\ubc84\uc2a4 \uc5d0\ub108\uc9c0\ud654\ud559 Core5 ETN
p715
VKRX:520007
p716
sV\uc774-\uae00 \ubcb3
p717
VKOSDAQ:044960
p718
sV\uc2e0\ud55c
p719
VKRX:005450
p720
sV\ub3d9\uc6d0\uac1c\ubc1c
p721
VKOSDAQ:013120
p722
sV\uc634\ub2c8\ud154
p723
VKOSDAQ:057680
p724
sVTHE E&M
p725
VKOSDAQ:089230
p726
sV\uac00\uc628\ubbf8\ub514\uc5b4
p727
VKOSDAQ:078890
p728
sV\uc2e0\uc138\uacc4
p729
VKRX:004170
p730
sV\ud310\ud0c0\uc9c0\uc624
p731
VKOSDAQ:032800
p732
sVSK\uc774\ub178\ubca0\uc774\uc158
p733
VKRX:096770
p734
sV\uc0bc\uc131\ucd9c\ud310\uc0ac
p735
VKRX:068290
p736
sVQV \uace0\ub839\ud654 \ud14c\ub9c8 ETN
p737
VKRX:550023
p738
sV\uc18c\ud504\ud2b8\uc13c\uc6b0
p739
VKOSDAQ:032685
p740
sV\uc2e0\ud55c \uad6c\ub9ac \uc120\ubb3c ETN(H)
p741
VKRX:500018
p742
sV\ubbf8\ub798\uc5d0\uc14b \ubbf8\uad6d \ub9ac\uce20 ETN(H)
p743
VKRX:590013
p744
sV\uc2e0\ud48d\uc81c\uc57d\uc6b0
p745
VKRX:019175
p746
sV\uae08\ube44
p747
VKRX:008870
p748
sV\ud604\ub300EP
p749
VKRX:089470
p750
sVKODEX 10\ub144\uad6d\ucc44\uc120\ubb3c
p751
VKRX:152380
p752
sV\ub300\uba85\ucf54\ud37c\ub808\uc774\uc158
p753
VKOSDAQ:007720
p754
sV\uc787\uce20\uc2a4\ud0a8
p755
VKRX:226320
p756
sVKBSTAR \ub808\ubc84\ub9ac\uc9c0
p757
VKRX:123760
p758
sVQV \uc804\uae30\ucc28 \ud14c\ub9c8 ETN
p759
VKRX:550019
p760
sV\uc2e0\ud6c4
p761
VKOSDAQ:066430
p762
sV\ud648\uc13c\ud0c0
p763
VKOSDAQ:060560
p764
sV\ub3d9\ubd80\uc81c\ucca0\uc6b0
p765
VKRX:016385
p766
sV\uc5d0\uc2a4\ub9c8\ud06c
p767
VKOSDAQ:030270
p768
sV\uc870\uad11\ud53c\ud601
p769
VKRX:004700
p770
sVTIGER \ubaa8\uba58\ud140
p771
VKRX:147970
p772
sV\ud55c\uc9c4\uc911\uacf5\uc5c5
p773
VKRX:097230
p774
sVKODEX 200 \ub300\ud615
p775
VKRX:237350
p776
sV\uc11c\uc6d0
p777
VKRX:021050
p778
sVARIRANG AC \uc6d4\ub4dc(\ud569\uc131 H)
p779
VKRX:189400
p780
sV\uc720\uc9c4\ud14c\ud06c
p781
VKOSDAQ:084370
p782
sV\ub125\uc2a4\ud2b8BT
p783
VKOSDAQ:065170
p784
sV\uc774\uc218\ud654\ud559
p785
VKRX:005950
p786
sV\uc18c\ub9ac\ubc14\ub2e4
p787
VKOSDAQ:053110
p788
sV\ubbf8\ub798\uc5d0\uc14b \uc77c\ubcf8 \ubc14\uc774\ubc31 ETN(H)
p789
VKRX:590002
p790
sVKBSTAR V&S\uc140\ub809\ud2b8\ubc38\ub958\ucc44\uad8c\ud63c\ud569
p791
VKRX:241390
p792
sVKT\uc11c\ube0c\ub9c8\ub9b0
p793
VKOSDAQ:060370
p794
sV\ubd80\uad6d\ucca0\uac15
p795
VKRX:026940
p796
sV\ucf54\uc2a4\ub9e5\uc2a4
p797
VKRX:192820
p798
sV\ub3c4\uc774\uce58\ubaa8\ud130\uc2a4
p799
VKOSDAQ:067990
p800
sV\uc0bc\uc131\ubb3c\uc0b0
p801
VKRX:028260
p802
sVKCC\uac74\uc124
p803
VKOSDAQ:021320
p804
sVTIGER \uc740\ud589
p805
VKRX:091220
p806
sV\ud48d\uad6d\uc8fc\uc815
p807
VKOSDAQ:023900
p808
sV\ub86f\ub370\uc81c\uacfc
p809
VKRX:004990
p810
sV\uc640\uc774\ub514\uc628\ub77c\uc778
p811
VKOSDAQ:052770
p812
sV\ud654\uc77c\uc57d\ud488
p813
VKOSDAQ:061250
p814
sV\uc774\uc9c0\ubc14\uc774\uc624
p815
VKOSDAQ:035810
p816
sVQV 2\ucc28\uc804\uc9c0 \ud14c\ub9c8 ETN
p817
VKRX:550020
p818
sVKBSTAR 200
p819
VKRX:148020
p820
sVSM C&C
p821
VKOSDAQ:048550
p822
sV\ud30c\ub8e8
p823
VKOSDAQ:043200
p824
sV\uc778\uc2a4\ucf54\ube44
p825
VKRX:006490
p826
sV\uc544\uc2dc\uc54410\ud638
p827
VKRX:083570
p828
sV\uc544\ubbf8\ub178\ub85c\uc9c1\uc2a4
p829
VKOSDAQ:074430
p830
sV\uc0bc\uc131 \ubbf8\ub514\uc5b4 \ud14c\ub9c8\uc8fc ETN
p831
VKRX:530008
p832
sV\uc720\uc720\uc81c\uc57d
p833
VKRX:000220
p834
sV\uacc4\uc591\uc804\uae30\uc6b0
p835
VKRX:012205
p836
sV\ub3d9\uc591\uc5d0\uc2a4\ud14d
p837
VKOSDAQ:060380
p838
sV\ub300\ub355GDS\uc6b0
p839
VKRX:004135
p840
sV\uc720\ube44\ucf00\uc5b4
p841
VKOSDAQ:032620
p842
sV\ud55c\uad6d\uae08\uc735\uc9c0\uc8fc\uc6b0
p843
VKRX:071055
p844
sV\ub300\uc6c5\uc81c\uc57d
p845
VKRX:069620
p846
sV\uc0ac\uc870\uc0b0\uc5c5
p847
VKRX:007160
p848
sV\uacbd\ucc3d\uc0b0\uc5c5
p849
VKOSDAQ:024910
p850
sV\ubcf4\ud574\uc591\uc870
p851
VKRX:000890
p852
sV\ud55c\uc194\ud14c\ud06c\ub2c9\uc2a4
p853
VKRX:004710
p854
sV\ub300\uc131\ud569\ub3d9\uc9c0\uc8fc
p855
VKRX:005620
p856
sVTRUE \ub808\ubc84\ub9ac\uc9c0 \uc5d4\uc120\ubb3c ETN
p857
VKRX:570011
p858
sV\ud55c\uad6d\ucf5c\ub9c8\ud640\ub529\uc2a4
p859
VKRX:024720
p860
sVTIGER \ud654\uc7a5\ud488
p861
VKRX:228790
p862
sVCJ CGV
p863
VKRX:079160
p864
sV\ud604\ub300\uc704\uc544
p865
VKRX:011210
p866
sV\ud734\ub2c8\ub4dc
p867
VKRX:005870
p868
sV\uc544\ubaa8\ub808G
p869
VKRX:002790
p870
sV\uc778\ucf58
p871
VKOSDAQ:083640
p872
sV\uc0bc\uc131\uc5d4\uc9c0\ub2c8\uc5b4\ub9c1
p873
VKRX:028050
p874
sV\uc720\uc5d4\uc824
p875
VKRX:072130
p876
sV\uc5d0\uc774\ud2f0\uc138\ubbf8\ucf58
p877
VKOSDAQ:089530
p878
sV\uc30d\uc6a9\uc591\ud68c\uc6b0
p879
VKRX:003415
p880
sV\uc131\uc9c0\uac74\uc124
p881
VKRX:005980
p882
sV\ucf54\ub098\uc544\uc774
p883
VKOSDAQ:052400
p884
sVKOSEF KRX100
p885
VKRX:100910
p886
sV\ub3d9\uc5912\uc6b0B
p887
VKRX:001527
p888
sVLG\uc0dd\ud65c\uac74\uac15
p889
VKRX:051900
p890
sVGS\ub9ac\ud14c\uc77c
p891
VKRX:007070
p892
sV\ud478\ub978\uc800\ucd95\uc740\ud589
p893
VKOSDAQ:007330
p894
sV\ub808\uc774\uc820
p895
VKOSDAQ:047440
p896
sV\uc790\ud654\uc804\uc790
p897
VKRX:033240
p898
sV\ud2b8\ub7ec\uc2a4\uc81c7\ud638
p899
VKRX:140890
p900
sV\ud55c\ud654\uc6b0
p901
VKRX:000885
p902
sV\ubc84\ucd94\uc5bc\ud14d
p903
VKOSDAQ:036620
p904
sV\ucf54\ub9ac\uc548\ub9ac
p905
VKRX:003690
p906
sV\uc544\uc138\uc544\ud14d
p907
VKOSDAQ:050860
p908
sVTRUE \uc139\ud130\ud0d1\ud53d ETN
p909
VKRX:570008
p910
sV\uc528\uc5d0\uc2a4\uc708\ub4dc
p911
VKRX:112610
p912
sVQV \uc790\ub3d9\ucc28 TOP5 ETN
p913
VKRX:550011
p914
sV\uc5d8\ube44\uc138\ubbf8\ucf58
p915
VKOSDAQ:061970
p916
sV\ucf54\ub514\uc5d0\uc2a4
p917
VKOSDAQ:080530
p918
sVTIGER \ud654\ud559
p919
VKRX:157520
p920
sVQV KTOP30 ETN
p921
VKRX:550026
p922
sV\ub370\ucf54\uc564\uc774
p923
VKOSDAQ:017680
p924
sVARIRANG \ucc28\uc774\ub098H \ub808\ubc84\ub9ac\uc9c0(\ud569\uc131 H)
p925
VKRX:204420
p926
sV\uc544\ube44\ucf54\uc804\uc790
p927
VKOSDAQ:036010
p928
sV\uc815\uc0b0\uc560\uac15
p929
VKOSDAQ:022220
p930
sV\uc544\uac00\ubc29\ucef4\ud37c\ub2c8
p931
VKOSDAQ:013990
p932
sV\uc704\ub178\ubc14
p933
VKOSDAQ:039790
p934
sV\uc5d8\uc5e0\uc5d0\uc2a4
p935
VKOSDAQ:073110
p936
sV\uc2e0\ud765
p937
VKRX:004080
p938
sV\ub178\ub8e8\ud398\uc778\ud2b8\uc6b0
p939
VKRX:090355
p940
sV\uc624\ud508\ubca0\uc774\uc2a4
p941
VKOSDAQ:049480
p942
sV\uc5d0\uc2a4\ud2f0\ud050\ube0c
p943
VKOSDAQ:052020
p944
sV\ud765\uad6c\uc11d\uc720
p945
VKOSDAQ:024060
p946
sV\uc6b0\uc2e0\uc2dc\uc2a4\ud15c
p947
VKRX:017370
p948
sV\uc5e0\ucf00\uc774\ud2b8\ub80c\ub4dc
p949
VKRX:069640
p950
sV\uc131\uc2e0\uc591\ud68c
p951
VKRX:004980
p952
sV\ud55c\uad6d\uac00\uc2a4\uacf5\uc0ac
p953
VKRX:036460
p954
sVKODEX KTOP30
p955
VKRX:229720
p956
sVSK\ub124\ud2b8\uc6cd\uc2a4
p957
VKRX:001740
p958
sV\uce94\ub4e4\ubbf8\ub514\uc5b4
p959
VKOSDAQ:066410
p960
sV\uc6d0\ud48d\ubb3c\uc0b0
p961
VKOSDAQ:008290
p962
sV\uc774\ud14c\ud06c\uac74\uc124
p963
VKOSDAQ:016250
p964
sVTREX \ud380\ub354\uba58\ud0c8 200
p965
VKRX:145850
p966
sVTIGER 200 \uac74\uc124
p967
VKRX:139220
p968
sV\uc6b0\ub9ac\uc774\ud2f0\uc544\uc774
p969
VKOSDAQ:082850
p970
sVJB\uae08\uc735\uc9c0\uc8fc
p971
VKRX:175330
p972
sV\ub514\uc624
p973
VKOSDAQ:039840
p974
sVTIGER 200 \ucca0\uac15\uc18c\uc7ac
p975
VKRX:139240
p976
sVTIGER \ucf54\uc2a4\ub2e5150 \ub808\ubc84\ub9ac\uc9c0
p977
VKRX:233160
p978
sV\uc624\uc2a4\ud15c
p979
VKOSDAQ:031510
p980
sV\uc544\uc774\ub514\uc2a4\ud640\ub529\uc2a4
p981
VKOSDAQ:054800
p982
sV\ub300\ud55c\ubc29\uc9c1
p983
VKRX:001070
p984
sV\ud55c\uc804KPS
p985
VKRX:051600
p986
sV\uad11\uc804\uc790
p987
VKRX:017900
p988
sV\uc2e0\ud55c USD K200 \uc120\ubb3c \ubc14\uc774\uc140 ETN
p989
VKRX:500002
p990
sV\uc30d\uc6a9\uc591\ud68c
p991
VKRX:003410
p992
sVLS\uc0b0\uc804
p993
VKRX:010120
p994
sV\uc544\ub9ac\uc628
p995
VKOSDAQ:058220
p996
sV\ud55c\ud654\ucf00\ubbf8\uce7c\uc6b0
p997
VKRX:009835
p998
sV\ucf54\uc6e8\uc774
p999
VKRX:021240
p1000
sV\ubbf8\ub798\uc5d0\uc14b \ubbf8\uad6d \ub300\ud615\uc8fc ETN(H)
p1001
VKRX:590007
p1002
sVTIGER \uae08\uc18d\uc120\ubb3c(H)
p1003
VKRX:139310
p1004
sV\uc544\uc774\uc774
p1005
VKOSDAQ:023430
p1006
sV\ub514\uc9c0\uc544\uc774
p1007
VKOSDAQ:043360
p1008
sV\uc870\uc77c\uc54c\ubbf8\ub284
p1009
VKRX:018470
p1010
sVKINDEX \ubca0\ud2b8\ub0a8VN30(\ud569\uc131)
p1011
VKRX:245710
p1012
sVKODEX 200 \uc911\uc18c\ud615
p1013
VKRX:226980
p1014
sV\ub300\uc601\ud3ec\uc7a5
p1015
VKRX:014160
p1016
sVTIGER \ucc28\uc774\ub098A\uc778\ubc84\uc2a4(\ud569\uc131)
p1017
VKRX:217780
p1018
sV\uc384\ub2c8\ud2b8
p1019
VKOSDAQ:037760
p1020
sV\ub354\uc874\ube44\uc988\uc628
p1021
VKRX:012510
p1022
sVWISCOM
p1023
VKRX:024070
p1024
sVTCC\ub3d9\uc591
p1025
VKRX:002710
p1026
sV\ud765\uad6d
p1027
VKOSDAQ:010240
p1028
sV\uc5d4\uc54c\ucf00\uc774
p1029
VKOSDAQ:054340
p1030
sV\ub300\ud55c\uad11\ud1b5\uc2e0
p1031
VKOSDAQ:010170
p1032
sVKODEX \ubbf8\uad6dIT(\ud569\uc131)
p1033
VKRX:200020
p1034
sV\uc720\ub2c8\ud06c
p1035
VKOSDAQ:011320
p1036
sV\ud2f0\uc6e8\uc774\ud640\ub529\uc2a4
p1037
VKRX:004870
p1038
sVARIRANG \uace0\ubc30\ub2f9\uc8fc
p1039
VKRX:161510
p1040
sV\ucf54\ub9ac\uc544\uc368\ud0a4\ud2b82\uc6b0B
p1041
VKRX:00781K
p1042
sV\uc0bc\ud638\uac1c\ubc1c
p1043
VKRX:010960
p1044
sV\ud305\ud06c\uc6e8\uc5b4
p1045
VKOSDAQ:084730
p1046
sV\ub3d9\ubd80
p1047
VKRX:012030
p1048
sV\ud558\uc774\ud2b8\uc9c4\ub85c
p1049
VKRX:000080
p1050
sV\uc77c\uc591\uc57d\ud488
p1051
VKRX:007570
p1052
sV\ud55c\uc9c4\ud574\uc6b4
p1053
VKRX:117930
p1054
sV\uc6b0\uc218AMS
p1055
VKOSDAQ:066590
p1056
sV\uc2a4\ud3ec\uce20\uc11c\uc6b8
p1057
VKOSDAQ:039670
p1058
sVDSR
p1059
VKRX:155660
p1060
sV\ub514\uc544\uc774\uc528
p1061
VKRX:092200
p1062
sV\ub124\uc624\ud2f0\uc2a4
p1063
VKOSDAQ:085910
p1064
sV\uc11c\ubd80T&D
p1065
VKOSDAQ:006730
p1066
sV\uc2e0\uc77c\uc81c\uc57d
p1067
VKOSDAQ:012790
p1068
sV\uacbd\uc778\uc804\uc790
p1069
VKRX:009140
p1070
sV\uc138\ud558
p1071
VKRX:027970
p1072
sV\ub3d9\uc131\ucf54\ud37c\ub808\uc774\uc158
p1073
VKRX:102260
p1074
sVKODEX \ud134\uc5b4\ub77c\uc6b4\ub4dc\ud22c\uc790
p1075
VKRX:247800
p1076
sV\ud55c\uc77c\ub124\ud2b8\uc6cd\uc2a4
p1077
VKOSDAQ:046110
p1078
sVKBSTAR \uc911\uad6d\ubcf8\ud1a0\ub300\ud615\uc8fcCSI100
p1079
VKRX:174360
p1080
sV\ud604\ub300\ubaa8\ube44\uc2a4
p1081
VKRX:012330
p1082
sV\ub179\uc2ed\uc790\uc140
p1083
VKOSDAQ:031390
p1084
sVKISCO\ud640\ub529\uc2a4
p1085
VKRX:001940
p1086
sV\uc624\uc0c1\uc790\uc774\uc5d8
p1087
VKOSDAQ:053980
p1088
sV\ub300\uc6b0 \uc804\uae30\uc804\uc790 Core5 ETN
p1089
VKRX:520004
p1090
sV\ud55c\uad6d\uc804\uc790\ud640\ub529\uc2a4
p1091
VKRX:006200
p1092
sV\uba54\ub514\ud1a1\uc2a4
p1093
VKOSDAQ:086900
p1094
sV\ud55c\uad6d\uc54c\ucf5c
p1095
VKOSDAQ:017890
p1096
sV\ud55c\uc62c\ubc14\uc774\uc624\ud30c\ub9c8
p1097
VKRX:009420
p1098
sVKD\uac74\uc124
p1099
VKOSDAQ:044180
p1100
sVGMR \uba38\ud2f0\ub9ac\uc5bc\uc988
p1101
VKOSDAQ:032860
p1102
sVS-Oil
p1103
VKRX:010950
p1104
sV\uae30\uc2e0\uc815\uae30
p1105
VKRX:092440
p1106
sV\uc0bc\uc131 \ub808\ubc84\ub9ac\uc9c0 China A50 \uc120\ubb3c ETN(H)
p1107
VKRX:530023
p1108
sV\uc728\ucd0c\ud654\ud559
p1109
VKRX:008730
p1110
sVKOSEF 200 \uc120\ubb3c
p1111
VKRX:152280
p1112
sV\uc11c\uc6b8\ub9ac\uac70
p1113
VKOSDAQ:043710
p1114
sV\uc601\uc6d0\ubb34\uc5ed
p1115
VKRX:111770
p1116
sV\uc131\uc2e0\uc591\ud68c3\uc6b0B
p1117
VKRX:004989
p1118
sV\uad6d\uc601\uc9c0\uc564\uc5e0
p1119
VKOSDAQ:006050
p1120
sV\uc6f0\ud06c\ub860
p1121
VKOSDAQ:065950
p1122
sV\uc81c\uc774\uc5d0\uc2a4\ud2f0\ub098
p1123
VKOSDAQ:026040
p1124
sV\uc0bc\uc131 \uc628\ub77c\uc778\uc1fc\ud551 \ud14c\ub9c8\uc8fc ETN
p1125
VKRX:530011
p1126
sV\ube44\uce20\ub85c\ud14c\ud06c
p1127
VKOSDAQ:042370
p1128
sV\uc5d0\ucf54\ud504\ub85c
p1129
VKOSDAQ:086520
p1130
sVSBS
p1131
VKRX:034120
p1132
sVTRUE \uc778\ubc84\uc2a4 \uc720\ub85c\uc2a4\ud0c1\uc2a450 ETN(H)
p1133
VKRX:570004
p1134
sV\uc0bc\uc9c4\uc5d8\uc564\ub514
p1135
VKOSDAQ:054090
p1136
sVable \uc6b0\ub7c9\uc8fc Monthly Best 11 ETN
p1137
VKRX:580005
p1138
sV\ucf54\uc704\ubc84
p1139
VKOSDAQ:056360
p1140
sV\uc778\ud504\ub77c\uc6e8\uc5b4
p1141
VKOSDAQ:041020
p1142
sV\uc0bc\uc131 \ubbf8\uad6d \uc911\uc18c\ud615 \uac00\uce58\uc8fc ETN(H)
p1143
VKRX:530018
p1144
sV\uad50\ubcf4\uc99d\uad8c
p1145
VKRX:030610
p1146
sV\ud55c\uc138\uc608\uc2a424\ud640\ub529\uc2a4
p1147
VKRX:016450
p1148
sVTIGER \ub77c\ud2f4
p1149
VKRX:105010
p1150
sVYG PLUS
p1151
VKRX:037270
p1152
sV\uc77c\uc2e0\ubc14\uc774\uc624
p1153
VKOSDAQ:068330
p1154
sV\uc36c\ucf54\uc5b4
p1155
VKOSDAQ:051170
p1156
sV\ud2f0\ube44\uc528
p1157
VKOSDAQ:033830
p1158
sVMPK
p1159
VKOSDAQ:065150
p1160
sV\uc544\uc138\uc544\uc2dc\uba58\ud2b8
p1161
VKRX:183190
p1162
sV\uc194\ub77c\uc2dc\uc544
p1163
VKOSDAQ:070300
p1164
sV\uc2e0\ud55c \uc778\ubc84\uc2a4 \uc740 \uc120\ubb3c ETN(H)
p1165
VKRX:500007
p1166
sV\uc544\uc774\uc5d0\uc774
p1167
VKOSDAQ:038880
p1168
sVTRUE \ucf54\uc2a4\ud53c \uc120\ubb3c\ub9e4\ub3c4 \ud48b\ub9e4\ub3c4 ETN
p1169
VKRX:570002
p1170
sVARIRANG 200
p1171
VKRX:152100
p1172
sV\uc5d0\uc2a4\uc5e0
p1173
VKOSDAQ:041510
p1174
sV\ud55c\uad6d\uce74\ubcf8
p1175
VKRX:017960
p1176
sV\uc5d0\uc2a4\uc5d8
p1177
VKRX:005850
p1178
sV\uc720\uc564\uc544\uc774
p1179
VKOSDAQ:056090
p1180
sV\uc0bc\uc131 \ubbf8\uad6d \ub300\ud615 \uc131\uc7a5\uc8fc ETN(H)
p1181
VKRX:530015
p1182
sV\uae08\ud638\uc0b0\uc5c5
p1183
VKRX:002990
p1184
sV\uc0bc\uc131\ud654\uc7ac
p1185
VKRX:000810
p1186
sV\ud765\uad6d\ud654\uc7ac\uc6b0
p1187
VKRX:000545
p1188
sV\uc5e0\ucf00\uc774\uc804\uc790
p1189
VKOSDAQ:033160
p1190
sV\ub300\uc0c1\ud640\ub529\uc2a4
p1191
VKRX:084690
p1192
sV\ubaa8\ud1a0\ub2c9
p1193
VKRX:009680
p1194
sVKOSEF 10\ub144\uad6d\uace0\ucc44
p1195
VKRX:148070
p1196
sV\ud604\ub300\uc57d\ud488
p1197
VKRX:004310
p1198
sVKINDEX \ucf54\uc2a4\ub2e5 150
p1199
VKRX:227930
p1200
sVSK\ud154\ub808\ucf64
p1201
VKRX:017670
p1202
sV\uc6d0\ub9bc
p1203
VKRX:005820
p1204
sV\ud53c\uc5d0\uc2a4\ud14d
p1205
VKOSDAQ:002230
p1206
sV\ub514\ucf00\uc774\ub514\uc564\uc544\uc774
p1207
VKOSDAQ:033310
p1208
sVSTX
p1209
VKRX:011810
p1210
sV\uc9c0\uc5d4\ucf54
p1211
VKOSDAQ:065060
p1212
sV\uc544\uc774\uc988\ube44\uc804
p1213
VKOSDAQ:031310
p1214
sVCJ\uc81c\uc77c\uc81c\ub2f9 \uc6b0
p1215
VKRX:097955
p1216
sVTIGER \ubbf8\uad6d\ub2e4\uc6b0\uc874\uc2a430
p1217
VKRX:245340
p1218
sVTIGER \ucc28\uc774\ub098
p1219
VKRX:117690
p1220
sV\ud615\uc9c0\uc5d8\ub9ac\ud2b8
p1221
VKRX:093240
p1222
sV\uc778\ud53c\ub2c8\ud2b8\ud5ec\uc2a4\ucf00\uc5b4
p1223
VKOSDAQ:071200
p1224
sV\uc0bc\uc131 \ubc14\uc774\uc624 \ud14c\ub9c8\uc8fc ETN
p1225
VKRX:530005
p1226
sV\uc2e0\uc1a1\ud640\ub529\uc2a4
p1227
VKRX:006880
p1228
sV\uc0bc\uc131\uc81c\uc57d
p1229
VKRX:001360
p1230
sV\ub300\ud55c\uc81c\uac15
p1231
VKRX:084010
p1232
sV\uc77c\uc57c
p1233
VKOSDAQ:058450
p1234
sV\ub514\uc640\uc774
p1235
VKRX:013570
p1236
sVSK\ud558\uc774\ub2c9\uc2a4
p1237
VKRX:000660
p1238
sVQV CHINEXT ETN(H)
p1239
VKRX:550018
p1240
sVTIGER \uc778\ub3c4\ub808\ubc84\ub9ac\uc9c0(\ud569\uc131)
p1241
VKRX:236350
p1242
sV\uc5e0\ubca4\ucc98\ud22c\uc790
p1243
VKOSDAQ:019590
p1244
sV\uc6d0\uc775
p1245
VKOSDAQ:032940
p1246
sVNH\ud22c\uc790\uc99d\uad8c
p1247
VKRX:005940
p1248
sV\uc5d0\ub108\ud1a0\ud06c
p1249
VKOSDAQ:019990
p1250
sV\uc0bc\uc601\uc5e0\ud14d
p1251
VKOSDAQ:054540
p1252
sV\uc635\ud2b8\ub860\ud14d
p1253
VKOSDAQ:082210
p1254
sV\uc870\ud765
p1255
VKRX:002600
p1256
sV\uc2e0\uc138\uacc4\uc778\ud130\ub0b4\uc154\ub0a0
p1257
VKRX:031430
p1258
sV\ubbf8\ucc3d\uc11d\uc720
p1259
VKRX:003650
p1260
sVTPC
p1261
VKOSDAQ:048770
p1262
sVKINDEX \ubbf8\uad6d\ub9ac\uce20\ubd80\ub3d9\uc0b0(\ud569\uc131 H)
p1263
VKRX:181480
p1264
sV\ud1a0\ube44\uc2a4
p1265
VKOSDAQ:051360
p1266
sVHRS
p1267
VKOSDAQ:036640
p1268
sV\ub3d9\uc11c
p1269
VKRX:026960
p1270
sV\ucf54\ub9ac\uc544\uc368\ud0a4\ud2b8
p1271
VKRX:007810
p1272
sV\uc131\ucc3d\uae30\uc5c5\uc9c0\uc8fc
p1273
VKRX:000180
p1274
sVKINDEX \ub2e8\uae30\uc790\uae08
p1275
VKRX:190620
p1276
sV\uc9c0\uc5b4\uc18c\ud504\ud2b8
p1277
VKOSDAQ:051160
p1278
sV\uc2e0\ud654\uc2e4\uc5c5
p1279
VKRX:001770
p1280
sV\uc624\ub974\ube44\ud14d
p1281
VKOSDAQ:046120
p1282
sV\ub3d9\uc6d0\uc218\uc0b0
p1283
VKRX:030720
p1284
sVSK\uc99d\uad8c\uc6b0
p1285
VKRX:001515
p1286
sV\uc548\ub7a9
p1287
VKOSDAQ:053800
p1288
sV\ud30c\uc778\ub514\uc9c0\ud138
p1289
VKOSDAQ:038950
p1290
sV\ud6c4\uc131
p1291
VKRX:093370
p1292
sV\ub300\ub3d9\uae08\uc18d
p1293
VKOSDAQ:020400
p1294
sV\uc778\uc120\uc774\uc5d4\ud2f0
p1295
VKOSDAQ:060150
p1296
sVKINDEX \uad6d\uace0\ucc44
p1297
VKRX:114460
p1298
sV\uc0bc\uc591\ud1b5\uc0c1
p1299
VKRX:002170
p1300
sV\ud14d\uc140\ub124\ud2b8\ucef4
p1301
VKOSDAQ:038540
p1302
sVNAVER
p1303
VKRX:035420
p1304
sV\ub0a8\uc120\uc54c\ubbf8\ub284
p1305
VKRX:008350
p1306
sVTIGER \uac00\uaca9\uc870\uc815
p1307
VKRX:217790
p1308
sV\uc608\uc2a424
p1309
VKOSDAQ:053280
p1310
sV\ubcf4\ub77d
p1311
VKRX:002760
p1312
sV\ub300\ud638\ud53c\uc564\uc528
p1313
VKOSDAQ:021040
p1314
sV\ub77c\uc628\uc2dc\ud050\uc5b4
p1315
VKOSDAQ:042510
p1316
sVKPX\ucf00\ubbf8\uce7c
p1317
VKRX:025000
p1318
sV\uc5d0\uc2a4\uc6d0
p1319
VKRX:012750
p1320
sV\uc120\ucc3d\uc0b0\uc5c5
p1321
VKRX:002820
p1322
sV\ucf00\uc774\uc5e0\ub354\ube14\uc720
p1323
VKOSDAQ:032500
p1324
sV\uc2e0\uc6d0\uc885\ud569\uac1c\ubc1c
p1325
VKOSDAQ:017000
p1326
sV\ub300\ub959\uc81c\uad00
p1327
VKOSDAQ:004780
p1328
sV\uc54c\ubcf4\uc820\ucf54\ub9ac\uc544
p1329
VKRX:002250
p1330
sV\ub3d9\uc591\uace0\uc18d
p1331
VKRX:084670
p1332
sVLG\ud558\uc6b0\uc2dc\uc2a4\uc6b0
p1333
VKRX:108675
p1334
sV\uc8fc\uc131\uc5d4\uc9c0\ub2c8\uc5b4\ub9c1
p1335
VKOSDAQ:036930
p1336
sVKOSEF \uace0\ubc30\ub2f9
p1337
VKRX:104530
p1338
sVMDS\ud14c\ud06c
p1339
VKOSDAQ:086960
p1340
sV\uc5d0\uc774\ud2f0\ud14c\ud06c\ub180\ub7ec\uc9c0
p1341
VKOSDAQ:073570
p1342
sVGS\uac74\uc124
p1343
VKRX:006360
p1344
sV\ud55c\uc77c\ucca0\uac15
p1345
VKRX:002220
p1346
sVKC\uadf8\ub9b0\ud640\ub529\uc2a4
p1347
VKRX:009440
p1348
sVKODEX \ubbf8\uad6d\uae08\uc735(\ud569\uc131)
p1349
VKRX:200040
p1350
sV\uc6a9\ud3c9\ub9ac\uc870\ud2b8
p1351
VKRX:070960
p1352
sV\uc0c1\ubcf4
p1353
VKOSDAQ:027580
p1354
sV\uc870\uc120\uc120\uc7ac
p1355
VKRX:120030
p1356
sV\ud76c\ub9bc
p1357
VKOSDAQ:037440
p1358
sV\ub86f\ub370\uc190\ud574\ubcf4\ud5d8
p1359
VKRX:000400
p1360
sV\ud734\ucf10\uc2a4
p1361
VKRX:069260
p1362
sV\uc561\ud1a0\uc988\uc18c\ud504\ud2b8
p1363
VKOSDAQ:052790
p1364
sV\ub300\ub9bc\ud1b5\uc0c1
p1365
VKRX:006570
p1366
sV\ud669\uae08\uc5d0\uc2a4\ud2f0
p1367
VKRX:032560
p1368
sV\uc544\uc774\uc528\ub514
p1369
VKOSDAQ:040910
p1370
sV\uc0bc\ud654\ub124\ud2b8\uc6cd\uc2a4
p1371
VKOSDAQ:046390
p1372
sV\ub179\uc2ed\uc790\ud640\ub529\uc2a41\uc6b0
p1373
VKRX:005255
p1374
sV\ucf00\uc774\ud0d1\ub9ac\uce20
p1375
VKRX:145270
p1376
sVTIGER \uc0dd\ud65c\ud544\uc218\ud488
p1377
VKRX:152180
p1378
sV\uc2dc\uacf5\ud14c\ud06c
p1379
VKOSDAQ:020710
p1380
sV\ud2b9\uc218\uac74\uc124
p1381
VKOSDAQ:026150
p1382
sV\ud55c\uc194\ud648\ub370\ucf54
p1383
VKRX:025750
p1384
sV\ub3d9\uc131\uc81c\uc57d
p1385
VKRX:002210
p1386
sV\ub178\ub8e8\ud640\ub529\uc2a42\uc6b0B
p1387
VKRX:000327
p1388
sV\uc11c\uc6b8\ubc18\ub3c4\uccb4
p1389
VKOSDAQ:046890
p1390
sV\ub9c8\uc774\ub2e4\uc2a4 \ucee4\ubc84\ub4dc\ucf5c
p1391
VKRX:137930
p1392
sV\ub86f\ub370\ud558\uc774\ub9c8\ud2b8
p1393
VKRX:071840
p1394
sV\uc774\ud050\uc2a4\uc564\uc790\ub8e8
p1395
VKOSDAQ:058530
p1396
sV\ub3d9\uad6d\uc81c\uac15
p1397
VKRX:001230
p1398
sV\ud734\ub9e5\uc2a4\ud640\ub529\uc2a4
p1399
VKOSDAQ:028080
p1400
sVEMW
p1401
VKOSDAQ:079190
p1402
sV\uc0bc\uc131\uc99d\uad8c
p1403
VKRX:016360
p1404
sV\uc0bc\uc591\uc0ac
p1405
VKRX:145990
p1406
sVSWH
p1407
VKRX:025620
p1408
sV\uc804\ud30c\uae30\uc9c0\uad6d
p1409
VKOSDAQ:065530
p1410
sV\ubc14\uc774\ub125\uc2a4
p1411
VKOSDAQ:053030
p1412
sV\ub355\uc131\uc6b0
p1413
VKRX:004835
p1414
sV\uc2e0\uc601\uc640\ucf54\ub8e8
p1415
VKRX:005800
p1416
sV\ud22c\ube44\uc18c\ud504\ud2b8
p1417
VKOSDAQ:079970
p1418
sV\ud720\ub77c\ucf54\ub9ac\uc544
p1419
VKRX:081660
p1420
sV\uc6b0\uc9c4\ube44\uc564\uc9c0
p1421
VKOSDAQ:018620
p1422
sV\ud55c\uad6d\ud329\ud0a4\uc9c0
p1423
VKOSDAQ:037230
p1424
sV\uc9c4\uc591\ud640\ub529\uc2a4
p1425
VKRX:100250
p1426
sV\ud53c\uc528\ub514\ub809\ud2b8
p1427
VKOSDAQ:051380
p1428
sV\uc720\ud55c\uc591\ud589\uc6b0
p1429
VKRX:000105
p1430
sV\ub808\ub4dc\ub85c\ubc84
p1431
VKOSDAQ:060300
p1432
sV\uc720\ub2c8\ud018\uc2a4\ud2b8
p1433
VKRX:077500
p1434
sV\uc0bc\uc131\uc0dd\uba85
p1435
VKRX:032830
p1436
sV\uc9c4\ubc14\uc774\uc624\ud14d
p1437
VKOSDAQ:086060
p1438
sV\uc5d0\uc774\uc6d0\uc564
p1439
VKOSDAQ:035290
p1440
sVKMH\ud558\uc774\ud14d
p1441
VKOSDAQ:052900
p1442
sVKBSTAR \ubbf8\uad6d\uc6d0\uc720\uc0dd\uc0b0\uae30\uc5c5(\ud569\uc131 H)
p1443
VKRX:219390
p1444
sV\uc0bc\uc131 \ubbf8\uad6d \uc911\uc18c\ud615 \uc131\uc7a5\uc8fc ETN(H)
p1445
VKRX:530017
p1446
sV\ub124\uc624\ub514\uc548\ud14c\ud06c\ub180\ub85c\uc9c0
p1447
VKOSDAQ:072770
p1448
sV\uc720\uc548\ud0c0\uc99d\uad8c
p1449
VKRX:003470
p1450
sV\ub178\ub8e8\ud640\ub529\uc2a4
p1451
VKRX:000320
p1452
sV\ubaa8\ub098\ubbf8
p1453
VKRX:005360
p1454
sV\ubbf8\ub798\uc5d0\uc14b \uc77c\ubcf8 \ub300\ud615\uc8fc ETN(H)
p1455
VKRX:590005
p1456
sV\uae08\ud654\ud53c\uc5d0\uc2a4\uc2dc
p1457
VKOSDAQ:036190
p1458
sV\ub514\uc528\uc5e0
p1459
VKRX:024090
p1460
sV\ub300\ub3d9\uc2a4\ud2f8
p1461
VKOSDAQ:048470
p1462
sV\uc778\ud3ec\ubc45\ud06c
p1463
VKOSDAQ:039290
p1464
sV\ud31c\uc2a4\ud1a0\ub9ac
p1465
VKOSDAQ:027710
p1466
sVTIGER \uc0bc\uc131\uadf8\ub8f9
p1467
VKRX:138520
p1468
sV\uc5e0\ud53c\uc528
p1469
VKOSDAQ:050540
p1470
sV\ubcf4\ub839\uba54\ub514\uc559\uc2a4
p1471
VKOSDAQ:014100
p1472
sV\ub300\ub3d9\uae30\uc5b4
p1473
VKOSDAQ:008830
p1474
sV\uc624\uc2a4\ud15c\uc784\ud50c\ub780\ud2b8
p1475
VKOSDAQ:048260
p1476
sV\uc6b0\uc6d0\uac1c\ubc1c
p1477
VKOSDAQ:046940
p1478
sV\ud55c\uc9c4\uce7c
p1479
VKRX:180640
p1480
sV\ub3d9\uc6d0\uc2dc\uc2a4\ud15c\uc988\uc6b0
p1481
VKRX:014825
p1482
sV\ub514\uc9c0\ud138\ub300\uc131
p1483
VKOSDAQ:068930
p1484
sV\ud0dc\ub9bc\ud3ec\uc7a5
p1485
VKRX:011280
p1486
sVKJ\ud504\ub9ac\ud14d
p1487
VKOSDAQ:083470
p1488
sV\uc720\ub2c8\ub4dc
p1489
VKRX:014830
p1490
sVTIGER \ubc30\ub2f9\uc131\uc7a5
p1491
VKRX:211560
p1492
sV\uc778\ud0d1\uc2a4
p1493
VKOSDAQ:049070
p1494
sV\uc0bc\uc77c\uc81c\uc57d
p1495
VKRX:000520
p1496
sV\ud55c\uc12c
p1497
VKRX:020000
p1498
sVKNN
p1499
VKOSDAQ:058400
p1500
sV\ud638\ud154\uc2e0\ub77c
p1501
VKRX:008770
p1502
sVS&T\ud640\ub529\uc2a4
p1503
VKRX:036530
p1504
sV\uc601\ud48d
p1505
VKRX:000670
p1506
sV\ub2e4\uc6d0\uc2dc\uc2a4
p1507
VKOSDAQ:068240
p1508
sV\ud30c\uc6cc \uace0\ubc30\ub2f9\uc800\ubcc0\ub3d9\uc131
p1509
VKRX:192720
p1510
sV\ud37c\uc2dc\uc2a4
p1511
VKRX:016800
p1512
sVKODEX \ubc14\uc774\uc624
p1513
VKRX:244580
p1514
sV\ud604\ub300\uc815\ubcf4\uae30\uc220
p1515
VKOSDAQ:026180
p1516
sV\uac15\uc6d0\ub79c\ub4dc
p1517
VKRX:035250
p1518
sVTIGER \uc720\ub85c\uc2a4\ud0c1\uc2a4\ub808\ubc84\ub9ac\uc9c0(\ud569\uc131 H)
p1519
VKRX:225050
p1520
sV\ud654\uc2b9\uc778\ub354
p1521
VKRX:006060
p1522
sV\uc194\uace0\ubc14\uc774\uc624
p1523
VKOSDAQ:043100
p1524
sV\ud55c\uad6d\uc11d\uc720
p1525
VKRX:004090
p1526
sV\ud604\ub300\ucc282\uc6b0B
p1527
VKRX:005387
p1528
sV\uc77c\uc9c0\ud14c\ud06c
p1529
VKOSDAQ:019540
p1530
sV\ud55c\ub77c\ud640\ub529\uc2a4
p1531
VKRX:060980
p1532
sVQV \uac74\uc124 TOP5 ETN
p1533
VKRX:550016
p1534
sV\ud734\ube44\uce20
p1535
VKOSDAQ:065510
p1536
sV\uc778\ud14d\ud50c\ub7ec\uc2a4
p1537
VKOSDAQ:064290
p1538
sV\uc138\uc774\ube0c\uc874I&C
p1539
VKRX:067830
p1540
sV\uc77c\uc9c4\ub2e4\uc774\uc544
p1541
VKRX:081000
p1542
sV\ud50c\ub79c\ud2f0\ub137
p1543
VKOSDAQ:075130
p1544
sV\uc9c0\uc5ed\ub09c\ubc29\uacf5\uc0ac
p1545
VKRX:071320
p1546
sV\uc544\uc774\uc564\uc528
p1547
VKOSDAQ:052860
p1548
sV\uc131\ub3c4\uc774\uc5d4\uc9c0
p1549
VKOSDAQ:037350
p1550
sV\ucf00\uc774\ud53c\uc5d0\ud504
p1551
VKOSDAQ:024880
p1552
sV\uc138\uc885\uacf5\uc5c5
p1553
VKRX:033530
p1554
sV\ucfe0\ucfe0\uc804\uc790
p1555
VKRX:192400
p1556
sV\uc704\ub4dc\uc708\ub124\ud2b8\uc6cd
p1557
VKOSDAQ:043220
p1558
sV\ud558\uc774\uace8\ub4dc12\ud638
p1559
VKRX:172580
p1560
sV\ud604\ub300\uadf8\ub9b0\ud478\ub4dc
p1561
VKRX:005440
p1562
sV\ud55c\ubbf8\uc57d\ud488
p1563
VKRX:128940
p1564
sV\uc368\ub2c8\uc804\uc790
p1565
VKRX:004770
p1566
sV\uc5d0\ud504\ud2f0\uc774\uc564\uc774
p1567
VKOSDAQ:065160
p1568
sV\uc77c\uc9c4\ub514\uc2a4\ud50c
p1569
VKRX:020760
p1570
sV\ub3d9\uc131\ud654\ud559
p1571
VKRX:005190
p1572
sV\uae08\uac15\uacf5\uc5c5
p1573
VKRX:014280
p1574
sVTRUE \uc704\uc548\ud654 \uc911\uad6d5\ub144\uad6d\ucc44 ETN
p1575
VKRX:570007
p1576
sV\ud558\uc774\uc38c
p1577
VKOSDAQ:066980
p1578
sV\uae08\uac15\ucca0\uac15
p1579
VKOSDAQ:053260
p1580
sVSKC \uc194\ubbf9\uc2a4
p1581
VKOSDAQ:057500
p1582
sVKCTC
p1583
VKRX:009070
p1584
sV\ub300\uc6b0 \ub808\ubc84\ub9ac\uc9c0 \uc6d0\uc720\uc120\ubb3c\ud63c\ud569 ETN(H)
p1585
VKRX:520009
p1586
sV\uc131\uc548
p1587
VKRX:011300
p1588
sV\uc0bc\uc131 \ubaa8\uba58\ud140 \ud0d1\ud53d ETN
p1589
VKRX:530003
p1590
sV\ucf54\uc624\ub871\uba38\ud2f0\ub9ac\uc5bc
p1591
VKRX:144620
p1592
sV\uc9c4\ub85c\ubc1c\ud6a8
p1593
VKOSDAQ:018120
p1594
sVSK\uc99d\uad8c
p1595
VKRX:001510
p1596
sV\uc70c\ube44\uc2a4
p1597
VKRX:008600
p1598
sV\uc0bc\uc131 \ub808\uc800 \ud14c\ub9c8\uc8fc ETN
p1599
VKRX:530007
p1600
sV\ubd80\uc0b0\uc0b0\uc5c5
p1601
VKRX:011390
p1602
sV\ub9e4\uc77c\uc720\uc5c5
p1603
VKOSDAQ:005990
p1604
sVLG\ud558\uc6b0\uc2dc\uc2a4
p1605
VKRX:108670
p1606
sV\uacbd\ub3d9\uac00\uc2a4
p1607
VKRX:012320
p1608
sVKSS\ud574\uc6b4
p1609
VKRX:044450
p1610
sV\uc9c0\uc5d0\uc2a4\uc774
p1611
VKOSDAQ:053050
p1612
sV\ub2e4\uc6b0\ub370\uc774\ud0c0
p1613
VKOSDAQ:032190
p1614
sVMH\uc5d0\ud0c4\uc62c
p1615
VKRX:023150
p1616
sV\ube59\uadf8\ub808
p1617
VKRX:005180
p1618
sV\ud050\ube0c\uc2a4
p1619
VKOSDAQ:065560
p1620
sV\ud3c9\ud654\uc0b0\uc5c5
p1621
VKRX:090080
p1622
sVTIGER \uc99d\uad8c
p1623
VKRX:157500
p1624
sVNHN\uc5d4\ud130\ud14c\uc778\uba3c\ud2b8
p1625
VKRX:181710
p1626
sV\uc720\ub098\uc774\ud2f0\ub4dc\uc81c\uc57d
p1627
VKRX:033270
p1628
sV\uc0bc\uc131\uc804\uc790\uc6b0
p1629
VKRX:005935
p1630
sV\uc81c\uc774\uc6e8\uc774
p1631
VKOSDAQ:058420
p1632
sV\ud30c\uc6cc K200
p1633
VKRX:152870
p1634
sV\uc591\uc9c0\uc0ac
p1635
VKOSDAQ:030960
p1636
sVGS\uae00\ub85c\ubc8c
p1637
VKRX:001250
p1638
sV\ub3d9\uc2e0\uac74\uc124
p1639
VKOSDAQ:025950
p1640
sV\ud154\ucf54\uc6e8\uc5b4
p1641
VKRX:078000
p1642
sV\ub300\uc9c4\ub514\uc5e0\ud53c
p1643
VKOSDAQ:065690
p1644
sV\uc138\uc544\ud640\ub529\uc2a4
p1645
VKRX:058650
p1646
sVLS\ub124\ud2b8\uc6cd\uc2a4
p1647
VKRX:000680
p1648
sV\ud050\uce90\ud53c\ud0c8
p1649
VKOSDAQ:016600
p1650
sVKINDEX \uc911\uad6d\ubcf8\ud1a0\ub808\ubc84\ub9ac\uc9c0(\ud569\uc131)
p1651
VKRX:219900
p1652
sV\uc624\uacf5
p1653
VKOSDAQ:045060
p1654
sV\ub3d9\uc77c\ucca0\uac15
p1655
VKOSDAQ:023790
p1656
sVCJ\uc624\uc1fc\ud551
p1657
VKOSDAQ:035760
p1658
sV\ud604\ub300\uc2dc\uba58\ud2b8
p1659
VKRX:006390
p1660
sV\ud55c\ubbf8\uc0ac\uc774\uc5b8\uc2a4
p1661
VKRX:008930
p1662
sV\ud55c\uad6d\uc120\uc7ac
p1663
VKOSDAQ:025550
p1664
sV\uce74\uce74\uc624
p1665
VKOSDAQ:035720
p1666
sVKODEX \uc131\uc7a5\ud22c\uc790
p1667
VKRX:247790
p1668
sV\ud55c\uc0d8
p1669
VKRX:009240
p1670
sVCMG\uc81c\uc57d
p1671
VKOSDAQ:058820
p1672
sVKODEX \ubc18\ub3c4\uccb4
p1673
VKRX:091160
p1674
sV\ub179\uc2ed\uc790\ud640\ub529\uc2a42\uc6b0
p1675
VKRX:005257
p1676
sV\ud55c\uc138\uc2e4\uc5c5
p1677
VKRX:105630
p1678
sV\ud55c\ud504
p1679
VKOSDAQ:066110
p1680
sVTRUE \uc5d4\uc120\ubb3c ETN
p1681
VKRX:570010
p1682
sV\uccb4\uc2dc\uc2a4
p1683
VKRX:033250
p1684
sV\uc6c5\uc9c4\uc53d\ud06c\ube45
p1685
VKRX:095720
p1686
sVTIGER \uc6d0\uc720\uc778\ubc84\uc2a4\uc120\ubb3c(H)
p1687
VKRX:217770
p1688
sV\uc544\ub0a8\uc804\uc790
p1689
VKRX:008700
p1690
sV\uc77c\uc131\uc2e0\uc57d
p1691
VKRX:003120
p1692
sV\ub3d9\uc6b0
p1693
VKOSDAQ:088910
p1694
sV\uc3e0\ub9ac\ub4dc
p1695
VKOSDAQ:050890
p1696
sV\ub450\uc0b0\uc5d4\uc9c4
p1697
VKRX:082740
p1698
sV\ud55c\uc591\uc99d\uad8c
p1699
VKRX:001750
p1700
sV\uad11\uc9c4\uc2e4\uc5c5
p1701
VKOSDAQ:026910
p1702
sV\ud544\ub9c1\ud06c
p1703
VKOSDAQ:064800
p1704
sVJW\ud640\ub529\uc2a4
p1705
VKRX:096760
p1706
sV\uc81c\uc6b0\uc2a4
p1707
VKOSDAQ:079370
p1708
sV\ud55c\uc194\uc81c\uc9c0
p1709
VKRX:213500
p1710
sV\ubbf8\ub798\uc5d0\uc14b\ub300\uc6b0
p1711
VKRX:006800
p1712
sVCJ\ud504\ub808\uc2dc\uc6e8\uc774
p1713
VKOSDAQ:051500
p1714
sV\uc640\ud1a0\uc2a4\ucf54\ub9ac\uc544
p1715
VKOSDAQ:079000
p1716
sV\uac24\ub7ed\uc2dc\uc544\uc5d0\uc2a4\uc5e0
p1717
VKRX:011420
p1718
sVLG\uc0dd\uba85\uacfc\ud559
p1719
VKRX:068870
p1720
sV\uc5d8\uc564\uc5d0\ud504
p1721
VKOSDAQ:066970
p1722
sVKBSTAR \uc6b0\ub7c9\uc5c5\uc885
p1723
VKRX:140580
p1724
sV\uc0bc\uc131 \ubbf8\uad6d \uc911\uc18c\ud615 \uac00\uce58\uc8fc ETN
p1725
VKRX:530022
p1726
sV\uc138\uc6d0\ubb3c\uc0b0
p1727
VKOSDAQ:024830
p1728
sV\uc528\ud2f0\uc528\ubc14\uc774\uc624
p1729
VKOSDAQ:060590
p1730
sV\uc720\ub2c8\ucf10
p1731
VKRX:011330
p1732
sV\uba54\uac00\uc2a4\ud130\ub514
p1733
VKOSDAQ:072870
p1734
sV\uae30\uac00\ub808\uc778
p1735
VKOSDAQ:049080
p1736
sVKC\ucf54\ud2b8\ub810
p1737
VKRX:119650
p1738
sV\ubbf8\ub798\uc0b0\uc5c5
p1739
VKRX:025560
p1740
sV\ud55c\uad6d\ud654\uc7a5\ud488\uc81c\uc870
p1741
VKRX:003350
p1742
sV\uc720\uc720\uc81c\uc57d1\uc6b0
p1743
VKRX:000225
p1744
sVTIGER \ucc28\uc774\ub098H
p1745
VKRX:245360
p1746
sV\ud604\ub300\ubbf8\ud3ec\uc870\uc120
p1747
VKRX:010620
p1748
sV\uc138\ub3d9
p1749
VKOSDAQ:053060
p1750
sV\uace0\ub824\uc0b0\uc5c5
p1751
VKRX:002140
p1752
sV\uc778\ud2b8\ub860\ubc14\uc774\uc624
p1753
VKOSDAQ:048530
p1754
sV\ub300\uc6d0\uc0b0\uc5c5
p1755
VKOSDAQ:005710
p1756
sV\ud604\ub300\ud1b5\uc2e0
p1757
VKOSDAQ:039010
p1758
sV\uac11\uc744\uba54\ud0c8
p1759
VKOSDAQ:024840
p1760
sVSK\uac00\uc2a4
p1761
VKRX:018670
p1762
sV\ud050\ub809\uc18c
p1763
VKOSDAQ:060280
p1764
sV\uc2e0\ub300\uc591\uc81c\uc9c0
p1765
VKRX:016590
p1766
sV\ud558\uc774\ud2b8\uc9c4\ub85c2\uc6b0B
p1767
VKRX:000087
p1768
sV\ubbf8\ub798\uc5d0\uc14b \uae00\ub85c\ubc8c \ub9ac\uce20 ETN(H)
p1769
VKRX:590012
p1770
sV\ub300\uc6b0 \ub85c\uc6b0\ubcfc ETN
p1771
VKRX:520001
p1772
sV\ud654\ucc9c\uae30\uacf5
p1773
VKRX:000850
p1774
sV\uc81c\uc77c\uc57d\ud488
p1775
VKRX:002620
p1776
sV\ub85c\uccb4\uc2dc\uc2a4\ud15c\uc988
p1777
VKOSDAQ:071280
p1778
sVARIRANG \uc2a4\ub9c8\ud2b8\ubca0\ud0c0Quality\ucc44\uad8c\ud63c\ud569
p1779
VKRX:238670
p1780
sV\ub3d9\uc591
p1781
VKRX:001520
p1782
sV\uc704\uc9c0\ud2b8
p1783
VKOSDAQ:036090
p1784
sVKCC
p1785
VKRX:002380
p1786
sV\uc624\ub9ac\uc5d4\ud0c8\uc815\uacf5
p1787
VKOSDAQ:014940
p1788
sV\ucf54\ub9ac\uc544\uc368\uc6b0
p1789
VKRX:007815
p1790
sV\ud55c\uad6d\uc804\ub825
p1791
VKRX:015760
p1792
sV\ud478\ub4dc\uc6f0
p1793
VKOSDAQ:005670
p1794
sV\ud654\ucc9c\uae30\uacc4
p1795
VKRX:010660
p1796
sVKT&G
p1797
VKRX:033780
p1798
sVKPX\ud640\ub529\uc2a4
p1799
VKRX:092230
p1800
sVTIGER \uc720\ub85c\uc2a4\ud0c1\uc2a450(\ud569\uc131 H)
p1801
VKRX:195930
p1802
sV\uc544\ubaa8\ub808\ud37c\uc2dc\ud53d
p1803
VKRX:090430
p1804
sV\uc30d\uc6a9\uba38\ud2f0\ub9ac\uc5bc
p1805
VKRX:047400
p1806
sV\uc774\ud654\uacf5\uc601
p1807
VKOSDAQ:001840
p1808
sV\ud55c\uc77c\ub2e8\uc870
p1809
VKOSDAQ:024740
p1810
sV\ub300\ud604
p1811
VKRX:016090
p1812
sV\ub178\ub8e8\ud398\uc778\ud2b8
p1813
VKRX:090350
p1814
sV\ubd80\uc0b0\uac00\uc2a4
p1815
VKRX:015350
p1816
sVCJ\ub300\ud55c\ud1b5\uc6b4
p1817
VKRX:000120
p1818
sV\ubbf8\ub798\uc5d0\uc14b \ub808\ubc84\ub9ac\uc9c0 S&P500 ETN(H)
p1819
VKRX:590010
p1820
sV\uc5d4\ube0c\uc774\uc5d0\uc774\uce58\ucf54\ub9ac\uc544
p1821
VKOSDAQ:067570
p1822
sV\uc804\ubc29
p1823
VKRX:000950
p1824
sVKODEX \uc778\ubc84\uc2a4
p1825
VKRX:114800
p1826
sV\uc2e0\uc601\uc99d\uad8c
p1827
VKRX:001720
p1828
sV\uc601\ud48d\uc815\ubc00
p1829
VKOSDAQ:036560
p1830
sV\ub3d9\uc591\ub124\ud2b8\uc6cd\uc2a4
p1831
VKRX:030790
p1832
sV\uc0bc\uc131\uc804\uae30\uc6b0
p1833
VKRX:009155
p1834
sV\uad6c\uc601\ud14c\ud06c
p1835
VKOSDAQ:053270
p1836
sVARIRANG S&P \ubc30\ub2f9\uc131\uc7a5
p1837
VKRX:222170
p1838
sVQV \ud540\ud14c\ud06c \ud14c\ub9c8 ETN
p1839
VKRX:550021
p1840
sV\ub3d9\uc131\ud654\uc778\ud14d
p1841
VKOSDAQ:033500
p1842
sV\uc544\uc2dc\uc544\ub098\ud56d\uacf5
p1843
VKRX:020560
p1844
sVQV Big Vol ETN
p1845
VKRX:550001
p1846
sVKOSEF \uad6d\uace0\ucc44
p1847
VKRX:114470
p1848
sV\ud615\uc9c0I&C
p1849
VKOSDAQ:011080
p1850
sV\ub450\uc0b02\uc6b0B
p1851
VKRX:000157
p1852
sV\uc911\uc559\uc624\uc158
p1853
VKOSDAQ:054180
p1854
sV\uc2b9\uc77c
p1855
VKOSDAQ:049830
p1856
sV\uc0bc\uc131 \ubbf8\uad6d \ub300\ud615 \uac00\uce58\uc8fc ETN
p1857
VKRX:530020
p1858
sV\uc720\uc2e0
p1859
VKOSDAQ:054930
p1860
sVKODEX 200 \ub0b4\uc7ac\uac00\uce58
p1861
VKRX:223190
p1862
sV\ub3d9\uad6d\uc0b0\uc5c5
p1863
VKOSDAQ:005160
p1864
sV\uc77c\uc2e0\uc11d\uc7ac
p1865
VKRX:007110
p1866
sV\ud558\uc774\uc2a4\ud2f8
p1867
VKRX:071090
p1868
sV\ud55c\uad6d\ud2b9\uc218\ud615\uac15
p1869
VKRX:007280
p1870
sV\ubcf4\uc131\ud30c\uc6cc\ud14d
p1871
VKOSDAQ:006910
p1872
sVTBH\uae00\ub85c\ubc8c
p1873
VKRX:084870
p1874
sV\uc2e0\ud55c \ub808\ubc84\ub9ac\uc9c0 WTI\uc6d0\uc720 \uc120\ubb3c ETN(H)
p1875
VKRX:500019
p1876
sVLG\uc720\ud50c\ub7ec\uc2a4
p1877
VKRX:032640
p1878
sV\ucf54\uc624\ub871\uc6b0
p1879
VKRX:002025
p1880
sV\ud2b8\ub808\uc774\uc2a4
p1881
VKOSDAQ:052290
p1882
sV\uc138\uc885\ud154\ub808\ucf64
p1883
VKOSDAQ:036630
p1884
sV\ubd80\uc2a4\ud0c0
p1885
VKOSDAQ:008470
p1886
sV\ud30c\uc6cc \ub2e8\uae30\ucc44
p1887
VKRX:226810
p1888
sV\uc0ac\uc870\ub3d9\uc544\uc6d0
p1889
VKRX:008040
p1890
sVSGA
p1891
VKOSDAQ:049470
p1892
sV\ub300\uc2e0\uc815\ubcf4\ud1b5\uc2e0
p1893
VKOSDAQ:020180
p1894
sVKODEX \ucf54\uc2a4\ub2e5150 \ub808\ubc84\ub9ac\uc9c0
p1895
VKRX:233740
p1896
sV\ud558\uc774\uace8\ub4dc2\ud638
p1897
VKRX:139200
p1898
sVAK\ud640\ub529\uc2a4
p1899
VKRX:006840
p1900
sV\ub3d9\uc77c\uae30\uc5f0
p1901
VKOSDAQ:032960
p1902
sV\uc2e0\uc138\uacc4\ud478\ub4dc
p1903
VKRX:031440
p1904
sV\ud480\ubb34\uc6d0
p1905
VKRX:017810
p1906
sV\ub9ac\ub178\uc2a4
p1907
VKOSDAQ:039980
p1908
sV\ud55c\uad6d\uae30\uc5c5\ud3c9\uac00
p1909
VKOSDAQ:034950
p1910
sV\uc0bc\uc131\uacf5\uc870
p1911
VKRX:006660
p1912
sVCNH
p1913
VKOSDAQ:023460
p1914
sV\uc5d0\uc4f0\uc528\uc5d4\uc9c0\ub2c8\uc5b4\ub9c1
p1915
VKRX:023960
p1916
sV\ud55c\ucef4\uc9c0\uc5e0\ub514
p1917
VKOSDAQ:077280
p1918
sV\uad6d\uc21c\ub2f9
p1919
VKOSDAQ:043650
p1920
sVKODEX \ucf69\uc120\ubb3c(H)
p1921
VKRX:138920
p1922
sV\ud050\ub85c\ucef4
p1923
VKOSDAQ:040350
p1924
sV\ub300\uc6b0 \uc6d0\uc790\uc7ac \uc120\ubb3c ETN(H)
p1925
VKRX:520003
p1926
sV\uc5d0\ud504\uc5d0\uc2a4\ud2f0
p1927
VKOSDAQ:036810
p1928
sVAP\uc2dc\uc2a4\ud15c
p1929
VKOSDAQ:054620
p1930
sVYTN
p1931
VKOSDAQ:040300
p1932
sV\uc0bc\uc591\uc0ac\uc6b0
p1933
VKRX:145995
p1934
sVKODEX \ud004\ub9ac\ud2f0Plus
p1935
VKRX:244660
p1936
sV\uc2dc\uadf8\ub124\ud2f1\uc2a4
p1937
VKOSDAQ:033170
p1938
sV\uc6b0\uc804
p1939
VKOSDAQ:052270
p1940
sV\uc0bc\ub9bd\uc2dd\ud488
p1941
VKRX:005610
p1942
sV\ud55c\ucc3d\uc0b0\uc5c5
p1943
VKOSDAQ:079170
p1944
sV\uc624\ud14d
p1945
VKOSDAQ:067170
p1946
sV\ud55c\uad6d\uc815\ubcf4\uc778\uc99d
p1947
VKOSDAQ:053300
p1948
sV\ud55c\uad6d\uc790\uc0b0\uc2e0\ud0c1
p1949
VKRX:123890
p1950
sVKODEX \uad6d\uace0\ucc44
p1951
VKRX:114260
p1952
sV\ubaa8\ub098\ub9ac\uc790
p1953
VKRX:012690
p1954
sV\ud604\ub300\uc528\uc564\uc5d0\ud504
p1955
VKRX:227840
p1956
sVTIGER \uc911\uad6d\uc18c\ube44\ud14c\ub9c8
p1957
VKRX:150460
p1958
sV\uc9c4\ud765\uae30\uc5c52\uc6b0B
p1959
VKRX:002787
p1960
sVKH\ubc14\ud14d
p1961
VKOSDAQ:060720
p1962
sV\ud604\ub300\uc0c1\uc0ac
p1963
VKRX:011760
p1964
sV\uc0bc\uc77c
p1965
VKOSDAQ:032280
p1966
sV\ub098\uc774\uc2a4\uc815\ubcf4\ud1b5\uc2e0
p1967
VKOSDAQ:036800
p1968
sV\ud558\ub098\ub2c8\ucf081\ud638
p1969
VKRX:099340
p1970
sV\uba54\ub514\ud504\ub860
p1971
VKOSDAQ:065650
p1972
sV\uc5d0\uc774\uce58\uc5d8\ube44\uc0dd\uba85\uacfc\ud559
p1973
VKOSDAQ:067630
p1974
sV\uc6d0\uc775QnC
p1975
VKOSDAQ:074600
p1976
sVS&TC
p1977
VKRX:100840
p1978
sV\uc608\uc2a4\ucf54
p1979
VKRX:015360
p1980
sV\uc2e0\ud55c\uc9c0\uc8fc
p1981
VKRX:055550
p1982
sV\uc624\uc2a4\ucf54\ud14d
p1983
VKOSDAQ:039200
p1984
sVNPC
p1985
VKRX:004250
p1986
sV\ud589\ub0a8\uc790\uae30
p1987
VKOSDAQ:008800
p1988
sV\ucea0\uc2dc\uc2a4
p1989
VKOSDAQ:050110
p1990
sV\uc81c\uc774\ube0c\uc774\uc5e0
p1991
VKOSDAQ:054950
p1992
sVTIGER S&P500\uc778\ubc84\uc2a4\uc120\ubb3c(H)
p1993
VKRX:225030
p1994
sV\ubaa8\uc544\ud14d
p1995
VKOSDAQ:033200
p1996
sV\uc6d0\uc775\ud050\ube0c
p1997
VKOSDAQ:014190
p1998
sV\ud55c\uc628\uc2dc\uc2a4\ud15c
p1999
VKRX:018880
p2000
sV\ub3d9\uc544\uc5d8\ud14d
p2001
VKOSDAQ:088130
p2002
sV\ub300\uc6b0 \uc778\ubc84\uc2a4 \uc804\uae30\uc804\uc790 Core5 ETN
p2003
VKRX:520005
p2004
sVSK\ub124\ud2b8\uc6cd\uc2a4\uc6b0
p2005
VKRX:001745
p2006
sV\ub300\uc0c13\uc6b0B
p2007
VKRX:001689
p2008
sVTIGER \uad6c\ub9ac\uc2e4\ubb3c
p2009
VKRX:160580
p2010
sV\uc138\uc9c4\uc911\uacf5\uc5c5
p2011
VKRX:075580
p2012
sV\uc544\uc138\uc544\uc81c\uc9c0
p2013
VKRX:002310
p2014
sV\ud0dc\uc601\uac74\uc124\uc6b0
p2015
VKRX:009415
p2016
sV\uc131\ubcf4\ud654\ud559
p2017
VKRX:003080
p2018
sV\ub18d\uc2ec\ud640\ub529\uc2a4
p2019
VKRX:072710
p2020
sV\ud654\uc131\uc0b0\uc5c5
p2021
VKRX:002460
p2022
sV\uba54\ub9ac\uce20\ud654\uc7ac
p2023
VKRX:000060
p2024
sV\uc9c0\uc5e0\ube44\ucf54\ub9ac\uc544
p2025
VKRX:013870
p2026
sV\ud0dc\uacbd\ud654\ud559
p2027
VKRX:006890
p2028
sV\ub8e8\ud2b8\ub85c\ub2c9
p2029
VKOSDAQ:085370
p2030
sVQV \uc0ac\ubb3c\uc778\ud130\ub137 \ud14c\ub9c8 ETN
p2031
VKRX:550022
p2032
sV\uc131\ud638\uc804\uc790
p2033
VKOSDAQ:043260
p2034
sV\uc911\uad6d\uc6d0\uc591\uc790\uc6d0
p2035
VKRX:900050
p2036
sV\ub3d9\uad6d\uc54c\uc564\uc5d0\uc2a4
p2037
VKOSDAQ:075970
p2038
sV\ub86f\ub370\uc815\ubc00\ud654\ud559
p2039
VKRX:004000
p2040
sV\ud55c\uad6d\uc804\uc790\uae08\uc735
p2041
VKOSDAQ:063570
p2042
sV\uc11c\uc6b8\uc81c\uc57d
p2043
VKOSDAQ:018680
p2044
sV\uc544\ubaa8\ub808G\uc6b0
p2045
VKRX:002795
p2046
sV\ub300\uc0c1\ud640\ub529\uc2a4\uc6b0
p2047
VKRX:084695
p2048
sV\uc870\uc120\ub0b4\ud654
p2049
VKRX:000480
p2050
sV\ud154\ub808\uce69\uc2a4
p2051
VKOSDAQ:054450
p2052
sV\uad11\uba85\uc804\uae30
p2053
VKRX:017040
p2054
sV\uc640\uc774\ube44\uc5e0\ub137
p2055
VKOSDAQ:057030
p2056
sVSK\ucf00\ubbf8\uce7c
p2057
VKRX:006120
p2058
sVF&F
p2059
VKRX:007700
p2060
sV\ube14\ub8e8\ucf64
p2061
VKOSDAQ:033560
p2062
sV\uc5d0\ubc84\ub2e4\uc784
p2063
VKOSDAQ:041440
p2064
sVTIGER 200 \uae08\uc735
p2065
VKRX:139270
p2066
sV\ucf54\ub9e5\uc2a4
p2067
VKOSDAQ:036690
p2068
sV\ud55c\uc9c4\uc911\uacf5\uc5c5\ud640\ub529\uc2a4
p2069
VKRX:003480
p2070
sVKODEX \ub2e8\uae30\ucc44\uad8c
p2071
VKRX:153130
p2072
sV\ub300\uad6c\ubc31\ud654\uc810
p2073
VKRX:006370
p2074
sV\uc544\uc9c4\uc0b0\uc5c5
p2075
VKOSDAQ:013310
p2076
sVKPX\uadf8\ub9b0\ucf00\ubbf8\uce7c
p2077
VKRX:083420
p2078
sV\ub85c\uc9c0\uc2dc\uc2a4
p2079
VKOSDAQ:067730
p2080
sV\ub179\uc2ed\uc790
p2081
VKRX:006280
p2082
sV\ucf54\uc5d4\ud14d
p2083
VKOSDAQ:029960
p2084
sV\uc0bc\ud654\ucf58\ub374\uc11c
p2085
VKRX:001820
p2086
sV\uac00\uc628\uc804\uc120
p2087
VKRX:000500
p2088
sV\ud604\ub300\ubc31\ud654\uc810
p2089
VKRX:069960
p2090
sVKODEX 200
p2091
VKRX:069500
p2092
sV\ub0a8\uc601\ube44\ube44\uc548
p2093
VKRX:002070
p2094
sVKODEX \uac74\uc124
p2095
VKRX:117700
p2096
sV\ucf00\uc774\ud504
p2097
VKOSDAQ:064820
p2098
sV\uc54c\ud2f0\uce90\uc2a4\ud2b8
p2099
VKOSDAQ:085810
p2100
sV\ud55c\uad6d\ucf5c\ub9c8
p2101
VKRX:161890
p2102
sV\uc77c\uc9c4\ud640\ub529\uc2a4
p2103
VKRX:015860
p2104
sVJYP Ent.
p2105
VKOSDAQ:035900
p2106
sV\ud30c\uc6cc \uad6d\uace0\ucc44
p2107
VKRX:176710
p2108
sVSK
p2109
VKRX:034730
p2110
sV\ud55c\uc77c\uc0ac\ub8cc
p2111
VKOSDAQ:005860
p2112
sV\ubc31\uad11\uc18c\uc7ac
p2113
VKRX:014580
p2114
sV\ud604\ub300\ube44\uc564\uc9c0\uc2a4\ud2f8
p2115
VKRX:004560
p2116
sVKINDEX \ub808\ubc84\ub9ac\uc9c0
p2117
VKRX:152500
p2118
sV\ub9c8\uc774\ud2f0 \ucf54\uc2a4\ud53c\uace0\ubc30\ub2f9
p2119
VKRX:211210
p2120
sV\ub3d9\uc6d0
p2121
VKRX:003580
p2122
sV\ud558\ub098\ub9c8\uc774\ud06c\ub860
p2123
VKOSDAQ:067310
p2124
sVKODEX \uc0bc\uc131\uadf8\ub8f9
p2125
VKRX:102780
p2126
sV\uc11c\ud654\uc815\ubcf4\ud1b5\uc2e0
p2127
VKOSDAQ:033790
p2128
sV\ud658\uc778\uc81c\uc57d
p2129
VKRX:016580
p2130
sV\ubbf8\uc6d0\ud654\ud559
p2131
VKRX:134380
p2132
sV\uba54\ub514\ud3ec\uc2a4\ud2b8
p2133
VKOSDAQ:078160
p2134
sV\ub3d9\uc591\uc6b0
p2135
VKRX:001525
p2136
sV\ucf54\uc13c
p2137
VKOSDAQ:009730
p2138
sV\uace0\ub824\uc81c\uac15
p2139
VKRX:002240
p2140
sV\ud604\ub300\uc0c1\uc120
p2141
VKRX:011200
p2142
sV\ub514\uc774\uc5d4\ud2f0
p2143
VKOSDAQ:079810
p2144
sVKB\uae08\uc735
p2145
VKRX:105560
p2146
sV\uc6b0\uc9c4
p2147
VKRX:105840
p2148
sV\uad6d\ub3d9
p2149
VKRX:005320
p2150
sV\uc544\uc2dc\uc54414\ud638
p2151
VKRX:083610
p2152
sV\uc140\ud2b8\ub9ac\uc628\uc81c\uc57d
p2153
VKOSDAQ:068760
p2154
sVHMC\ud22c\uc790\uc99d\uad8c
p2155
VKRX:001500
p2156
sVTJ\ubbf8\ub514\uc5b4
p2157
VKOSDAQ:032540
p2158
sV\uc5d0\uc774\ub514\uce69\uc2a4
p2159
VKOSDAQ:054630
p2160
sV\uc5d4\ucf00\uc774
p2161
VKRX:085310
p2162
sV\uc5d0\uc2a4\ud53c\uc9c0
p2163
VKOSDAQ:058610
p2164
sV\uc601\uc778\ud504\ub7f0\ud2f0\uc5b4
p2165
VKOSDAQ:036180
p2166
sV\uc2a4\ud398\ucf54
p2167
VKOSDAQ:013810
p2168
sV\uc2e0\ub77c\uc12c\uc720
p2169
VKOSDAQ:001000
p2170
sV\uc5d0\uc2a4\uc5d0\ud504\uc5d0\uc774
p2171
VKOSDAQ:056190
p2172
sV\uc0bc\ubcf4\uc0b0\uc5c5
p2173
VKOSDAQ:009620
p2174
sVTIGER 200\uc5d0\ub108\uc9c0\ud654\ud559\ub808\ubc84\ub9ac\uc9c0
p2175
VKRX:243890
p2176
sV\uc885\uadfc\ub2f9\ubc14\uc774\uc624
p2177
VKRX:063160
p2178
sV\ud0dc\uacbd\uc0b0\uc5c5
p2179
VKRX:015890
p2180
sVNHN\ud55c\uad6d\uc0ac\uc774\ubc84\uacb0\uc81c
p2181
VKOSDAQ:060250
p2182
sV\uc774\ub178\uc640\uc774\uc5b4\ub9ac\uc2a4
p2183
VKOSDAQ:073490
p2184
sVTIGER \ucf54\uc2a4\ub2e5150
p2185
VKRX:232080
p2186
sV\ud55c\ub124\ud2b8
p2187
VKOSDAQ:052600
p2188
sVBYC\uc6b0
p2189
VKRX:001465
p2190
sV\uc194\ube0c\ub808\uc778
p2191
VKOSDAQ:036830
p2192
sV\uc560\uacbd\uc720\ud654
p2193
VKRX:161000
p2194
sVKODEX \uc778\ubc84\uc2a4\uad6d\ucc44\uc120\ubb3c10\ub144
p2195
VKRX:176950
p2196
sV\ud55c\uad6d\uacbd\uc81cTV
p2197
VKOSDAQ:039340
p2198
sV\ub450\uc0b0\uac74\uc124
p2199
VKRX:011160
p2200
sV\ub2e4\uc0b0\ub124\ud2b8\uc6cd\uc2a4
p2201
VKOSDAQ:039560
p2202
sV\ub974\ub124\ucf54
p2203
VKOSDAQ:042940
p2204
sV\uc5d4\uc528\uc18c\ud504\ud2b8
p2205
VKRX:036570
p2206
sV\ud55c\uc194\uc778\ud2f0\ud050\ube0c
p2207
VKOSDAQ:070590
p2208
sV\uc911\uc559\ubc31\uc2e0
p2209
VKOSDAQ:072020
p2210
sVTIGER \uc778\ubc84\uc2a4
p2211
VKRX:123310
p2212
sV\ubbf8\ub798\uc5d0\uc14b\ub300\uc6b0\uc6b0
p2213
VKRX:006805
p2214
sV\uc778\uc9c0\ucee8\ud2b8\ub864\uc2a4
p2215
VKRX:023800
p2216
sV\uc140\ub8e8\uba54\ub4dc
p2217
VKOSDAQ:049180
p2218
sV\uc6b0\ub9ac\uc885\uae08
p2219
VKRX:010050
p2220
sV\uc774\ud654\uc804\uae30
p2221
VKOSDAQ:024810
p2222
sV\uc11c\uc5f0\ud0d1\uba54\ud0c8
p2223
VKOSDAQ:019770
p2224
sVSK\uc6b0
p2225
VKRX:03473K
p2226
sV\ub86f\ub370\ucf00\ubbf8\uce7c
p2227
VKRX:011170
p2228
sV\uc9c0\uc5d0\uc2a4\uc778\uc2a4\ud2b8\ub8e8
p2229
VKRX:007630
p2230
sV\ud638\ud154\uc2e0\ub77c\uc6b0
p2231
VKRX:008775
p2232
sV\uc11c\uc6b8\uc804\uc790\ud1b5\uc2e0
p2233
VKOSDAQ:027040
p2234
sV\ub300\uad50\uc6b0B
p2235
VKRX:019685
p2236
sV\ud0dc\uad11
p2237
VKOSDAQ:023160
p2238
sV\ud55c\uc194\ub85c\uc9c0\uc2a4\ud2f1\uc2a4
p2239
VKRX:009180
p2240
sV\uc774\uae00\ub8e8\uc2dc\ud050\ub9ac\ud2f0
p2241
VKOSDAQ:067920
p2242
sVTRUE \ubaa9\ud45c\ubcc0\ub3d9\uc13120 \ucf54\uc2a4\ud53c\uc120\ubb3c ETN
p2243
VKRX:570005
p2244
sV\ucf54\uc544\ub85c\uc9c1
p2245
VKOSDAQ:048870
p2246
sVTIGER \uacbd\uae30\ubc29\uc5b4\ucc44\uad8c\ud63c\ud569
p2247
VKRX:237440
p2248
sVTIGER KRX100
p2249
VKRX:091210
p2250
sV\uc120\uc9c4
p2251
VKRX:136490
p2252
sV\ucf54\uc624\ub871\uc778\ub354\uc6b0
p2253
VKRX:120115
p2254
sV\ub300\ubd09\uc5d8\uc5d0\uc2a4
p2255
VKOSDAQ:078140
p2256
sV\ud55c\ud0d1
p2257
VKOSDAQ:002680
p2258
sVE1
p2259
VKRX:017940
p2260
sV\ubbf8\ucf54
p2261
VKOSDAQ:059090
p2262
sV\ud504\ub9ac\uc820
p2263
VKOSDAQ:060910
p2264
sV\uc0bc\uc601\uc804\uc790
p2265
VKRX:005680
p2266
sVKOSEF 200
p2267
VKRX:069660
p2268
sVEG
p2269
VKOSDAQ:037370
p2270
sV\uc5d0\uc2a4\uc544\uc774\ub9ac\uc18c\uc2a4
p2271
VKOSDAQ:065420
p2272
sV\ud604\ub300\uac74\uc124
p2273
VKRX:000720
p2274
sV\uc6b0\ub9ac\uc740\ud589
p2275
VKRX:000030
p2276
sV\ud48d\uc0b0
p2277
VKRX:103140
p2278
sV\uacbd\ubc29
p2279
VKRX:000050
p2280
sV\uc815\uc6d0\uc5d4\uc2dc\uc2a4
p2281
VKOSDAQ:045510
p2282
sV\ud734\uc628\uc2a4\uae00\ub85c\ubc8c
p2283
VKOSDAQ:084110
p2284
sV\uae08\ud638\uc0b0\uc5c5\uc6b0
p2285
VKRX:002995
p2286
sV\uc774\uc2a4\ud2b8\uc18c\ud504\ud2b8
p2287
VKOSDAQ:047560
p2288
sV\ub86f\ub370\uce60\uc131
p2289
VKRX:005300
p2290
sV\ud3ec\uc2a4\ucf54\ub300\uc6b0
p2291
VKRX:047050
p2292
sV\uad11\ud76c\ub9ac\uce20
p2293
VKRX:140910
p2294
sV\uc82c\ubc31\uc2a4
p2295
VKOSDAQ:082270
p2296
sV\ucf54\uc624\ub871
p2297
VKRX:002020
p2298
sV\uc2a4\ud398\ub85c \uae00\ub85c\ubc8c
p2299
VKOSDAQ:028040
p2300
sV\uc2e0\ud55c \uae08 \uc120\ubb3c ETN(H)
p2301
VKRX:500016
p2302
sV\ud30c\uc138\ucf54
p2303
VKOSDAQ:037070
p2304
sV\uc2a4\uce74\uc774\ub77c\uc774\ud504
p2305
VKRX:053210
p2306
sV\uc11c\uc6b8\uc2dd\ud488
p2307
VKRX:004410
p2308
sV\ud544\ub8e9\uc2a4
p2309
VKRX:033180
p2310
sV\ub300\uc6b0 \uc6d0\uc720\uc120\ubb3c\ud63c\ud569 ETN(H)
p2311
VKRX:520010
p2312
sV\ub300\uc6d0\ubbf8\ub514\uc5b4
p2313
VKOSDAQ:048910
p2314
sV\ud14c\ub77c\uc820\uc774\ud14d\uc2a4
p2315
VKOSDAQ:066700
p2316
sV\ucf54\ub2e4\ucf54
p2317
VKOSDAQ:046070
p2318
sV\ubc14\ub978\uc804\uc790
p2319
VKOSDAQ:064520
p2320
sV\uc77c\uacbd\uc0b0\uc5c5\uac1c\ubc1c
p2321
VKOSDAQ:078940
p2322
sV\uc9c4\uc591\uc0b0\uc5c5
p2323
VKRX:003780
p2324
sVSJM\ud640\ub529\uc2a4
p2325
VKRX:025530
p2326
sV\uc544\ubc14\ucf54
p2327
VKOSDAQ:083930
p2328
sV\ub300\uc6b0\ubd80\ud488
p2329
VKRX:009320
p2330
sV\uba54\ub9ac\uce20\uc885\uae08\uc99d\uad8c
p2331
VKRX:008560
p2332
sV\ub9c8\uc774\ud2f0 K100
p2333
VKRX:159800
p2334
sV\uae4c\ubba4\uc774\uc564\uc528
p2335
VKRX:013700
p2336
sV\ud30c\ub77c\ud14d
p2337
VKOSDAQ:033540
p2338
sV\ubc14\uc774\uc628
p2339
VKOSDAQ:032980
p2340
sV\uace8\ub4e0\ube0c\ub9bf\uc9c0\uc99d\uad8c
p2341
VKRX:001290
p2342
sV\uc138\ud654\uc544\uc774\uc5e0\uc528
p2343
VKRX:145210
p2344
sVTIGER \uc6b0\ub7c9\uac00\uce58
p2345
VKRX:227570
p2346
sV\uc81c\ubbf8\ub2c8\ud22c\uc790
p2347
VKOSDAQ:019570
p2348
sV\uc624\ub69c\uae30
p2349
VKRX:007310
p2350
sV\ucc28\ubc14\uc774\uc624\ud14d
p2351
VKOSDAQ:085660
p2352
sV\uc2e0\ud55c \ub808\ubc84\ub9ac\uc9c0 \ub2e4\uc6b0\uc874\uc2a4\uc9c0\uc218 \uc120\ubb3c ETN(H)
p2353
VKRX:500020
p2354
sV\uc81c\uc774\ucf58\ud150\ud2b8\ub9ac
p2355
VKOSDAQ:036420
p2356
sV\ud55c\uc77c\uc2dc\uba58\ud2b8
p2357
VKRX:003300
p2358
sV\uc6b0\ub9ac\ub4e4\uc81c\uc57d
p2359
VKRX:004720
p2360
sVSK\ucef4\uc988
p2361
VKOSDAQ:066270
p2362
sVable KQ Monthly Best 11 ETN
p2363
VKRX:580004
p2364
sVKEC
p2365
VKRX:092220
p2366
sV\uc9c4\uc591\ud3f4\ub9ac
p2367
VKRX:010640
p2368
sV\uc5d0\uc2a4\uc528\ub514
p2369
VKOSDAQ:042110
p2370
sV\uc544\uc774\ucef4\ud3ec\ub10c\ud2b8
p2371
VKOSDAQ:059100
p2372
sV\uc2e0\ud48d\uc81c\uc9c0
p2373
VKRX:002870
p2374
sV\ub3d9\uc544\uc3d8\uc2dc\uc624\ud640\ub529\uc2a4
p2375
VKRX:000640
p2376
sV\uace0\ub824\ud3ec\ub9ac\uba38
p2377
VKRX:009810
p2378
sV\uc544\uc2dc\uc54415\ud638
p2379
VKRX:083620
p2380
sV\uc0c1\uc2e0\ube0c\ub808\uc774\ud06c
p2381
VKRX:041650
p2382
sV\ubd80\uc0b0\ubc29\uc9c1
p2383
VKOSDAQ:025270
p2384
sV\ud55c\uad6d\ud14c\ud06c\ub180\ub85c\uc9c0
p2385
VKOSDAQ:053590
p2386
sV\ub300\ub3d9\uc804\uc790
p2387
VKRX:008110
p2388
sV\uacbd\ub3d9\uc81c\uc57d
p2389
VKOSDAQ:011040
p2390
sV\ud504\ub85c\ud14d
p2391
VKOSDAQ:053610
p2392
sV\ud604\ub300\uac74\uc124\uc6b0
p2393
VKRX:000725
p2394
sV\ud53c\uc5d8\uc5d0\uc774
p2395
VKOSDAQ:082390
p2396
sV\uc131\ubb38\uc804\uc790
p2397
VKRX:014910
p2398
sV\ud06c\ub85c\ubc14\ud558\uc774\ud14d
p2399
VKOSDAQ:043590
p2400
sV\ubc14\ub2e4\ub85c19\ud638
p2401
VKRX:155900
p2402
sVSBS\ucf58\ud150\uce20\ud5c8\ube0c
p2403
VKOSDAQ:046140
p2404
sV\uc778\ud130\ud30c\ud06c\ud640\ub529\uc2a4
p2405
VKOSDAQ:035080
p2406
sV\ub3c4\ub808\uc774\ucf00\ubbf8\uce7c
p2407
VKRX:008000
p2408
sV\uc131\uad11\ubca4\ub4dc
p2409
VKOSDAQ:014620
p2410
sV\uc138\uc6d0\uc140\ub860\ud14d
p2411
VKRX:091090
p2412
sV\uc9c0\ud22c\uc54c
p2413
VKRX:035000
p2414
sV\uc2a4\ud2f8\ud50c\ub77c\uc6cc
p2415
VKOSDAQ:087220
p2416
sV\ucf64\ud14d\uc2dc\uc2a4\ud15c
p2417
VKRX:031820
p2418
sV\uc2e0\ud55c K200 USD \uc120\ubb3c \ubc14\uc774\uc140 ETN
p2419
VKRX:500001
p2420
sV\uc140\ud2b8\ub9ac\uc628
p2421
VKOSDAQ:068270
p2422
sV\uc774\uc6d0\ucef4\ud3ec\ud14d
p2423
VKOSDAQ:088290
p2424
sVSCI\ud3c9\uac00\uc815\ubcf4
p2425
VKOSDAQ:036120
p2426
sV\uc5d0\uc774\ubaa8\uc158
p2427
VKOSDAQ:031860
p2428
sV\ub514\uc5d0\uc774\ud53c
p2429
VKOSDAQ:066900
p2430
sV\ud558\uce20
p2431
VKOSDAQ:066130
p2432
sVKODEX \ubcf4\ud5d8
p2433
VKRX:140700
p2434
sV\ud61c\uc778
p2435
VKRX:003010
p2436
sV\ub124\uc774\ucc98\uc140
p2437
VKOSDAQ:007390
p2438
sV\ub3d9\ub0a8\ud569\uc131
p2439
VKRX:023450
p2440
sV\ud654\uc2b9\uc54c\uc564\uc5d0\uc774
p2441
VKRX:013520
p2442
sV\ud558\ub098\uae08\uc735\uc9c0\uc8fc
p2443
VKRX:086790
p2444
sV\ud1a0\ud544\ub4dc
p2445
VKOSDAQ:057880
p2446
sV\uc774\ub514
p2447
VKOSDAQ:033110
p2448
sV\uc528\uc544\uc774\ud14c\ud06c
p2449
VKRX:004920
p2450
sV\ub300\uad50
p2451
VKRX:019680
p2452
sV\ub3d9\ubd80\uc81c\ucca0
p2453
VKRX:016380
p2454
sVKODEX \ub808\ubc84\ub9ac\uc9c0
p2455
VKRX:122630
p2456
sV\uad11\ub3d9\uc81c\uc57d
p2457
VKRX:009290
p2458
sV\ub514\uc2a4\ud50c\ub808\uc774\ud14d
p2459
VKOSDAQ:066670
p2460
sVKBSTAR \uc6b0\ub7c9\ud68c\uc0ac\ucc44
p2461
VKRX:136340
p2462
sV\ub3d9\ubd81\uc54414\ud638
p2463
VKRX:083390
p2464
sV\uc6b0\ub9ac\ub85c
p2465
VKOSDAQ:046970
p2466
sV\uc131\uc6b0\ud14c\ud06c\ub860
p2467
VKOSDAQ:045300
p2468
sV\ud06c\ub77c\uc6b4\uc81c\uc6b0
p2469
VKRX:005745
p2470
sV\uc544\uc774\uc528\ucf00\uc774
p2471
VKOSDAQ:068940
p2472
sV\uc2e0\uc131\uc5d0\ud504\uc5d0\uc774
p2473
VKRX:104120
p2474
sV\uc5d0\ud504\uc54c\ud14d
p2475
VKOSDAQ:073540
p2476
sVLG\ud654\ud559\uc6b0
p2477
VKRX:051915
p2478
sVKINDEX \uc77c\ubcf8Nikkei225(H)
p2479
VKRX:238720
p2480
sVLG\uc774\ub178\ud14d
p2481
VKRX:011070
p2482
sVTIGER \ub18d\uc0b0\ubb3c\uc120\ubb3c(H)
p2483
VKRX:137610
p2484
sVKODEX \uc911\uad6d\ubcf8\ud1a0 A50
p2485
VKRX:169950
p2486
sV\ud55c\uc775\uc2a4\ud504\ub808\uc2a4
p2487
VKRX:014130
p2488
sVSKC
p2489
VKRX:011790
p2490
sV\uc6b0\ub9ac\uc190\uc5d0\ud504\uc564\uc9c0
p2491
VKOSDAQ:073560
p2492
sVARIRANG \ubc29\uc5b4\uc8fc
p2493
VKRX:161490
p2494
sVTIGER \ubbf8\ub514\uc5b4\ud1b5\uc2e0
p2495
VKRX:098560
p2496
sV\ud55c\uad6d\uac00\uad6c
p2497
VKOSDAQ:004590
p2498
sVKBSTAR \ucc44\uad8c\ud63c\ud569
p2499
VKRX:183700
p2500
sV\uae30\uc5c5\uc740\ud589
p2501
VKRX:024110
p2502
sV\uc138\uc911
p2503
VKOSDAQ:039310
p2504
sV\ub300\ub9bc\uc81c\uc9c0
p2505
VKOSDAQ:017650
p2506
sV\ubbf8\ub798\uc5d0\uc14b\uc99d\uad8c
p2507
VKRX:037620
p2508
sV\ubc14\uc774\uc624\ud1a1\uc2a4\ud14d
p2509
VKOSDAQ:086040
p2510
sV\uace0\ub824\uc81c\uc57d
p2511
VKOSDAQ:014570
p2512
sV\ud654\uc131
p2513
VKOSDAQ:039610
p2514
sV\uc5d0\uc2a4\ud2f0\uc544\uc774
p2515
VKOSDAQ:039440
p2516
sVGKL
p2517
VKRX:114090
p2518
sV\uc9c0\uc5e0\ud53c
p2519
VKOSDAQ:018290
p2520
sV\ub300\ud55c\uc81c\ub2f9
p2521
VKRX:001790
p2522
sV\ub3d9\uc6d0\uc2dc\uc2a4\ud15c\uc988
p2523
VKRX:014820
p2524
sV\ub300\ud55c\uc57d\ud488
p2525
VKOSDAQ:023910
p2526
sV\uc5d0\ud504\uc5d4\uc528\uc560\ub4dc\uceec\uccd0
p2527
VKOSDAQ:063440
p2528
sV\ud0a4\uc6c0\uc99d\uad8c
p2529
VKRX:039490
p2530
sV\uc6b0\uc9c4\ud50c\ub77c\uc784
p2531
VKRX:049800
p2532
sV\uc6d0\uc77c\ud2b9\uac15
p2533
VKOSDAQ:012620
p2534
sV\uad6d\ub3c4\ud654\ud559
p2535
VKRX:007690
p2536
sV\ud604\ub300\ucc28
p2537
VKRX:005380
p2538
sV\ud55c\uc194\ucf00\ubbf8\uce7c
p2539
VKRX:014680
p2540
sV\uc544\ud2f0\uc2a4
p2541
VKRX:101140
p2542
sVLG\uc6b0
p2543
VKRX:003555
p2544
sVKODEX \uc790\ub3d9\ucc28
p2545
VKRX:091180
p2546
sV\uc0bc\uc131SDI\uc6b0
p2547
VKRX:006405
p2548
sV\ud55c\uc804\uae30\uc220
p2549
VKRX:052690
p2550
sV\uc624\ub9ac\ucf64
p2551
VKOSDAQ:010470
p2552
sV\uc704\ub2c9\uc2a4
p2553
VKOSDAQ:044340
p2554
sV\ub125\uc13c\ud0c0\uc774\uc5b4
p2555
VKRX:002350
p2556
sV\uc774\uac74\ucc3d\ud638
p2557
VKOSDAQ:039020
p2558
sVTRUE \uc778\ubc84\uc2a4 \uc720\ub85c\uc120\ubb3c ETN
p2559
VKRX:570014
p2560
sV\ud53c\ub378\ub9ad\uc2a4
p2561
VKOSDAQ:032580
p2562
sV\ub300\ucc3d
p2563
VKRX:012800
p2564
sV\ud55c\uc194\uc544\ud2b8\uc6d0\uc81c\uc9c02\uc6b0B
p2565
VKRX:007197
p2566
sVKOSEF 100
p2567
VKRX:153270
p2568
sV\uc0bc\ucc9c\ub9ac
p2569
VKRX:004690
p2570
sV\uc720\uc544\uc774\ub514
p2571
VKOSDAQ:069330
p2572
sV\uc544\ud050\ud53d\uc2a4
p2573
VKOSDAQ:056730
p2574
sV\ucf00\uc774\uc5d0\uc2a4\uc528\ube44
p2575
VKOSDAQ:065940
p2576
sV\ud558\uc774\uace8\ub4dc8\ud638
p2577
VKRX:159650
p2578
sV\ub3d9\ubd80\ub77c\uc774\ud14d
p2579
VKOSDAQ:045890
p2580
sV\uc0bc\uc131 \uc720\ub7fd \uace0\ubc30\ub2f9 \uc8fc\uc2dd ETN(H)
p2581
VKRX:530001
p2582
sViMBC
p2583
VKOSDAQ:052220
p2584
sV\uc720\uc591\ub514\uc564\uc720
p2585
VKRX:011690
p2586
sV\ud604\ub300\ud648\uc1fc\ud551
p2587
VKRX:057050
p2588
sVARIRANG \ubbf8\uad6d\uace0\ubc30\ub2f9\uc8fc(\ud569\uc131 H)
p2589
VKRX:213630
p2590
sV\ud55c\uc591\uc99d\uad8c\uc6b0
p2591
VKRX:001755
p2592
sVTIGER 200 \ud5ec\uc2a4\ucf00\uc5b4
p2593
VKRX:227540
p2594
sV\uba85\ubb38\uc81c\uc57d
p2595
VKRX:017180
p2596
sV\uc544\uc138\uc544
p2597
VKRX:002030
p2598
sV\ud654\uc778\ubca0\uc2a4\ud2f8
p2599
VKRX:133820
p2600
sV\ubcbd\uc0b0
p2601
VKRX:007210
p2602
sV\ub3d9\uc591\ubb3c\uc0b0
p2603
VKRX:002900
p2604
sV\ud55c\uad6d\ub2e8\uc790
p2605
VKRX:025540
p2606
sVKOSEF \ubbf8\uad6d\ub2ec\ub7ec\uc120\ubb3c \uc778\ubc84\uc2a42X(\ud569\uc131)
p2607
VKRX:230480
p2608
sV\ub3d9\ud654\uc57d\ud488
p2609
VKRX:000020
p2610
sV\ucf54\ub80c
p2611
VKOSDAQ:078650
p2612
sVKG\ucf00\ubbf8\uce7c
p2613
VKRX:001390
p2614
sV\uc0ac\uc870\uc528\ud478\ub4dc
p2615
VKRX:014710
p2616
sV\ub098\ub77c\uc5e0\uc564\ub514
p2617
VKOSDAQ:051490
p2618
sVQV \uc81c\uc57d TOP5 ETN
p2619
VKRX:550015
p2620
sVTIGER 200 \uc911\uacf5\uc5c5
p2621
VKRX:139230
p2622
sVARIRANG \ubc14\ubca8 \ucc44\uad8c
p2623
VKRX:190150
p2624
sVTIGER 200IT\ub808\ubc84\ub9ac\uc9c0
p2625
VKRX:243880
p2626
sV\ucf00\uc774\uc5d4\uc528\uae00\ub85c\ubc8c
p2627
VKOSDAQ:068150
p2628
sV\ud0a4\uc774\uc2a4\ud2b8
p2629
VKOSDAQ:054780
p2630
sV\ucf54\ub9ac\uc54403\ud638
p2631
VKRX:090990
p2632
sV\ud604\ub300\uae00\ub85c\ube44\uc2a4
p2633
VKRX:086280
p2634
sV\uc2e0\ud55c \uc778\ubc84\uc2a4 \ub2ec\ub7ec\uc778\ub371\uc2a4 \uc120\ubb3c ETN(H)
p2635
VKRX:500012
p2636
sV\ubc14\uc774\ub85c\uba54\ub4dc
p2637
VKOSDAQ:084990
p2638
sVKBSTAR V&S\uc140\ub809\ud2b8\ubc38\ub958
p2639
VKRX:234310
p2640
sVTIGER 200 \uc0dd\ud65c\uc18c\ube44\uc7ac
p2641
VKRX:227560
p2642
sV\ub300\uc6b0\uac74\uc124
p2643
VKRX:047040
p2644
sV\uc720\ube44\ucffc\uc2a4
p2645
VKOSDAQ:078070
p2646
sV\ub300\uc544\ud2f0\uc544\uc774
p2647
VKOSDAQ:045390
p2648
sV\ub3d9\uc77c\ubc29\uc9c1
p2649
VKRX:001530
p2650
sVTIGER \ubbf8\ub514\uc5b4\ucee8\ud150\uce20
p2651
VKRX:228810
p2652
sV\uc640\uc774\ube44\ub85c\ub4dc
p2653
VKRX:010600
p2654
sV\uc5d0\uc774\uce58\uc5d8\ube44
p2655
VKOSDAQ:028300
p2656
sV\ub3d9\uc77c\uace0\ubb34\ubca8\ud2b8
p2657
VKRX:163560
p2658
sV\uc544\uc774\ucf58\ud2b8\ub864\uc2a4
p2659
VKRX:039570
p2660
sV\uc5d8\ucef4\ud14d
p2661
VKOSDAQ:037950
p2662
sV\uc81c\uc77c\uc81c\uac15
p2663
VKOSDAQ:023440
p2664
sV\ud3ec\ube44\uc2a4\ud2f0\uc564\uc528
p2665
VKOSDAQ:016670
p2666
sV\uc5d0\uc774\ud14d
p2667
VKOSDAQ:045660
p2668
sV\ub125\uc2a8\uc9c0\ud2f0
p2669
VKOSDAQ:041140
p2670
sVSK\ubc14\uc774\uc624\ub79c\ub4dc
p2671
VKOSDAQ:052260
p2672
sV\uc131\uc2e0\uc591\ud68c\uc6b0
p2673
VKRX:004985
p2674
sV\uc0bc\uc601\uc774\uc5d4\uc528
p2675
VKOSDAQ:065570
p2676
sV\ud734\uc2a4\ud2f8
p2677
VKRX:005010
p2678
sV\ub300\uc6c5
p2679
VKRX:003090
p2680
sV\ub9c8\ub2c8\ucee4
p2681
VKRX:027740
p2682
sV\uc544\ube44\uc2a4\ud0c0
p2683
VKRX:090370
p2684
sV\ud398\uc774\ud37c\ucf54\ub9ac\uc544
p2685
VKRX:001020
p2686
sV\ubc14\ub978\uc190
p2687
VKOSDAQ:018700
p2688
sV\ud558\ub098\ud22c\uc5b4
p2689
VKRX:039130
p2690
sV\uba40\ud2f0\ucea0\ud37c\uc2a4
p2691
VKOSDAQ:067280
p2692
sVQV \uc18c\ud504\ud2b8\uc6e8\uc5b4 TOP5 ETN
p2693
VKRX:550008
p2694
sV\uc2e0\uc6d0
p2695
VKRX:009270
p2696
sV\uc120\uad11
p2697
VKOSDAQ:003100
p2698
sV\ubc14\ub978\ud14c\ud06c\ub180\ub85c\uc9c0
p2699
VKOSDAQ:029480
p2700
sV\ub300\uc6d0\uc804\uc120
p2701
VKRX:006340
p2702
sV\uc9c4\uc591\ud654\ud559
p2703
VKRX:051630
p2704
sV\uc0bc\uc131SDI
p2705
VKRX:006400
p2706
sVable Quant\ube44\uc911\uc870\uc808 ETN
p2707
VKRX:580002
p2708
sV\ub450\uc0b0\uc911\uacf5\uc5c5
p2709
VKRX:034020
p2710
sV\uc0bc\uc131\uc804\uae30
p2711
VKRX:009150
p2712
sV\uc5d0\ub125\uc2a4
p2713
VKRX:011090
p2714
sVARIRANG \uc2a4\ub9c8\ud2b8\ubca0\ud0c04\uc885\uacb0\ud569
p2715
VKRX:244820
p2716
sV\uc624\ud0a8\uc2a4\uc804\uc790
p2717
VKOSDAQ:080580
p2718
sV\ub124\ud328\uc2a4\uc2e0\uc18c\uc7ac
p2719
VKOSDAQ:087730
p2720
sV\uc2e0\uc77c\uc0b0\uc5c5
p2721
VKRX:002700
p2722
sV\ud30c\ub77c\ub2e4\uc774\uc2a4
p2723
VKOSDAQ:034230
p2724
sV\ub450\uc0b0\uc6b0
p2725
VKRX:000155
p2726
sV\ub300\uc6b0 \uc778\ubc84\uc2a4 \uc6d0\uc720\uc120\ubb3c\ud63c\ud569 ETN(H)
p2727
VKRX:520011
p2728
sV\ub125\uc13c\ud0c0\uc774\uc5b41\uc6b0B
p2729
VKRX:002355
p2730
sVDSR\uc81c\uac15
p2731
VKRX:069730
p2732
sV\uc6c5\uc9c4
p2733
VKRX:016880
p2734
sV\uc2e0\uc138\uacc4\uac74\uc124
p2735
VKRX:034300
p2736
sVKINDEX \ud55c\ub958
p2737
VKRX:226380
p2738
sV\ubc94\uc591\uac74\uc601
p2739
VKRX:002410
p2740
sV\uc138\uc544\ud2b9\uc218\uac15
p2741
VKRX:019440
p2742
sV\ud765\uad6d\ud654\uc7ac
p2743
VKRX:000540
p2744
sVKOSEF 10\ub144\uad6d\uace0\ucc44 \ub808\ubc84\ub9ac\uc9c0
p2745
VKRX:167860
p2746
sVARIRANG KOSPI50
p2747
VKRX:122090
p2748
sVKB\uc190\ud574\ubcf4\ud5d8
p2749
VKRX:002550
p2750
sV\ucf54\uc624\ub871\uc778\ub354
p2751
VKRX:120110
p2752
sV\uc0bc\uc591\ud640\ub529\uc2a4\uc6b0
p2753
VKRX:000075
p2754
sV\uc774\ub2c8\ud14d
p2755
VKOSDAQ:053350
p2756
sV\ub300\ud55c\ud654\uc12c
p2757
VKRX:003830
p2758
sVTIGER \ub808\ubc84\ub9ac\uc9c0
p2759
VKRX:123320
p2760
sVLG\uc0dd\uba85\uacfc\ud559\uc6b0
p2761
VKRX:068875
p2762
sV\uc544\uc774\ud329\ud1a0\ub9ac
p2763
VKOSDAQ:053810
p2764
sVQV \ud654\ud559 TOP5 ETN
p2765
VKRX:550013
p2766
sV\uba54\ud0c0\ubc14\uc774\uc624\uba54\ub4dc
p2767
VKOSDAQ:059210
p2768
sV\ud3c9\ud654\uc815\uacf5
p2769
VKOSDAQ:043370
p2770
sV\ucf54\uc624\ub871\uae00\ub85c\ubc8c
p2771
VKRX:003070
p2772
sV\ud654\uc2e0
p2773
VKRX:010690
p2774
sV\ub514\uc544\uc774
p2775
VKRX:003160
p2776
sV\uc18c\ud504\ud2b8\uc13c
p2777
VKOSDAQ:032680
p2778
sV\ub9f5\uc2a4\ub9ac\uc5bc\ud2f01
p2779
VKRX:094800
p2780
sV\uc601\ud48d\uc81c\uc9c0
p2781
VKRX:006740
p2782
sV\ubb38\ubc30\ucca0\uac15
p2783
VKRX:008420
p2784
sV\ud0dc\uc591\uc528\uc564\uc5d8
p2785
VKOSDAQ:072520
p2786
sV\uc81c\uc774\uc528\ud604\uc2dc\uc2a4\ud15c
p2787
VKOSDAQ:033320
p2788
sV\uae08\ud638\uc11d\uc720\uc6b0
p2789
VKRX:011785
p2790
sV\uc11c\ud765
p2791
VKRX:008490
p2792
sV\ub300\uc591\uae08\uc18d
p2793
VKRX:009190
p2794
sV\uc0bc\ubcf4\ubaa8\ud130\uc2a4
p2795
VKOSDAQ:053700
p2796
sV\uc81c\uc774\uc5e0\uc544\uc774
p2797
VKOSDAQ:033050
p2798
sVSMART \uc911\uad6d\ubcf8\ud1a0 \uc911\uc18c\ud615 CSI500(\ud569\uc131 H)
p2799
VKRX:220130
p2800
sV\ub300\uc131\uc5d0\ub108\uc9c0
p2801
VKRX:117580
p2802
sV\uc544\ud504\ub9ac\uce74TV
p2803
VKOSDAQ:067160
p2804
sVSJM
p2805
VKRX:123700
p2806
sV\ud55c\uc131\uae30\uc5c5
p2807
VKRX:003680
p2808
sV\ub3d9\ubc29
p2809
VKRX:004140
p2810
sV\ud55c\ucc3d\uc81c\uc9c0
p2811
VKRX:009460
p2812
sVSK\ub514\uc564\ub514
p2813
VKRX:210980
p2814
sV\uba54\uc774\uc2a8\uce90\ud53c\ud0c8
p2815
VKOSDAQ:021880
p2816
sVARIRANG \ucf54\uc2a4\ud53c
p2817
VKRX:227830
p2818
sVKOSEF \ud1b5\uc548\ucc44
p2819
VKRX:122260
p2820
sV\ud0a4\uc2a4\ud1a4\uae00\ub85c\ubc8c
p2821
VKRX:012170
p2822
sV\ub0a8\ud574\ud654\ud559
p2823
VKRX:025860
p2824
sV\ub3d9\uc591\ucca0\uad00
p2825
VKRX:008970
p2826
sVKODEX \uace8\ub4dc\uc120\ubb3c(H)
p2827
VKRX:132030
p2828
sV\ucf54\ub9ac\uc54402\ud638
p2829
VKRX:090980
p2830
sV\uc0bc\ucc9c\ub2f9\uc81c\uc57d
p2831
VKOSDAQ:000250
p2832
sV\uc0bc\uc131 \uac74\ucd95\uc790\uc7ac \ud14c\ub9c8\uc8fc ETN
p2833
VKRX:530010
p2834
sV\ub450\uc62c\uc0b0\uc5c5
p2835
VKOSDAQ:078590
p2836
sV\uc0d8\ud45c\uc2dd\ud488
p2837
VKRX:007540
p2838
sV\ud55c\ud654\uc190\ud574\ubcf4\ud5d8
p2839
VKRX:000370
p2840
sVCJ\uc81c\uc77c\uc81c\ub2f9
p2841
VKRX:097950
p2842
sV\uc0bc\uc6d0\uac15\uc7ac
p2843
VKRX:023000
p2844
sV\uc138\uc9c4\ud2f0\uc5d0\uc2a4
p2845
VKOSDAQ:067770
p2846
sV\uc9c4\uc131\ud2f0\uc774\uc528
p2847
VKOSDAQ:036890
p2848
sV\uc720\ube44\ubca8\ub85d\uc2a4
p2849
VKOSDAQ:089850
p2850
sV\ud55c\ucef4\uc2dc\ud050\uc5b4
p2851
VKOSDAQ:054920
p2852
sVKGP
p2853
VKRX:109070
p2854
sV\uc870\uc774\uc2dc\ud2f0
p2855
VKOSDAQ:067000
p2856
sV\uc131\ubb38\uc804\uc790\uc6b0
p2857
VKRX:014915
p2858
sV\ub9c8\uc81c\uc2a4\ud0c0
p2859
VKOSDAQ:035480
p2860
sV\ud55c\uae00\uacfc\ucef4\ud4e8\ud130
p2861
VKOSDAQ:030520
p2862
sV\uc778\ud130\uc5e0
p2863
VKOSDAQ:017250
p2864
sV\ud55c\uad6d\ud328\ub7ec\ub7a0
p2865
VKRX:168490
p2866
sV\ubbf8\ub798\uc544\uc774\uc564\uc9c0
p2867
VKRX:007120
p2868
sVC&S\uc790\uc0b0\uad00\ub9ac
p2869
VKOSDAQ:032040
p2870
sV\uc778\ud130\uc9c0\uc2a4
p2871
VKRX:129260
p2872
sVNICE
p2873
VKRX:034310
p2874
sV\uc131\uc6b0\ud558\uc774\ud14d
p2875
VKOSDAQ:015750
p2876
sV\uc5d4\uc5d0\uc2a4\uc1fc\ud551
p2877
VKRX:138250
p2878
sV\uc5d0\uc2a4\uc544\uc774\ud2f0\uae00\ub85c\ubc8c
p2879
VKOSDAQ:050320
p2880
sV\ub300\uc8fc\uc0b0\uc5c5
p2881
VKOSDAQ:003310
p2882
sV\ud3ec\uc2a4\ucf54\uac15\ud310
p2883
VKRX:058430
p2884
sV\ud55c\uad6d\uc720\ub9ac\uc6b0
p2885
VKRX:002005
p2886
sV\ud48d\uc0b0\ud640\ub529\uc2a4
p2887
VKRX:005810
p2888
sV\ucf00\uc774\uc528\ud14d
p2889
VKRX:029460
p2890
sV\ubc14\uc774\uc624\uc2a4\ub9c8\ud2b8
p2891
VKOSDAQ:038460
p2892
sV\uc0bc\uc9c4\uc81c\uc57d
p2893
VKRX:005500
p2894
sV\ud55c\ud654\uac24\ub7ec\ub9ac\uc544\ud0c0\uc784\uc6d4\ub4dc
p2895
VKRX:027390
p2896
sV\uc6b0\uc131\uc0ac\ub8cc
p2897
VKRX:006980
p2898
sV\uc2e0\ud55c \uc625\uc218\uc218 \uc120\ubb3c ETN(H)
p2899
VKRX:500013
p2900
sV\uc2e0\uc2a4\ud0c0\uc784\uc988
p2901
VKOSDAQ:056000
p2902
sVAJ\ub80c\ud130\uce74
p2903
VKRX:068400
p2904
sV\uc5d0\uc2a4\uc5e0\ucf54\uc5b4
p2905
VKOSDAQ:007820
p2906
sVTRUE \ucf54\uc2a4\ud53c \uc120\ubb3c\ub9e4\uc218 \ucf5c\ub9e4\ub3c4 ETN
p2907
VKRX:570001
p2908
sV\uc5d0\uba38\uc2a8\ud37c\uc2dc\ud53d
p2909
VKOSDAQ:025980
p2910
sV\ud604\ub300\ud574\uc0c1
p2911
VKRX:001450
p2912
sVLIG\ub125\uc2a4\uc6d0
p2913
VKRX:079550
p2914
sV\ub300\ud55c\ub274\ud31c
p2915
VKOSDAQ:054670
p2916
sV\ud37c\uc2a4\ud14d
p2917
VKRX:010820
p2918
sV\ub450\uc0b0
p2919
VKRX:000150
p2920
sV\ucf54\ub9ac\uc54401\ud638
p2921
VKRX:090970
p2922
sVARIRANG \uc2a4\ub9c8\ud2b8\ubca0\ud0c0 Value
p2923
VKRX:222180
p2924
sV\ub125\uc2a4\ud134
p2925
VKOSDAQ:089140
p2926
sV\uce74\ud504\ub85c
p2927
VKRX:006380
p2928
sV\ub300\ud55c\ud56d\uacf5
p2929
VKRX:003490
p2930
sV\ub3d9\uc544\ud654\uc131
p2931
VKOSDAQ:041930
p2932
sVTIGER \ucee4\ubc84\ub4dcC200
p2933
VKRX:166400
p2934
sVTRUE \uc778\ubc84\uc2a4 \ucc28\uc774\ub098H ETN(H)
p2935
VKRX:570006
p2936
sV\uba54\ub514\uc544\ub098
p2937
VKOSDAQ:041920
p2938
sV\ud55c\uc591\uc774\uc5d4\uc9c0
p2939
VKOSDAQ:045100
p2940
sV\uc2e0\uc131\ub378\ud0c0\ud14c\ud06c
p2941
VKOSDAQ:065350
p2942
sV\uc5d0\uc774\uc2a4\ud14c\ud06c
p2943
VKOSDAQ:088800
p2944
sVTIGER \ud604\ub300\ucc28\uadf8\ub8f9+
p2945
VKRX:138540
p2946
sV\uc5e0\uc820\ud50c\ub7ec\uc2a4
p2947
VKOSDAQ:032790
p2948
sV\uba54\ub9ac\uce20\uae08\uc735\uc9c0\uc8fc
p2949
VKRX:138040
p2950
sV\ud14c\ud06c\uc719
p2951
VKOSDAQ:089030
p2952
sV\ubc29\ub9bc
p2953
VKRX:003610
p2954
sV3S
p2955
VKOSDAQ:060310
p2956
sV\uc720\ub2c8\ud14c\uc2a4\ud2b8
p2957
VKOSDAQ:086390
p2958
sV\uc720\uc548\ud0c0\uc99d\uad8c\uc6b0
p2959
VKRX:003475
p2960
sV\uc774\uc218\ud398\ud0c0\uc2dc\uc2a4
p2961
VKRX:007660
p2962
sV\uc544\uc2dc\uc54411\ud638
p2963
VKRX:083580
p2964
sV\ubc31\uad11\uc0b0\uc5c5
p2965
VKRX:001340
p2966
sV\uc0bc\uc9c0\uc804\uc790
p2967
VKOSDAQ:037460
p2968
sV\ub3d9\uc591\uc0dd\uba85
p2969
VKRX:082640
p2970
sV\ud32c\uc624\uc158
p2971
VKRX:028670
p2972
sV\ub3d9\ubd80\uc99d\uad8c
p2973
VKRX:016610
p2974
sV\ub0a8\uc131
p2975
VKRX:004270
p2976
sV\ud55c\uad6d\ud654\uc7a5\ud488
p2977
VKRX:123690
p2978
sV\uacbd\ubcf4\uc81c\uc57d
p2979
VKRX:214390
p2980
sV\ud6a8\uc131
p2981
VKRX:004800
p2982
sV\ub300\ud55c\uc720\ud654
p2983
VKRX:006650
p2984
sV\ud37c\uc2dc\ud53d\ubc14\uc774\uc624
p2985
VKOSDAQ:060900
p2986
sVSK\uba38\ud2f0\ub9ac\uc5bc\uc988
p2987
VKOSDAQ:036490
p2988
sV\uc2e0\ub3c4\ub9ac\ucf54
p2989
VKRX:029530
p2990
sV\ub3d9\uc5913\uc6b0B
p2991
VKRX:001529
p2992
sVGS\uc6b0
p2993
VKRX:078935
p2994
sV\uc0bc\uc131 \ubbf8\uad6d \ub300\ud615 \uc131\uc7a5\uc8fc ETN
p2995
VKRX:530019
p2996
sV\uc218\uc131
p2997
VKOSDAQ:084180
p2998
sVTREX \uc911\uc18c\ud615\uac00\uce58
p2999
VKRX:097750
p3000
sV\uc0bc\uc131 \ud654\ud559 \ud14c\ub9c8\uc8fc ETN
p3001
VKRX:530012
p3002
sV\ud765\uc544\ud574\uc6b4
p3003
VKRX:003280
p3004
sV\uc720\ub2c8\uc628
p3005
VKRX:000910
p3006
sV\uc870\uad11ILI
p3007
VKOSDAQ:044060
p3008
sV\uc0bc\uc131 \ubbf8\uad6d \uc911\uc18c\ud615 \uc131\uc7a5\uc8fc ETN
p3009
VKRX:530021
p3010
sVKBSTAR \uc77c\ubcf8\ub808\ubc84\ub9ac\uc9c0(H)
p3011
VKRX:196220
p3012
sV\ub514\ud53c\uc528
p3013
VKRX:026890
p3014
sV\uacbd\ub3d9\ub098\ube44\uc5d4
p3015
VKRX:009450
p3016
sV\ubcf4\ub8e8\ub124\uc624
p3017
VKRX:004740
p3018
sVGIANT \ud604\ub300\ucc28\uadf8\ub8f9
p3019
VKRX:107560
p3020
sV\ucf54\uc624\ub871\ud50c\ub77c\uc2a4\ud2f1
p3021
VKRX:138490
p3022
sV\uc81c\uc8fc\ud56d\uacf5
p3023
VKRX:089590
p3024
sV\ucf54\ubbf8\ud31c
p3025
VKOSDAQ:041960
p3026
sV\ub300\ud55c\uc804\uc120
p3027
VKRX:001440
p3028
sV\uc6b0\ub9ac\uae30\uc220
p3029
VKOSDAQ:032820
p3030
sV\ub274\uc778\ud14d
p3031
VKOSDAQ:012340
p3032
sV\ubc14\ub978\uc190\uc774\uc564\uc5d0\uc774
p3033
VKOSDAQ:035620
p3034
sV\ub7a9\uc9c0\ub178\ubbf9\uc2a4
p3035
VKOSDAQ:084650
p3036
sV\ub300\uc0c1\uc6b0
p3037
VKRX:001685
p3038
sV\ud1a0\ud0c8\uc18c\ud504\ud2b8
p3039
VKOSDAQ:045340
p3040
sV\ub3d9\ubc29\uc544\uadf8\ub85c
p3041
VKRX:007590
p3042
sV\uc0bc\ubd80\ud1a0\uac74
p3043
VKRX:001470
p3044
sV\ud0dc\uc6c5
p3045
VKOSDAQ:044490
p3046
sV\uc5d0\uc774\ud14c\ud06c\uc194\ub8e8\uc158
p3047
VKOSDAQ:071670
p3048
sV\uad6d\ubcf4\ub514\uc790\uc778
p3049
VKOSDAQ:066620
p3050
sV\ud604\ub300\ud398\uc778\ud2b8
p3051
VKRX:011720
p3052
sV\ub204\ub9ac\ud154\ub808\ucf64
p3053
VKOSDAQ:040160
p3054
sV\uc5d0\ucf54\ud50c\ub77c\uc2a4\ud2f1
p3055
VKOSDAQ:038110
p3056
sV\ub355\uc591\uc0b0\uc5c5
p3057
VKRX:024900
p3058
sV\uc11c\uc6b8\uc2dd\ud488\uc6b0
p3059
VKRX:004415
p3060
sV\ubbf8\ub798\ucef4\ud37c\ub2c8
p3061
VKOSDAQ:049950
p3062
sV\uc0bc\ud604\ucca0\uac15
p3063
VKOSDAQ:017480
p3064
sV\uc544\uc2a4\ud2b8
p3065
VKOSDAQ:067390
p3066
sV\uc5d0\uc774\uce58\ucf00\uc774
p3067
VKOSDAQ:044780
p3068
sV\ud31c\uc2a4\ucf54
p3069
VKRX:036580
p3070
sVJW\uc2e0\uc57d
p3071
VKOSDAQ:067290
p3072
sVKCI
p3073
VKOSDAQ:036670
p3074
sV\ud55c\uc9c4\uce7c\uc6b0
p3075
VKRX:18064K
p3076
sV\uc778\ucc9c\ub3c4\uc2dc\uac00\uc2a4
p3077
VKRX:034590
p3078
sV\uc528\ud2b8\ub9ac
p3079
VKOSDAQ:047920
p3080
sV\uc0bc\uc544\uc81c\uc57d
p3081
VKOSDAQ:009300
p3082
sVYW
p3083
VKOSDAQ:051390
p3084
sV\uc2e0\ub77c\uad50\uc5ed
p3085
VKRX:004970
p3086
sV\uc18c\ud504\ud2b8\ub9e5\uc2a4
p3087
VKOSDAQ:052190
p3088
sV\uace0\ub824\uac1c\ubc1c
p3089
VKRX:004200
p3090
sV\uc720\ub2c8\uc148
p3091
VKOSDAQ:036200
p3092
sV\ub18d\uc6b0\ubc14\uc774\uc624
p3093
VKOSDAQ:054050
p3094
sV\uc0bc\uc131\uc911\uacf5\uc6b0
p3095
VKRX:010145
p3096
sV\ud55c\uc591\ub514\uc9c0\ud14d
p3097
VKOSDAQ:078350
p3098
sV\ube45\ud14d
p3099
VKOSDAQ:065450
p3100
sV\ucc9c\uc77c\uace0\uc18d
p3101
VKRX:000650
p3102
sV\ub300\uc0c1
p3103
VKRX:001680
p3104
sV\uba55\uc544\uc774\uc528\uc5d0\uc2a4
p3105
VKOSDAQ:058110
p3106
sV\ub3d9\ubd81\uc54412\ud638
p3107
VKRX:083370
p3108
sVKTH
p3109
VKOSDAQ:036030
p3110
sV\ud050\ub85c\ud640\ub529\uc2a4
p3111
VKOSDAQ:051780
p3112
sV\ud55c\uad6d\uc804\uc790\uc778\uc99d
p3113
VKOSDAQ:041460
p3114
sV\ud1a0\ub2c8\ubaa8\ub9ac
p3115
VKRX:214420
p3116
sV\uc81c\uc774\uc5d0\uc2a4\ucf54\ud37c\ub808\uc774\uc158
p3117
VKRX:194370
p3118
sV\ub124\uc624\uc704\uc988\ud640\ub529\uc2a4
p3119
VKOSDAQ:042420
p3120
sVTIGER \uc77c\ubcf8\ud5ec\uc2a4\ucf00\uc5b4(\ud569\uc131)
p3121
VKRX:248260
p3122
sV\ub514\uc9c0\ud2c0\uc870\uc120
p3123
VKOSDAQ:033130
p3124
sV\uc2e0\uc6d0\uc6b0
p3125
VKRX:009275
p3126
sV\ub300\ub9bc\uc528\uc5d4\uc5d0\uc2a4
p3127
VKRX:004440
p3128
sV\uc77c\uc9c4\uba38\ud2f0\ub9ac\uc5bc\uc988
p3129
VKRX:020150
p3130
sV\ucf00\uc774\uc528\ud53c\ub4dc
p3131
VKOSDAQ:025880
p3132
sV\uacbd\ub0a8\uc81c\uc57d
p3133
VKOSDAQ:053950
p3134
sVKODEX China H
p3135
VKRX:099140
p3136
sV\ub300\ud55c\uc81c\ub2f93\uc6b0B
p3137
VKRX:001799
p3138
sV\ud0dc\uc591
p3139
VKOSDAQ:053620
p3140
sV\ud55c\uc2e0\uae30\uacc4
p3141
VKRX:011700
p3142
sV\uc720\ub77c\ud14c\ud06c
p3143
VKOSDAQ:048430
p3144
sV\uc624\ub514\ud14d
p3145
VKOSDAQ:080520
p3146
sV\uc774\uc2a4\ud0c0\ucf54
p3147
VKRX:015020
p3148
sVKINDEX \uc911\uad6d\ubcf8\ud1a0CSI300
p3149
VKRX:168580
p3150
sVBNK\uae08\uc735\uc9c0\uc8fc
p3151
VKRX:138930
p3152
sV\ub300\ud55c\ud56d\uacf5\uc6b0
p3153
VKRX:003495
p3154
sV\ud6a8\uc131ITX
p3155
VKRX:094280
p3156
sV\uc2e0\uc131\uc194\ub77c\uc5d0\ub108\uc9c0
p3157
VKRX:011930
p3158
sV\ud604\ub300\uc911\uacf5\uc5c5
p3159
VKRX:009540
p3160
sV\ucf54\uc2a4\ubaa8\ud654\ud559
p3161
VKRX:005420
p3162
sV\ube0c\ub9ac\uc9c0\ud14d
p3163
VKOSDAQ:064480
p3164
sV\uc774\uc218\uc571\uc9c0\uc2a4
p3165
VKOSDAQ:086890
p3166
sVQV WISE \ubc30\ub2f9 ETN
p3167
VKRX:550002
p3168
sV\ub125\uc13c\uc6b0
p3169
VKRX:005725
p3170
sV\uad11\ub9bc
p3171
VKOSDAQ:014200
p3172
sV\uc548\ud2b8\ub85c\uc820
p3173
VKOSDAQ:065660
p3174
sV\uc81c\uc77c\uae30\ud68d
p3175
VKRX:030000
p3176
sV\uc720\ub2c8\uc2a8
p3177
VKOSDAQ:018000
p3178
sV\ub204\ub9ac\ud50c\ub79c
p3179
VKOSDAQ:069140
p3180
sV\ud55c\uad6dANKOR\uc720\uc804
p3181
VKRX:#152550
p3182
sVKOSEF \ube14\ub8e8\uce69
p3183
VKRX:104520
p3184
sV\uc544\uc2dc\uc54412\ud638
p3185
VKRX:083590
p3186
sV\ub300\uc131\ucc3d\ud22c
p3187
VKOSDAQ:027830
p3188
sV\uc138\uc544\ubca0\uc2a4\ud2f8
p3189
VKRX:001430
p3190
sV\ub098\ub77c\ucf00\uc774\uc544\uc774\uc528
p3191
VKRX:007460
p3192
sV\ud55c\ub77c
p3193
VKRX:014790
p3194
sV\ub124\ud328\uc2a4
p3195
VKOSDAQ:033640
p3196
sV\ud53c\uc81c\uc774\uc804\uc790
p3197
VKOSDAQ:006140
p3198
sV\uc720\uc131\ud2f0\uc5d4\uc5d0\uc2a4
p3199
VKOSDAQ:024800
p3200
sV\uc778\uc131\uc815\ubcf4
p3201
VKOSDAQ:033230
p3202
sVOCI
p3203
VKRX:010060
p3204
sV\uc528\uc528\uc5d0\uc2a4
p3205
VKOSDAQ:066790
p3206
sV\ub3d9\uc6d0\uae08\uc18d
p3207
VKRX:018500
p3208
sV\ub300\uc2e0\uc99d\uad8c\uc6b0
p3209
VKRX:003545
p3210
sVTIGER \ubca0\ud0c0\ud50c\ub7ec\uc2a4
p3211
VKRX:170350
p3212
sV\ud604\ub300\uc5d0\uc774\uce58\uc528\uc5d4
p3213
VKRX:126560
p3214
sVKODEX \ubbf8\uad6d\ubc14\uc774\uc624(\ud569\uc131)
p3215
VKRX:185680
p3216
sV\ub300\ud55c\ud574\uc6b4
p3217
VKRX:005880
p3218
sVTIGER \ub098\uc2a4\ub2e5\ubc14\uc774\uc624
p3219
VKRX:203780
p3220
sV\uc9c4\ud765\uae30\uc5c5
p3221
VKRX:002780
p3222
sVQV \ub871\uc20f K150 \ub9e4\uc218 \ub85c\uc6b0\ubcfc \ub9e4\ub3c4 ETN
p3223
VKRX:550004
p3224
sV\ud55c\uc194\ub125\uc2a4\uc9c0
p3225
VKOSDAQ:081970
p3226
sV\uc81c\uc8fc\uc740\ud589
p3227
VKRX:006220
p3228
sVTIGER \uad6d\ucc443
p3229
VKRX:114820
p3230
sV\uc0bc\uc131\uce74\ub4dc
p3231
VKRX:029780
p3232
sV\ud3a9\ud2b8\ub860
p3233
VKOSDAQ:087010
p3234
sV\uace0\ub824\uc544\uc5f0
p3235
VKRX:010130
p3236
sV\ubb34\ub9bc\ud398\uc774\ud37c
p3237
VKRX:009200
p3238
sVTREX 200
p3239
VKRX:108590
p3240
sV\ub4dc\ub798\uace4\ud50c\ub77c\uc774
p3241
VKOSDAQ:030350
p3242
sV\uc640\uc774\uc9c0-\uc6d0
p3243
VKOSDAQ:019210
p3244
sV\ud55c\uc2a4\ubc14\uc774\uc624\uba54\ub4dc
p3245
VKOSDAQ:042520
p3246
sVKBSTAR \uad6d\uace0\ucc44
p3247
VKRX:114100
p3248
sV\ud55c\uad6d\uae08\uc735\uc9c0\uc8fc
p3249
VKRX:071050
p3250
sV\uad6d\uc81c\uc57d\ud488
p3251
VKRX:002720
p3252
sV\uc0bc\uc131\uc911\uacf5\uc5c5
p3253
VKRX:010140
p3254
sVQV HMR \ud14c\ub9c8 ETN
p3255
VKRX:550025
p3256
sV\ubbf8\uc6d0\uc0c1\uc0ac
p3257
VKRX:002840
p3258
sVQV \uc758\ub8cc TOP5 ETN
p3259
VKRX:550012
p3260
sV\uacc4\ub8e1\uac74\uc124
p3261
VKRX:013580
p3262
sV\uace0\ub824\ubc18\ub3c4\uccb4
p3263
VKOSDAQ:089890
p3264
sV\uc0bc\uc131 \ud654\uc7a5\ud488 \ud14c\ub9c8\uc8fc ETN
p3265
VKRX:530004
p3266
sVKINDEX \uc0bc\uc131\uadf8\ub8f9SW
p3267
VKRX:108450
p3268
sVTIGER KTOP30
p3269
VKRX:228820
p3270
sV\uc911\uc559\uc5d0\ub108\ube44\uc2a4
p3271
VKOSDAQ:000440
p3272
sVTIGER \uc720\ub3d9\uc790\uae08
p3273
VKRX:157450
p3274
sV\uae00\ub85c\ubcf8
p3275
VKOSDAQ:019660
p3276
sV\ucf54\uc544\uc2dc\uc544\ud640\ub529\uc2a4
p3277
VKOSDAQ:045970
p3278
sV\ud30c\ub098\uc9c4
p3279
VKOSDAQ:046210
p3280
sVKOSEF \uc778\ub514\uc544(\ud569\uc131)
p3281
VKRX:200250
p3282
sV\uc5d0\uc774\ud2f0\ub118\uc778\ubca0\uc2a4\ud2b8
p3283
VKOSDAQ:021080
p3284
sVKINDEX \ubc38\ub958\ub300\ud615
p3285
VKRX:143460
p3286
sV\uc544\uc988\ud14dWB
p3287
VKOSDAQ:032080
p3288
sV\uc88b\uc740\uc0ac\ub78c\ub4e4
p3289
VKOSDAQ:033340
p3290
sV\ub3d9\ud654\uae30\uc5c5
p3291
VKOSDAQ:025900
p3292
sV\uae08\uac15\uacf5\uc5c5\uc6b0
p3293
VKRX:014285
p3294
sV\ub125\uc2a4\ud2b8\ubc14\uc774\uc624\ud640\ub529\uc2a4
p3295
VKOSDAQ:051980
p3296
sV\uc218\ucd9c\ud3ec\uc7a5
p3297
VKRX:002200
p3298
sV\ud604\ub300\ub9ac\ubc14\ud2b8
p3299
VKRX:079430
p3300
sVTRUE \uc720\ub85c\uc120\ubb3c ETN
p3301
VKRX:570013
p3302
sV\ubbf8\ub798\uc5d0\uc14b \ubbf8\uad6d \uc911\ud615\uc8fc ETN(H)
p3303
VKRX:590008
p3304
sV\uc544\uc774\uc624\ucf00\uc774
p3305
VKOSDAQ:078860
p3306
sV\ub8e8\ubbf8\ub9c8\uc774\ud06c\ub85c
p3307
VKOSDAQ:082800
p3308
sV\ucf54\uc2a4\uc628
p3309
VKOSDAQ:069110
p3310
sV\uc2e0\ud654\uc778\ud130\ud14d
p3311
VKOSDAQ:056700
p3312
sV\ud55c\uad6d\ud0c0\uc774\uc5b4
p3313
VKRX:161390
p3314
sV\ucf54\ub9ac\ub4dc
p3315
VKOSDAQ:033430
p3316
sVCJ\uc528\ud478\ub4dc1\uc6b0
p3317
VKRX:011155
p3318
sV\uc0bc\uc601\ud654\ud559
p3319
VKRX:003720
p3320
sVKODEX \uc18c\ube44\uc7ac
p3321
VKRX:136280
p3322
sV\ud55c\ubbf8\ubc18\ub3c4\uccb4
p3323
VKRX:042700
p3324
sV\ud55c\ud654
p3325
VKRX:000880
p3326
sV\uc778\ud329
p3327
VKRX:023810
p3328
sV\uc870\uad11\ud398\uc778\ud2b8
p3329
VKRX:004910
p3330
sVSH\uc5d0\ub108\uc9c0\ud654\ud559
p3331
VKRX:002360
p3332
sVTIGER \ub85c\uc6b0\ubcfc
p3333
VKRX:174350
p3334
sV\ud55c\ud654\ucf00\ubbf8\uce7c
p3335
VKRX:009830
p3336
sV\uc81c\uc77c\uc5f0\ub9c8
p3337
VKRX:001560
p3338
sV\uc774\ub9e4\uc9c4\uc544\uc2dc\uc544
p3339
VKOSDAQ:036260
p3340
sV\uc774\ub77c\uc774\ucf64
p3341
VKOSDAQ:041520
p3342
sV\uc544\ubaa8\ud14d
p3343
VKOSDAQ:052710
p3344
sV\ud0dc\uc6d0\ubb3c\uc0b0
p3345
VKRX:001420
p3346
sV\ub86f\ub370\uce60\uc131\uc6b0
p3347
VKRX:005305
p3348
sV\ud55c\uc194PNS
p3349
VKRX:010420
p3350
sV\uc9c4\uc6d0\uc0dd\uba85\uacfc\ud559
p3351
VKRX:011000
p3352
sV\uae08\ud638\uc11d\uc720
p3353
VKRX:011780
p3354
sV\ub86f\ub370\ud478\ub4dc
p3355
VKRX:002270
p3356
sVKT
p3357
VKRX:030200
p3358
sV\ud3ec\uc2a4\ucf54\uc5e0\ud14d
p3359
VKOSDAQ:009520
p3360
sV\ub9cc\ud638\uc81c\uac15
p3361
VKRX:001080
p3362
sVKBSTAR \uc218\ucd9c\uc8fc
p3363
VKRX:140570
p3364
sV\uc9c4\ub3c4
p3365
VKRX:088790
p3366
sV\ub300\uc720\uc704\ub2c8\uc544
p3367
VKOSDAQ:071460
p3368
sV\ube44\uce20\ub85c\uc140
p3369
VKOSDAQ:082920
p3370
sV\ub3d9\ubd81\uc54413\ud638
p3371
VKRX:083380
p3372
sV\ub300\ud55c\uc81c\ubd84
p3373
VKRX:001130
p3374
sV\uc0bc\ud654\uc655\uad00
p3375
VKRX:004450
p3376
sV\uc544\ubaa8\ub808\ud37c\uc2dc\ud53d\uc6b0
p3377
VKRX:090435
p3378
sV\uc81c\uc8fc\ubc18\ub3c4\uccb4
p3379
VKOSDAQ:080220
p3380
sV\ud574\ud0dc\uc81c\uacfc\uc2dd\ud488
p3381
VKRX:101530
p3382
sV\ud300\uc2a4
p3383
VKRX:134790
p3384
sVCS\ud640\ub529\uc2a4
p3385
VKRX:000590
p3386
sV\uc5d0\uc774\uc5d4\ud53c
p3387
VKRX:015260
p3388
sV\ub355\uc0b0\ud558\uc774\uba54\ud0c8
p3389
VKOSDAQ:077360
p3390
sV\uc0bc\ucc9c\ub9ac\uc790\uc804\uac70
p3391
VKOSDAQ:024950
p3392
sV\ud765\uad6d\ud654\uc7ac2\uc6b0B
p3393
VKRX:000547
p3394
sV\ud53c\uc5d0\uc2a4\ucf00\uc774
p3395
VKOSDAQ:031980
p3396
sV\ucc38\uc5d4\uc9c0\ub2c8\uc5b4\ub9c1
p3397
VKRX:009310
p3398
sVTIGER 200 \uc5d0\ub108\uc9c0\ud654\ud559
p3399
VKRX:139250
p3400
sV\ubd80\uad6d\uc99d\uad8c
p3401
VKRX:001270
p3402
sV\uc6b0\ub9ac\uc870\uba85
p3403
VKOSDAQ:037400
p3404
sVQV \ubc14\uc774\uc624 TOP5 ETN
p3405
VKRX:550014
p3406
sV\uc0bc\uc131 \uc99d\uad8c \ud14c\ub9c8\uc8fc ETN
p3407
VKRX:530009
p3408
sVKB\uc624\ud1a0\uc2dc\uc2a4
p3409
VKOSDAQ:024120
p3410
sVTIGER 200 \uc0b0\uc5c5\uc7ac
p3411
VKRX:227550
p3412
sV\uc38c\ubc14\uc774\uc624\ud14d
p3413
VKOSDAQ:049960
p3414
sV\uc2e0\ud55c \uc778\ubc84\uc2a4 WTI\uc6d0\uc720 \uc120\ubb3c ETN(H)
p3415
VKRX:500003
p3416
sV\uc81c\ub8e1\uc804\uae30
p3417
VKOSDAQ:033100
p3418
sV\ub514\uc640\uc774\ud30c\uc6cc
p3419
VKRX:210540
p3420
sV\ub808\ub4dc\ucea1\ud22c\uc5b4
p3421
VKOSDAQ:038390
p3422
sV\uae08\ud638\uc5d0\uc774\uce58\ud2f0
p3423
VKRX:214330
p3424
sV\ub3c4\ud654\uc5d4\uc9c0\ub2c8\uc5b4\ub9c1
p3425
VKRX:002150
p3426
sV\ud558\uc774\ud2b8\ub860
p3427
VKRX:019490
p3428
sV\ud0dc\ub9bc\ud398\uc774\ud37c
p3429
VKRX:019300
p3430
sV\uc2e0\ud55c \uc778\ubc84\uc2a4 \ub2e4\uc6b0\uc874\uc2a4\uc9c0\uc218 \uc120\ubb3c ETN(H)
p3431
VKRX:500010
p3432
sV\ub2e4\uc6b0\uae30\uc220
p3433
VKRX:023590
p3434
sVNH\ud22c\uc790\uc99d\uad8c\uc6b0
p3435
VKRX:005945
p3436
sV\ucf54\uc2a4\ubaa8\uc2e0\uc18c\uc7ac
p3437
VKRX:005070
p3438
sV\uc640\uc774\uc5d4\ud14d
p3439
VKOSDAQ:067900
p3440
sVTIGER US\ub9ac\uce20(\ud569\uc131 H)
p3441
VKRX:182480
p3442
sV\uc0ac\uc870\ud574\ud45c
p3443
VKRX:079660
p3444
sV\uc544\uc2dc\uc54413\ud638
p3445
VKRX:083600
p3446
sV\ud53d\uc140\ud50c\ub7ec\uc2a4
p3447
VKOSDAQ:087600
p3448
sV\uc0bc\uc131\ubb3c\uc0b0\uc6b0B
p3449
VKRX:02826K
p3450
sV\uc0c8\ub85c\ub2c9\uc2a4
p3451
VKOSDAQ:042600
p3452
sV\ucf54\ub9ac\uc544\uc624\ud1a0\uae00\ub77c\uc2a4
p3453
VKRX:152330
p3454
sV\ud55c\uc591\ud558\uc774\ud0c0\uc624
p3455
VKOSDAQ:064090
p3456
sV\uc2e0\uc591\uc624\ub77c\ucef4
p3457
VKOSDAQ:086830
p3458
sVTIGER LG\uadf8\ub8f9+
p3459
VKRX:138530
p3460
sV\uace0\ub824\uc2e0\uc6a9\uc815\ubcf4
p3461
VKOSDAQ:049720
p3462
sV\uc774\uc6d4\ub4dc
p3463
VKRX:084680
p3464
sV\ub514\ube44\ucf00\uc774
p3465
VKOSDAQ:073190
p3466
sV\ub300\uc591\uc81c\uc9c0
p3467
VKOSDAQ:006580
p3468
sV\uc190\uc624\uacf5
p3469
VKOSDAQ:066910
p3470
sV\ub3d9\uc544\uc5d0\uc2a4\ud2f0
p3471
VKRX:170900
p3472
sV\ud558\ub9bc\ud640\ub529\uc2a4
p3473
VKOSDAQ:024660
p3474
sV\uae30\uc544\ucc28
p3475
VKRX:000270
p3476
sV\ud2f0\uc5d8\uc544\uc774
p3477
VKOSDAQ:062860
p3478
sV\ub3d9\uc6d0\uc0b0\uc5c5
p3479
VKRX:006040
p3480
sV\ub9c8\ud06c\ub85c\uc820
p3481
VKOSDAQ:038290
p3482
sV\ud765\uad6d S&P \ub85c\uc6b0\ubcfc
p3483
VKRX:215620
p3484
sV\ub8fd\ud22c\ucf54\ub9ac\uc544
p3485
VKOSDAQ:060240
p3486
sV\ub300\ucc3d\ub2e8\uc870
p3487
VKRX:015230
p3488
sV\uc624\ub9ac\uc628
p3489
VKRX:001800
p3490
sVKOSEF \ub2e8\uae30\uc790\uae08
p3491
VKRX:130730
p3492
sV\uc54c\ub8e8\ucf54
p3493
VKRX:001780
p3494
sV\ub86f\ub370\uc1fc\ud551
p3495
VKRX:023530
p3496
sVTIGER \uc5ec\ud589\ub808\uc800
p3497
VKRX:228800
p3498
sV\uc0bc\uc131 \uc778\ubc84\uc2a4 China A50 \uc120\ubb3c ETN(H)
p3499
VKRX:530002
p3500
sV\ud604\ub300\uc0b0\uc5c5
p3501
VKRX:012630
p3502
sVTRUE \ucf54\ub9ac\uc544\ud504\ub9ac\ubbf8\uc5b4 ETN
p3503
VKRX:570009
p3504
sV\ucc3d\ud574\uc5d0\ud0c4\uc62c
p3505
VKOSDAQ:004650
p3506
sV\ub300\ud638\uc5d0\uc774\uc5d8
p3507
VKRX:069460
p3508
sV\uc120\ub3c4\uc804\uae30
p3509
VKRX:007610
p3510
sV\ub300\uc720\uc2e0\uc18c\uc7ac
p3511
VKRX:000300
p3512
sV\ub300\uc8fc\uc804\uc790\uc7ac\ub8cc
p3513
VKOSDAQ:078600
p3514
sV\ud604\ub300\ucc28\uc6b0
p3515
VKRX:005385
p3516
sV\uc720\uc218\ud640\ub529\uc2a4
p3517
VKRX:000700
p3518
sV\uc81c\uc774\ud2f0
p3519
VKOSDAQ:089790
p3520
sV\uc870\uc544\uc81c\uc57d
p3521
VKOSDAQ:034940
p3522
sV\uc720\ud654\uc99d\uad8c\uc6b0
p3523
VKRX:003465
p3524
sVARIRANG \uc2e0\ud765\uad6d(\ud569\uc131 H)
p3525
VKRX:195980
p3526
sVNI\uc2a4\ud2f8
p3527
VKRX:008260
p3528
sVLG\uc0dd\ud65c\uac74\uac15\uc6b0
p3529
VKRX:051905
p3530
sVKTB\ud22c\uc790\uc99d\uad8c
p3531
VKRX:030210
p3532
sV\ub274\ubcf4\ud14d
p3533
VKOSDAQ:060260
p3534
sVQV \uc5d0\ub108\uc9c0 TOP5 ETN
p3535
VKRX:550005
p3536
sVSIMPAC
p3537
VKRX:009160
p3538
sV\ucf00\uc774\uc5d8\ub137
p3539
VKOSDAQ:039420
p3540
sV\ub300\uc6d0\uc804\uc120\uc6b0
p3541
VKRX:006345
p3542
sVS&T\uc911\uacf5\uc5c5
p3543
VKRX:003570
p3544
sV\ud2f0\ud50c\ub799\uc2a4
p3545
VKOSDAQ:081150
p3546
sV\uad11\uc9c4\uc708\ud14d
p3547
VKOSDAQ:090150
p3548
sVPOSCO
p3549
VKRX:005490
p3550
sV\uc6c5\uc9c4\uc5d0\ub108\uc9c0
p3551
VKRX:103130
p3552
sV\uacbd\uc778\uc591\ud589
p3553
VKRX:012610
p3554
sVPN\ud48d\ub144
p3555
VKOSDAQ:024940
p3556
sV\ubcf4\ub839\uc81c\uc57d
p3557
VKRX:003850
p3558
sV\uc544\uc774\uc5d0\uc2a4\ub3d9\uc11c
p3559
VKRX:010780
p3560
sV\uccad\ud638\ucef4\ub137
p3561
VKRX:012600
p3562
sVTIGER \uc790\ub3d9\ucc28
p3563
VKRX:157510
p3564
sVKOSEF \ubbf8\uad6d\ub2ec\ub7ec\uc120\ubb3c \ub808\ubc84\ub9ac\uc9c0(\ud569\uc131)
p3565
VKRX:225800
p3566
sVSK\ucf00\ubbf8\uce7c\uc6b0
p3567
VKRX:006125
p3568
sV\uc815\uc0c1\uc81c\uc774\uc5d8\uc5d0\uc2a4
p3569
VKOSDAQ:040420
p3570
sV\ud604\ub300\uc81c\ucca0
p3571
VKRX:004020
p3572
sV\uc0bc\uc131 KTOP30 ETN
p3573
VKRX:530013
p3574
sV\ucf54\uc544\ud06c\ub85c\uc2a4
p3575
VKOSDAQ:038530
p3576
sV\uc720\uc9c4\ub85c\ubd07
p3577
VKOSDAQ:056080
p3578
sV\uc0bc\uc131 \ubbf8\uad6d \ub300\ud615 \uac00\uce58\uc8fc ETN(H)
p3579
VKRX:530016
p3580
sVSG\uc138\uacc4\ubb3c\uc0b0
p3581
VKRX:004060
p3582
sV\ud604\uc9c4\uc18c\uc7ac
p3583
VKOSDAQ:053660
p3584
sV\uc0bc\uc131\uc5d0\uc2a4\ub514\uc5d0\uc2a4
p3585
VKRX:018260
p3586
sVKTOP 50
p3587
VKRX:168300
p3588
sVTIGER S&P500\uc120\ubb3c(H)
p3589
VKRX:143850
p3590
sV\uc5d0\uc2a4\ud14d
p3591
VKOSDAQ:069510
p3592
sV\uc0bc\ubcf4\ud310\uc9c0
p3593
VKOSDAQ:023600
p3594
sV\uc544\uc9c4\uc5d1\uc2a4\ud14d
p3595
VKOSDAQ:059120
p3596
sVLG\ub514\uc2a4\ud50c\ub808\uc774
p3597
VKRX:034220
p3598
sVDRB\ub3d9\uc77c
p3599
VKRX:004840
p3600
sV\ud30c\uc6cc K100
p3601
VKRX:140950
p3602
sV\uc528\ud2f0\uc5d8
p3603
VKOSDAQ:036170
p3604
sVKINDEX \ucf54\uc2a4\ub2e5150 \ub808\ubc84\ub9ac\uc9c0
p3605
VKRX:234790
p3606
sV\uc5d0\uc2a4\ub137
p3607
VKOSDAQ:038680
p3608
sV\ub300\uc131\ud640\ub529\uc2a4
p3609
VKRX:016710
p3610
sVTIGER \uc77c\ubcf8(\ud569\uc131 H)
p3611
VKRX:195920
p3612
sV\uc544\uc774\ud06c\ub798\ud504\ud2b8
p3613
VKOSDAQ:052460
p3614
sV\ub3d9\ubd81\uc54410\ud638
p3615
VKRX:083350
p3616
sV\ub300\uc6b0 \ucc28\uc774\ub098 \ub300\ud45c\uc8fc 15 ETN(H)
p3617
VKRX:520002
p3618
sV\uc2e0\ud55c \uc778\ubc84\uc2a4 \uc625\uc218\uc218 \uc120\ubb3c ETN(H)
p3619
VKRX:500014
p3620
sV\ube44\uc5e0\ud2f0
p3621
VKOSDAQ:086670
p3622
sV\uc790\uc5f0\uacfc\ud658\uacbd
p3623
VKOSDAQ:043910
p3624
sV\uae08\uc591
p3625
VKRX:001570
p3626
sV\uc601\ubcf4\ud654\ud559
p3627
VKRX:014440
p3628
sV\ucf54\uc544\uc2a4
p3629
VKRX:071950
p3630
sVARIRANG \uc2a4\ub9c8\ud2b8\ubca0\ud0c0 Momentum
p3631
VKRX:222190
p3632
sVSG\ucda9\ubc29
p3633
VKRX:001380
p3634
sVCJ\ud5ec\ub85c\ube44\uc804
p3635
VKRX:037560
p3636
sVKOSEF \ub2ec\ub7ec\uc120\ubb3c
p3637
VKRX:138230
p3638
sVHB\ud14c\ud06c\ub180\ub7ec\uc9c0
p3639
VKOSDAQ:078150
p3640
sV\uc2e0\ud55c WTI\uc6d0\uc720 \uc120\ubb3c ETN(H)
p3641
VKRX:500015
p3642
sV\uc774\uad6c\uc0b0\uc5c5
p3643
VKRX:025820
p3644
sV\ub9cc\ub3c4
p3645
VKRX:204320
p3646
sV\uc6b0\ub9ac\ub4e4\ud734\ube0c\ub808\uc778
p3647
VKRX:118000
p3648
sVTIGER \uae00\ub85c\ubc8c\ud5ec\uc2a4\ucf00\uc5b4(\ud569\uc131)
p3649
VKRX:248270
p3650
sV\uc0ac\uc870\ub300\ub9bc
p3651
VKRX:003960
p3652
sV\uc194\ube0c\ub808\uc778\uc774\uc5d4\uc9c0
p3653
VKOSDAQ:039230
p3654
sV\uae68\ub057\ud55c\ub098\ub77c
p3655
VKRX:004540
p3656
sV\ucf00\uc774\ub9e5
p3657
VKOSDAQ:043290
p3658
sV\ud55c\uad6d\uc815\ubcf4\ud1b5\uc2e0
p3659
VKOSDAQ:025770
p3660
sV\uc6b0\ub9ac\uc0b0\uc5c5\ud640\ub529\uc2a4
p3661
VKOSDAQ:072470
p3662
sVKODEX \uc740\uc120\ubb3c(H)
p3663
VKRX:144600
p3664
sV\ub77d\uc564\ub77d
p3665
VKRX:115390
p3666
sV\uac15\ub0a8\uc81c\ube44\uc2a4\ucf54
p3667
VKRX:000860
p3668
sV\uc2e0\ud55c \uc740 \uc120\ubb3c ETN(H)
p3669
VKRX:500017
p3670
sV\ub9ac\ub178\uacf5\uc5c5
p3671
VKOSDAQ:058470
p3672
sV\ud604\ub300\uc544\uc774\ube44\ud2f0
p3673
VKOSDAQ:048410
p3674
sV\uc544\uc774\uc5d0\uc2a4\uc774\ucee4\uba38\uc2a4
p3675
VKOSDAQ:069920
p3676
sV\ud55c\uad6d\ucef4\ud4e8\ud130
p3677
VKOSDAQ:054040
p3678
sV\ubbf8\ub798\uc5d0\uc14b \uc720\ub7fd \uc911\ud615\uc8fc ETN(H)
p3679
VKRX:590004
p3680
sV\ub300\ub3d9\uacf5\uc5c5
p3681
VKRX:000490
p3682
sV\uc5d0\uc784\ud558\uc774
p3683
VKOSDAQ:043580
p3684
sVDGB\uae08\uc735\uc9c0\uc8fc
p3685
VKRX:139130
p3686
sVGST
p3687
VKOSDAQ:083450
p3688
sVARIRANG \uc2a4\ub9c8\ud2b8\ubca0\ud0c0 LowVOL
p3689
VKRX:236460
p3690
sV\uc5e0\uac8c\uc784
p3691
VKOSDAQ:058630
p3692
sV\ud55c\ud654\uc0dd\uba85
p3693
VKRX:088350
p3694
sVARIRANG \uc120\uc9c4\uad6d(\ud569\uc131 H)
p3695
VKRX:195970
p3696
sV\uae08\ud638\uc804\uae30
p3697
VKRX:001210
p3698
sVSTX\uc5d4\uc9c4
p3699
VKRX:077970
p3700
sV\ube5b\uacfc\uc804\uc790
p3701
VKOSDAQ:069540
p3702
sV\ud06c\ub77c\uc6b4\uc81c\uacfc
p3703
VKRX:005740
p3704
sVARIRANG \uc6b0\ub7c9\ud68c\uc0ac\ucc4450
p3705
VKRX:239660
p3706
sV\ub9ac\uc820
p3707
VKOSDAQ:038340
p3708
sVKINDEX \uc77c\ubcf8\ub808\ubc84\ub9ac\uc9c0(H)
p3709
VKRX:196030
p3710
sV\ub9ac\ub354\uc2a4\ucf54\uc2a4\uba54\ud2f1
p3711
VKOSDAQ:016100
p3712
sV\ub3d9\ubd80\ud654\uc7ac
p3713
VKRX:005830
p3714
sV\uc774\uc624\ud14c\ud06c\ub2c9\uc2a4
p3715
VKOSDAQ:039030
p3716
sVTIGER 200 IT
p3717
VKRX:139260
p3718
sVNICE\ud3c9\uac00\uc815\ubcf4
p3719
VKOSDAQ:030190
p3720
sV\uc11c\ud55c
p3721
VKOSDAQ:011370
p3722
sV\ud0dc\uc601\uac74\uc124
p3723
VKRX:009410
p3724
sVKODEX China H \ub808\ubc84\ub9ac\uc9c0(H)
p3725
VKRX:204450
p3726
sVKINDEX 200
p3727
VKRX:105190
p3728
sV\uc138\uc6d0\uc815\uacf5
p3729
VKRX:021820
p3730
sVKODEX \ubc30\ub2f9\uc131\uc7a5
p3731
VKRX:211900
p3732
sV\ub179\uc2ed\uc790\ud640\ub529\uc2a4
p3733
VKRX:005250
p3734
sV\ub300\ud55c\uc81c\ub2f9\uc6b0
p3735
VKRX:001795
p3736
sV\uc0bc\uc775\uc545\uae30
p3737
VKRX:002450
p3738
sV\uc77c\uc131\uac74\uc124
p3739
VKRX:013360
p3740
sVLG\ud654\ud559
p3741
VKRX:051910
p3742
sV\uad6d\uc77c\uc2e0\ub3d9
p3743
VKOSDAQ:060480
p3744
sV\ubbf8\ub798\uc5d0\uc14b \uc77c\ubcf8 \uc911\ud615\uc8fc ETN(H)
p3745
VKRX:590006
p3746
sVKODEX \ubbf8\uad6d\uc0b0\uc5c5\uc7ac(\ud569\uc131)
p3747
VKRX:200030
p3748
sV\ubbf8\ub798\uc5d0\uc14b\uc0dd\uba85
p3749
VKRX:085620
p3750
sV\uc77c\uc131\uac74\uc1242\uc6b0B
p3751
VKRX:013367
p3752
sV\ud558\ub098\ub2c8\ucf082\ud638
p3753
VKRX:099350
p3754
sVKODEX \uc6b4\uc1a1
p3755
VKRX:140710
p3756
sV\uc2e0\ud55c \ub2ec\ub7ec\uc778\ub371\uc2a4 \uc120\ubb3c ETN(H)
p3757
VKRX:500011
p3758
sV\ubd80\uad11\uc57d\ud488
p3759
VKRX:003000
p3760
sV\uc774\uc0c1\ub124\ud2b8\uc6cd\uc2a4
p3761
VKOSDAQ:080010
p3762
sV\ub0a8\uc120\uc54c\ubbf8\uc6b0
p3763
VKRX:008355
p3764
sV\ud3c9\ud654\ud640\ub529\uc2a4
p3765
VKRX:010770
p3766
sV\ub3d9\uc6d0F&B
p3767
VKRX:049770
p3768
sVTIGER \uc6d0\uc720\uc120\ubb3c(H)
p3769
VKRX:130680
p3770
sV\uc11c\uc6b8\uc625\uc158
p3771
VKOSDAQ:063170
p3772
sVTRUE \ube455 \ub3d9\uc77c\uac00\uc911 ETN
p3773
VKRX:570003
p3774
sV\ubaa8\ub450\ud22c\uc5b4
p3775
VKOSDAQ:080160
p3776
sV\ub300\ub355GDS
p3777
VKRX:004130
p3778
sV\ud55c\ub3c5
p3779
VKRX:002390
p3780
sV\ucf00\uc774\ud53c\ud2f0
p3781
VKOSDAQ:054410
p3782
sVBGF\ub9ac\ud14c\uc77c
p3783
VKRX:027410
p3784
sVSG&G
p3785
VKOSDAQ:040610
p3786
sVARIRANG \uc8fc\ub3c4\uc8fc
p3787
VKRX:161500
p3788
sV\uc0bc\uc6b0\uc5e0\uc2a4
p3789
VKOSDAQ:082660
p3790
sV\uc601\ud765\ucca0\uac15
p3791
VKRX:012160
p3792
sV\uc11c\uc6b8\uac00\uc2a4
p3793
VKRX:017390
p3794
sV\uc778\ubca0\ub2c8\uc544
p3795
VKOSDAQ:079950
p3796
sV\uad6d\ubcf4
p3797
VKRX:001140
p3798
sV\uc0bc\uc9c4
p3799
VKOSDAQ:032750
p3800
sV\ud55c\uad6d\uacf5\ud56d
p3801
VKRX:005430
p3802
sV\ud55c\uad6d\ud504\ub79c\uc9c0
p3803
VKRX:010100
p3804
sV\uc2dc\ub178\ud399\uc2a4
p3805
VKOSDAQ:025320
p3806
sV\ud558\uc774\uace8\ub4dc3\ud638
p3807
VKRX:153360
p3808
sV\uc131\uc6b0\uc804\uc790
p3809
VKOSDAQ:081580
p3810
sV\ub098\ub178\uc5d4\ud14d
p3811
VKOSDAQ:039860
p3812
sV\ub2e4\ub0a0
p3813
VKOSDAQ:064260
p3814
sV\uc5d8\uc624\ud2f0\ubca0\ud060
p3815
VKOSDAQ:083310
p3816
sVKBSTAR \ub2e8\uae30\ud1b5\uc548\ucc44
p3817
VKRX:196230
p3818
sV\uc608\ub9bc\ub2f9
p3819
VKOSDAQ:036000
p3820
sV\ub3d9\ubd81\uc54411\ud638
p3821
VKRX:083360
p3822
sV\uc2e0\ud48d\uc81c\uc57d
p3823
VKRX:019170
p3824
sVTIGER \ub098\uc2a4\ub2e5100
p3825
VKRX:133690
p3826
sV\ub77c\uc774\ube0c\ud50c\ub809\uc2a4
p3827
VKOSDAQ:050120
p3828
sV\uc0bc\uc131\uc804\uc790
p3829
VKRX:005930
p3830
sV\uc5d4\ud154\uc2a4
p3831
VKOSDAQ:069410
p3832
sV\uc11c\ub9b0\ubc14\uc774\uc624
p3833
VKOSDAQ:038070
p3834
sV\ud55c\uc804\uc0b0\uc5c5
p3835
VKRX:130660
p3836
sVGS\ud648\uc1fc\ud551
p3837
VKOSDAQ:028150
p3838
sV\ubc31\uc0b0
p3839
VKRX:035150
p3840
sV\ubbf8\uc6d0\uc5d0\uc2a4\uc528
p3841
VKRX:107590
p3842
sV\ubbf8\ub798\uc5d0\uc14b \uc778\ubc84\uc2a4 S&P500 ETN(H)
p3843
VKRX:590011
p3844
sV\ucd08\ub85d\ubc40
p3845
VKOSDAQ:047820
p3846
sV\ud55c\uad6d\ub0b4\ud654
p3847
VKRX:010040
p3848
sV\ucf00\uc774\ud53c\uc5e0\ud14c\ud06c
p3849
VKOSDAQ:042040
p3850
sVKINDEX \uace8\ub4dc\uc120\ubb3c \uc778\ubc84\uc2a42X(\ud569\uc131 H)
p3851
VKRX:232590
p3852
sV\uc138\uc9c4\uc804\uc790
p3853
VKOSDAQ:080440
p3854
sV\ud55c\ud654\ud14c\ud06c\uc708
p3855
VKRX:012450
p3856
sV\ud31c\uc2a4\uc6f0\ubc14\uc774\uc624
p3857
VKOSDAQ:043090
p3858
sV\ub300\uc720\uc5d0\uc774\ud14d
p3859
VKRX:002880
p3860
sVTIGER \uc774\uba38\uc9d5\ub9c8\ucf13\ub808\ubc84\ub9ac\uc9c0(\ud569\uc131 H)
p3861
VKRX:225060
p3862
sV\ucef4\ud22c\uc2a4
p3863
VKOSDAQ:078340
p3864
sV\uacbd\ub18d
p3865
VKRX:002100
p3866
sVKODEX \ub2e8\uae30\ucc44\uad8cPLUS
p3867
VKRX:214980
p3868
sV\uc5e0\uc81c\uc774\ube44
p3869
VKOSDAQ:074150
p3870
sV\ub300\ub9bcB&Co
p3871
VKRX:005750
p3872
sV\ub450\uc0b0\uc778\ud504\ub77c\ucf54\uc5b4
p3873
VKRX:042670
p3874
sV\uc704\uc988\ucf54\ud504
p3875
VKOSDAQ:038620
p3876
sV\ub0a8\uc591\uc720\uc5c5\uc6b0
p3877
VKRX:003925
p3878
sV\ud604\ub300\uc5d8\ub9ac\ubca0\uc774
p3879
VKRX:017800
p3880
sV\uc6d0\uc775\ud640\ub529\uc2a4
p3881
VKOSDAQ:030530
p3882
sV\uc288\ub12c\uc0dd\uba85\uacfc\ud559
p3883
VKRX:003060
p3884
sV\uc2e0\uc131\ud1b5\uc0c1
p3885
VKRX:005390
p3886
sV\uc11c\uc5f0\uc774\ud654
p3887
VKRX:200880
p3888
sV\ucf54\ucf64
p3889
VKOSDAQ:015710
p3890
sV\ud504\ub9ac\uc5e0\uc2a4
p3891
VKOSDAQ:053160
p3892
sVSBI\uc778\ubca0\uc2a4\ud2b8\uba3c\ud2b8
p3893
VKOSDAQ:019550
p3894
sV\ud3ec\uc2a4\ucf54\ucf10\ud14d
p3895
VKOSDAQ:003670
p3896
sV\uc81c\uc77c\ubc14\uc774\uc624
p3897
VKOSDAQ:052670
p3898
sV\uc11c\ud76c\uac74\uc124
p3899
VKOSDAQ:035890
p3900
sV\ube44\uc5d0\uc774\uce58\uc544\uc774
p3901
VKOSDAQ:083650
p3902
sV\ub3d9\ubd80\ud558\uc774\ud14d1\uc6b0
p3903
VKRX:000995
p3904
sVable \ucf54\uc2a4\ud53c200\uc120\ubb3c\ud50c\ub7ec\uc2a4 ETN
p3905
VKRX:580001
p3906
sVKODEX \ucf54\uc2a4\ud53c
p3907
VKRX:226490
p3908
sV\ube5b\uc0d8\uc804\uc790
p3909
VKOSDAQ:072950
p3910
sV\ub300\uc6b0\uc870\uc120\ud574\uc591
p3911
VKRX:042660
p3912
sV\uc624\uc131\uc5d8\uc5d0\uc2a4\ud2f0
p3913
VKOSDAQ:052420
p3914
sVLG\uc804\uc790
p3915
VKRX:066570
p3916
sV\uae30\uc0b0\ud154\ub808\ucf64
p3917
VKOSDAQ:035460
p3918
sV\ud50c\ub808\uc774\uc704\ub4dc
p3919
VKOSDAQ:023770
p3920
sV\ud604\ub300\uc99d\uad8c
p3921
VKRX:003450
p3922
sVTIGER \uc77c\ubcf8\ub2c8\ucf00\uc774225
p3923
VKRX:241180
p3924
sV\ud55c\ub18d\ud654\uc131
p3925
VKRX:011500
p3926
sV\ub178\ub8e8\ud640\ub529\uc2a4\uc6b0
p3927
VKRX:000325
p3928
sV\uc778\ud130\ud50c\ub809\uc2a4
p3929
VKOSDAQ:051370
p3930
sV\uc0ac\uc870\uc624\uc591
p3931
VKRX:006090
p3932
sV\ub3d9\uc544\uc5d0\uc2a4\ud14d
p3933
VKRX:058730
p3934
sV\uc0bc\uad11\uae00\ub77c\uc2a4
p3935
VKRX:005090
p3936
sV\uc2e0\ud55c \ube0c\ub80c\ud2b8\uc6d0\uc720 \uc120\ubb3c ETN(H)
p3937
VKRX:500004
p3938
s.