(dp0
S'011320'
p1
(lp2
V\uc720\ub2c8\ud06c
p3
aVKOSDAQ:011320
p4
aVKOSDAQ
p5
asS'126870'
p6
(lp7
V\ub274\ub85c\uc2a4
p8
aVKOSDAQ:126870
p9
ag5
asS'019590'
p10
(lp11
V\uc5e0\ubca4\ucc98\ud22c\uc790
p12
aVKOSDAQ:019590
p13
ag5
asS'086040'
p14
(lp15
V\ubc14\uc774\uc624\ud1a1\uc2a4\ud14d
p16
aVKOSDAQ:086040
p17
ag5
asS'097800'
p18
(lp19
V\uc708\ud329
p20
aVKOSDAQ:097800
p21
ag5
asS'117670'
p22
(lp23
V\uc54c\ud30c\uce69\uc2a4
p24
aVKOSDAQ:117670
p25
ag5
asS'096040'
p26
(lp27
V\uc774\ud2b8\ub860
p28
aVKOSDAQ:096040
p29
ag5
asS'005110'
p30
(lp31
V\ud55c\ucc3d
p32
aVKRX:005110
p33
aVKOSPI
p34
asS'071200'
p35
(lp36
V\uc778\ud53c\ub2c8\ud2b8\ud5ec\uc2a4\ucf00\uc5b4
p37
aVKOSDAQ:071200
p38
ag5
asS'018260'
p39
(lp40
V\uc0bc\uc131\uc5d0\uc2a4\ub514\uc5d0\uc2a4
p41
aVKRX:018260
p42
ag34
asS'000250'
p43
(lp44
V\uc0bc\ucc9c\ub2f9\uc81c\uc57d
p45
aVKOSDAQ:000250
p46
ag5
asS'014100'
p47
(lp48
V\ubcf4\ub839\uba54\ub514\uc559\uc2a4
p49
aVKOSDAQ:014100
p50
ag5
asS'030000'
p51
(lp52
V\uc81c\uc77c\uae30\ud68d
p53
aVKRX:030000
p54
ag34
asS'010130'
p55
(lp56
V\uace0\ub824\uc544\uc5f0
p57
aVKRX:010130
p58
ag34
asS'215100'
p59
(lp60
V\ud558\ub098\uba38\uc2a4\ud2b84\ud638\uc2a4\ud329
p61
aVKOSDAQ:215100
p62
ag5
asS'051910'
p63
(lp64
VLG\ud654\ud559
p65
aVKRX:051910
p66
ag34
asS'009830'
p67
(lp68
V\ud55c\ud654\ucf00\ubbf8\uce7c
p69
aVKRX:009830
p70
ag34
asS'012600'
p71
(lp72
V\uccad\ud638\ucef4\ub137
p73
aVKRX:012600
p74
ag34
asS'071840'
p75
(lp76
V\ub86f\ub370\ud558\uc774\ub9c8\ud2b8
p77
aVKRX:071840
p78
ag34
asS'101490'
p79
(lp80
V\uc5d0\uc2a4\uc564\uc5d0\uc2a4\ud14d
p81
aVKOSDAQ:101490
p82
ag5
asS'032940'
p83
(lp84
V\uc6d0\uc775
p85
aVKOSDAQ:032940
p86
ag5
asS'011390'
p87
(lp88
V\ubd80\uc0b0\uc0b0\uc5c5
p89
aVKRX:011390
p90
ag34
asS'005680'
p91
(lp92
V\uc0bc\uc601\uc804\uc790\uacf5\uc5c5
p93
aVKRX:005680
p94
ag34
asS'057050'
p95
(lp96
V\ud604\ub300\ud648\uc1fc\ud551
p97
aVKRX:057050
p98
ag34
asS'033110'
p99
(lp100
V\uc774\ub514
p101
aVKOSDAQ:033110
p102
ag5
asS'057500'
p103
(lp104
VSKC \uc194\ubbf9\uc2a4
p105
aVKOSDAQ:057500
p106
ag5
asS'009580'
p107
(lp108
V\ubb34\ub9bcP&P
p109
aVKRX:009580
p110
ag34
asS'005750'
p111
(lp112
V\ub300\ub9bc\ube44\uc564\ucf54
p113
aVKRX:005750
p114
ag34
asS'034120'
p115
(lp116
VSBS
p117
aVKRX:034120
p118
ag34
asS'004370'
p119
(lp120
V\ub18d\uc2ec
p121
aVKRX:004370
p122
ag34
asS'166480'
p123
(lp124
V\ucf54\uc544\uc2a4\ud15c
p125
aVKOSDAQ:166480
p126
ag5
asS'100700'
p127
(lp128
V\uc138\uc6b4\uba54\ub514\uce7c
p129
aVKOSDAQ:100700
p130
ag5
asS'083350'
p131
(lp132
V\ub3d9\ubd81\uc54410\ud638\uc120\ubc15\ud22c\uc790
p133
aVKRX:083350
p134
ag34
asS'004150'
p135
(lp136
V\ud55c\uc194\ud640\ub529\uc2a4
p137
aVKRX:004150
p138
ag34
asS'046070'
p139
(lp140
V\ucf54\ub2e4\ucf54
p141
aVKOSDAQ:046070
p142
ag5
asS'152550'
p143
(lp144
V\ud55c\uad6dANKOR\uc720\uc804
p145
aVKRX:152550
p146
ag34
asS'003680'
p147
(lp148
V\ud55c\uc131\uae30\uc5c5
p149
aVKRX:003680
p150
ag34
asS'121890'
p151
(lp152
V\uc5d0\uc2a4\ub514\uc2dc\uc2a4\ud15c
p153
aVKOSDAQ:121890
p154
ag5
asS'011170'
p155
(lp156
V\ub86f\ub370\ucf00\ubbf8\uce7c
p157
aVKRX:011170
p158
ag34
asS'042370'
p159
(lp160
V\ube44\uce20\ub85c\ud14c\ud06c
p161
aVKOSDAQ:042370
p162
ag5
asS'004970'
p163
(lp164
V\uc2e0\ub77c\uad50\uc5ed
p165
aVKRX:004970
p166
ag34
asS'081580'
p167
(lp168
V\uc131\uc6b0\uc804\uc790
p169
aVKOSDAQ:081580
p170
ag5
asS'140890'
p171
(lp172
V\ud2b8\ub7ec\uc2a4\uc81c7\ud638
p173
aVKRX:140890
p174
ag34
asS'008500'
p175
(lp176
V\uc77c\uc815\uc2e4\uc5c5
p177
aVKRX:008500
p178
ag34
asS'010950'
p179
(lp180
VS-Oil
p181
aVKRX:010950
p182
ag34
asS'008290'
p183
(lp184
V\uc6d0\ud48d\ubb3c\uc0b0
p185
aVKOSDAQ:008290
p186
ag5
asS'139480'
p187
(lp188
V\uc774\ub9c8\ud2b8
p189
aVKRX:139480
p190
ag34
asS'200230'
p191
(lp192
V\ud154\ucf58
p193
aVKOSDAQ:200230
p194
ag5
asS'119860'
p195
(lp196
V\ub2e4\ub098\uc640
p197
aVKOSDAQ:119860
p198
ag5
asS'032540'
p199
(lp200
VTJ\ubbf8\ub514\uc5b4
p201
aVKOSDAQ:032540
p202
ag5
asS'043590'
p203
(lp204
V\ud06c\ub85c\ubc14\ud558\uc774\ud14d
p205
aVKOSDAQ:043590
p206
ag5
asS'023430'
p207
(lp208
V\uc778\ud14c\uadf8\ub808\uc774\ud2f0\ub4dc\uc5d0\ub108\uc9c0
p209
aVKOSDAQ:023430
p210
ag5
asS'012800'
p211
(lp212
V\ub300\ucc3d
p213
aVKRX:012800
p214
ag34
asS'007070'
p215
(lp216
VGS\ub9ac\ud14c\uc77c
p217
aVKRX:007070
p218
ag34
asS'067390'
p219
(lp220
V\uc544\uc2a4\ud2b8
p221
aVKOSDAQ:067390
p222
ag5
asS'007980'
p223
(lp224
V\ud0dc\ud3c9\uc591\ubb3c\uc0b0
p225
aVKRX:007980
p226
ag34
asS'095190'
p227
(lp228
V\uc774\uc5e0\ucf54\ub9ac\uc544
p229
aVKOSDAQ:095190
p230
ag5
asS'000390'
p231
(lp232
V\uc0bc\ud654\ud398\uc778\ud2b8\uacf5\uc5c5
p233
aVKRX:000390
p234
ag34
asS'045520'
p235
(lp236
V\ud06c\ub9b0\uc564\uc0ac\uc774\uc5b8\uc2a4
p237
aVKOSDAQ:045520
p238
ag5
asS'058850'
p239
(lp240
VKTcs
p241
aVKRX:058850
p242
ag34
asS'023890'
p243
(lp244
V\uc544\ud2b8\ub77c\uc2a4BX
p245
aVKOSDAQ:023890
p246
ag5
asS'003350'
p247
(lp248
V\ud55c\uad6d\ud654\uc7a5\ud488\uc81c\uc870
p249
aVKRX:003350
p250
ag34
asS'046210'
p251
(lp252
V\ud30c\ub098\uc9c4
p253
aVKOSDAQ:046210
p254
ag5
asS'084990'
p255
(lp256
V\ubc14\uc774\ub85c\uba54\ub4dc
p257
aVKOSDAQ:084990
p258
ag5
asS'008470'
p259
(lp260
V\ubd80\uc2a4\ud0c0
p261
aVKOSDAQ:008470
p262
ag5
asS'008870'
p263
(lp264
V\uae08\ube44
p265
aVKRX:008870
p266
ag34
asS'058450'
p267
(lp268
V\uc77c\uc57c
p269
aVKOSDAQ:058450
p270
ag5
asS'007210'
p271
(lp272
V\ubcbd\uc0b0
p273
aVKRX:007210
p274
ag34
asS'048910'
p275
(lp276
V\ub300\uc6d0\ubbf8\ub514\uc5b4
p277
aVKOSDAQ:048910
p278
ag5
asS'059100'
p279
(lp280
V\uc544\uc774\ucef4\ud3ec\ub10c\ud2b8
p281
aVKOSDAQ:059100
p282
ag5
asS'003220'
p283
(lp284
V\ub300\uc6d0\uc81c\uc57d
p285
aVKRX:003220
p286
ag34
asS'095610'
p287
(lp288
V\ud14c\uc2a4
p289
aVKOSDAQ:095610
p290
ag5
asS'156170'
p291
(lp292
V\ube44\uc564\uc5d0\uc2a4\ubbf8\ub514\uc5b4
p293
aFnan
aVKONEX
p294
asS'066620'
p295
(lp296
V\uad6d\ubcf4\ub514\uc790\uc778
p297
aVKOSDAQ:066620
p298
ag5
asS'080470'
p299
(lp300
V\uc131\ucc3d\uc624\ud1a0\ud14d
p301
aVKOSDAQ:080470
p302
ag5
asS'003530'
p303
(lp304
V\ud55c\ud654\ud22c\uc790\uc99d\uad8c
p305
aVKRX:003530
p306
ag34
asS'079660'
p307
(lp308
V\uc0ac\uc870\ud574\ud45c
p309
aVKRX:079660
p310
ag34
asS'098120'
p311
(lp312
V\ub9c8\uc774\ud06c\ub85c\ucee8\ud14d\uc194
p313
aVKOSDAQ:098120
p314
ag5
asS'081970'
p315
(lp316
V\ud55c\uc194\ub125\uc2a4\uc9c0
p317
aVKOSDAQ:081970
p318
ag5
asS'173940'
p319
(lp320
V\uc5d0\ud504\uc5d4\uc528\uc5d4\ud130
p321
aVKOSDAQ:173940
p322
ag5
asS'095340'
p323
(lp324
VISC
p325
aVKOSDAQ:095340
p326
ag5
asS'007690'
p327
(lp328
V\uad6d\ub3c4\ud654\ud559
p329
aVKRX:007690
p330
ag34
asS'002240'
p331
(lp332
V\uace0\ub824\uc81c\uac15
p333
aVKRX:002240
p334
ag34
asS'039980'
p335
(lp336
V\ub9ac\ub178\uc2a4
p337
aVKOSDAQ:039980
p338
ag5
asS'084370'
p339
(lp340
V\uc720\uc9c4\ud14c\ud06c
p341
aVKOSDAQ:084370
p342
ag5
asS'006580'
p343
(lp344
V\ub300\uc591\uc81c\uc9c0
p345
aVKOSDAQ:006580
p346
ag5
asS'950010'
p347
(lp348
V\ud3c9\uc0b0\ucc28\uc5c5
p349
aVKRX:950010
p350
ag34
asS'086900'
p351
(lp352
V\uba54\ub514\ud1a1\uc2a4
p353
aVKOSDAQ:086900
p354
ag5
asS'095500'
p355
(lp356
V\ubbf8\ub798\ub098\ub178\ud14d
p357
aVKOSDAQ:095500
p358
ag5
asS'021040'
p359
(lp360
V\ub300\ud638\ud53c\uc564\uc528
p361
aVKOSDAQ:021040
p362
ag5
asS'021820'
p363
(lp364
V\uc138\uc6d0\uc815\uacf5
p365
aVKRX:021820
p366
ag34
asS'102710'
p367
(lp368
V\uc774\uc5d4\uc5d0\ud504\ud14c\ud06c\ub180\ub85c\uc9c0
p369
aVKOSDAQ:102710
p370
ag5
asS'016250'
p371
(lp372
V\uc774\ud14c\ud06c\uac74\uc124
p373
aVKOSDAQ:016250
p374
ag5
asS'178920'
p375
(lp376
VSKC\ucf54\uc624\ub871PI
p377
aVKOSDAQ:178920
p378
ag5
asS'099410'
p379
(lp380
V\ub3d9\ubc29\uc120\uae30
p381
aVKOSDAQ:099410
p382
ag5
asS'112040'
p383
(lp384
V\uc704\uba54\uc774\ub4dc
p385
aVKOSDAQ:112040
p386
ag5
asS'001680'
p387
(lp388
V\ub300\uc0c1
p389
aVKRX:001680
p390
ag34
asS'002790'
p391
(lp392
V\uc544\ubaa8\ub808\ud37c\uc2dc\ud53d\uadf8\ub8f9
p393
aVKRX:002790
p394
ag34
asS'095720'
p395
(lp396
V\uc6c5\uc9c4\uc53d\ud06c\ube45
p397
aVKRX:095720
p398
ag34
asS'016380'
p399
(lp400
V\ub3d9\ubd80\uc81c\ucca0
p401
aVKRX:016380
p402
ag34
asS'017250'
p403
(lp404
V\uc778\ud130\uc5e0
p405
aVKOSDAQ:017250
p406
ag5
asS'082800'
p407
(lp408
V\ub8e8\ubbf8\ub9c8\uc774\ud06c\ub85c
p409
aVKOSDAQ:082800
p410
ag5
asS'016670'
p411
(lp412
V\ud3ec\ube44\uc2a4\ud2f0\uc564\uc528
p413
aVKOSDAQ:016670
p414
ag5
asS'025270'
p415
(lp416
V\ubd80\uc0b0\ubc29\uc9c1
p417
aVKOSDAQ:025270
p418
ag5
asS'099520'
p419
(lp420
VITX\uc2dc\ud050\ub9ac\ud2f0
p421
aVKOSDAQ:099520
p422
ag5
asS'086830'
p423
(lp424
V\uc2e0\uc591
p425
aVKOSDAQ:086830
p426
ag5
asS'019550'
p427
(lp428
VSBI\uc778\ubca0\uc2a4\ud2b8\uba3c\ud2b8
p429
aVKOSDAQ:019550
p430
ag5
asS'006920'
p431
(lp432
V\ubaa8\ud5e8\uc988
p433
aVKOSDAQ:006920
p434
ag5
asS'017810'
p435
(lp436
V\ud480\ubb34\uc6d0
p437
aVKRX:017810
p438
ag34
asS'000400'
p439
(lp440
V\ub86f\ub370\uc190\ud574\ubcf4\ud5d8
p441
aVKRX:000400
p442
ag34
asS'025770'
p443
(lp444
V\ud55c\uad6d\uc815\ubcf4\ud1b5\uc2e0
p445
aVKOSDAQ:025770
p446
ag5
asS'060370'
p447
(lp448
VKT\uc11c\ube0c\ub9c8\ub9b0
p449
aVKOSDAQ:060370
p450
ag5
asS'092600'
p451
(lp452
V\ub125\uc2a4\ud2b8\uce69
p453
aVKOSDAQ:092600
p454
ag5
asS'208890'
p455
(lp456
V\uc5d0\ub4c0\ucf00\uc774\uc158\ud30c\ud2b8\ub108
p457
aFnan
ag294
asS'001460'
p458
(lp459
VBYC
p460
aVKRX:001460
p461
ag34
asS'065650'
p462
(lp463
V\uba54\ub514\ud504\ub860
p464
aVKOSDAQ:065650
p465
ag5
asS'033560'
p466
(lp467
V\ube14\ub8e8\ucf64
p468
aVKOSDAQ:033560
p469
ag5
asS'194480'
p470
(lp471
V\ub370\ube0c\uc2dc\uc2a4\ud130\uc988
p472
aVKOSDAQ:194480
p473
ag5
asS'002460'
p474
(lp475
V\ud654\uc131\uc0b0\uc5c5
p476
aVKRX:002460
p477
ag34
asS'900040'
p478
(lp479
V\ucc28\uc774\ub098\uadf8\ub808\uc774\ud2b8
p480
aVKOSDAQ:900040
p481
ag5
asS'025870'
p482
(lp483
V\uc2e0\ub77c\uc5d0\uc2a4\uc9c0
p484
aVKOSDAQ:025870
p485
ag5
asS'020150'
p486
(lp487
V\uc77c\uc9c4\uba38\ud2f0\ub9ac\uc5bc\uc988
p488
aVKRX:020150
p489
ag34
asS'017650'
p490
(lp491
V\ub300\ub9bc\uc81c\uc9c0
p492
aVKOSDAQ:017650
p493
ag5
asS'082220'
p494
(lp495
V\ud504\ub809\ucf54
p496
aFnan
ag294
asS'063080'
p497
(lp498
V\uac8c\uc784\ube4c
p499
aVKOSDAQ:063080
p500
ag5
asS'061970'
p501
(lp502
V\uc5d8\ube44\uc138\ubbf8\ucf58
p503
aVKOSDAQ:061970
p504
ag5
asS'027040'
p505
(lp506
V\uc11c\uc6b8\uc804\uc790\ud1b5\uc2e0
p507
aVKOSDAQ:027040
p508
ag5
asS'130500'
p509
(lp510
V\uae08\ud638\uc5d4\ud2f0
p511
aVKOSDAQ:130500
p512
ag5
asS'016920'
p513
(lp514
V\uce74\uc2a4
p515
aVKOSDAQ:016920
p516
ag5
asS'069080'
p517
(lp518
V\uc6f9\uc820
p519
aVKOSDAQ:069080
p520
ag5
asS'060280'
p521
(lp522
V\ud050\ub809\uc18c
p523
aVKOSDAQ:060280
p524
ag5
asS'071320'
p525
(lp526
V\uc9c0\uc5ed\ub09c\ubc29\uacf5\uc0ac
p527
aVKRX:071320
p528
ag34
asS'030720'
p529
(lp530
V\ub3d9\uc6d0\uc218\uc0b0
p531
aVKRX:030720
p532
ag34
asS'025900'
p533
(lp534
V\ub3d9\ud654\uae30\uc5c5
p535
aVKOSDAQ:025900
p536
ag5
asS'001260'
p537
(lp538
V\ub0a8\uad11\ud1a0\uac74
p539
aVKRX:001260
p540
ag34
asS'065270'
p541
(lp542
V\ud50c\ub809\uc2a4\ucef4
p543
aVKOSDAQ:065270
p544
ag5
asS'126600'
p545
(lp546
V\ucf54\ud504\ub77c
p547
aVKOSDAQ:126600
p548
ag5
asS'206640'
p549
(lp550
V\uc5d4\uc5d0\uc774\uce58\uc2a4\ud3292\ud638
p551
aVKOSDAQ:206640
p552
ag5
asS'060570'
p553
(lp554
V\uc544\uc774\ub9ac\ubc84
p555
aVKOSDAQ:060570
p556
ag5
asS'145210'
p557
(lp558
V\uc138\ud654\uc544\uc774\uc5e0\uc528
p559
aVKRX:145210
p560
ag34
asS'065500'
p561
(lp562
V\uc624\ub9ac\uc5d4\ud2b8\uc815\uacf5
p563
aVKOSDAQ:065500
p564
ag5
asS'101160'
p565
(lp566
V\uc6d4\ub371\uc2a4
p567
aVKOSDAQ:101160
p568
ag5
asS'090850'
p569
(lp570
V\uc774\uc9c0\uc6f0\ud398\uc5b4
p571
aVKOSDAQ:090850
p572
ag5
asS'052020'
p573
(lp574
V\uc5d0\uc2a4\ud2f0\ud050\ube0c
p575
aVKOSDAQ:052020
p576
ag5
asS'060590'
p577
(lp578
V\uc528\ud2f0\uc528\ubc14\uc774\uc624
p579
aVKOSDAQ:060590
p580
ag5
asS'029530'
p581
(lp582
V\uc2e0\ub3c4\ub9ac\ucf54
p583
aVKRX:029530
p584
ag34
asS'014280'
p585
(lp586
V\uae08\uac15\uacf5\uc5c5
p587
aVKRX:014280
p588
ag34
asS'005160'
p589
(lp590
V\ub3d9\uad6d\uc0b0\uc5c5
p591
aVKOSDAQ:005160
p592
ag5
asS'000220'
p593
(lp594
V\uc720\uc720\uc81c\uc57d
p595
aVKRX:000220
p596
ag34
asS'010140'
p597
(lp598
V\uc0bc\uc131\uc911\uacf5\uc5c5
p599
aVKRX:010140
p600
ag34
asS'053300'
p601
(lp602
V\ud55c\uad6d\uc815\ubcf4\uc778\uc99d
p603
aVKOSDAQ:053300
p604
ag5
asS'194860'
p605
(lp606
VSY\uc774\ub178\ubca0\uc774\uc158
p607
aFnan
ag294
asS'086450'
p608
(lp609
V\ub3d9\uad6d\uc81c\uc57d
p610
aVKOSDAQ:086450
p611
ag5
asS'051900'
p612
(lp613
VLG\uc0dd\ud65c\uac74\uac15
p614
aVKRX:051900
p615
ag34
asS'005300'
p616
(lp617
V\ub86f\ub370\uce60\uc131\uc74c\ub8cc
p618
aVKRX:005300
p619
ag34
asS'071850'
p620
(lp621
V\uce90\uc2a4\ud14d\ucf54\ub9ac\uc544
p622
aVKOSDAQ:071850
p623
ag5
asS'034730'
p624
(lp625
VSK
p626
aVKRX:034730
p627
ag34
asS'900070'
p628
(lp629
V\uae00\ub85c\ubc8c\uc5d0\uc2a4\uc5e0
p630
aVKOSDAQ:900070
p631
ag5
asS'004360'
p632
(lp633
V\uc138\ubc29
p634
aVKRX:004360
p635
ag34
asS'198940'
p636
(lp637
V\ud55c\uc8fc\uae08\uc18d
p638
aFnan
ag294
asS'023150'
p639
(lp640
VMH\uc5d0\ud0c4\uc62c
p641
aVKRX:023150
p642
ag34
asS'181710'
p643
(lp644
VNHN\uc5d4\ud130\ud14c\uc778\uba3c\ud2b8
p645
aVKRX:181710
p646
ag34
asS'064290'
p647
(lp648
V\uc778\ud14d\ud50c\ub7ec\uc2a4
p649
aVKOSDAQ:064290
p650
ag5
asS'035510'
p651
(lp652
V\uc2e0\uc138\uacc4I&C
p653
aVKRX:035510
p654
ag34
asS'012700'
p655
(lp656
V\ub9ac\ub4dc\ucf54\ud504
p657
aVKOSDAQ:012700
p658
ag5
asS'005940'
p659
(lp660
VNH\ud22c\uc790\uc99d\uad8c
p661
aVKRX:005940
p662
ag34
asS'031440'
p663
(lp664
V\uc2e0\uc138\uacc4\ud478\ub4dc
p665
aVKRX:031440
p666
ag34
asS'215750'
p667
(lp668
V\ubbf8\ub798\uc5d0\uc14b\uc81c3\ud638\uc2a4\ud329
p669
aVKOSDAQ:215750
p670
ag5
asS'004410'
p671
(lp672
V\uc11c\uc6b8\uc2dd\ud488\uacf5\uc5c5
p673
aVKRX:004410
p674
ag34
asS'004140'
p675
(lp676
V\ub3d9\ubc29
p677
aVKRX:004140
p678
ag34
asS'067010'
p679
(lp680
V\uc774\uc528\uc5d0\uc2a4
p681
aVKOSDAQ:067010
p682
ag5
asS'218150'
p683
(lp684
V\ud558\ub098\uba38\uc2a4\ud2b85\ud638\uc2a4\ud329
p685
aVKOSDAQ:218150
p686
ag5
asS'010960'
p687
(lp688
V\uc0bc\ud638\uac1c\ubc1c
p689
aVKRX:010960
p690
ag34
asS'004960'
p691
(lp692
V\ud55c\uc2e0\uacf5\uc601
p693
aVKRX:004960
p694
ag34
asS'011160'
p695
(lp696
V\ub450\uc0b0\uac74\uc124
p697
aVKRX:011160
p698
ag34
asS'004090'
p699
(lp700
V\ud55c\uad6d\uc11d\uc720\uacf5\uc5c5
p701
aVKRX:004090
p702
ag34
asS'153490'
p703
(lp704
V\uc6b0\ub9ac\uc774\uc564\uc5d8
p705
aVKOSDAQ:153490
p706
ag5
asS'008060'
p707
(lp708
V\ub300\ub355\uc804\uc790
p709
aVKRX:008060
p710
ag34
asS'018700'
p711
(lp712
V\ubc14\ub978\uc190
p713
aVKOSDAQ:018700
p714
ag5
asS'004560'
p715
(lp716
V\ud604\ub300\ube44\uc564\uc9c0\uc2a4\ud2f8
p717
aVKRX:004560
p718
ag34
asS'035600'
p719
(lp720
VKG\uc774\ub2c8\uc2dc\uc2a4
p721
aVKOSDAQ:035600
p722
ag5
asS'046440'
p723
(lp724
VKG\ubaa8\ube4c\ub9ac\uc5b8\uc2a4
p725
aVKOSDAQ:046440
p726
ag5
asS'008260'
p727
(lp728
VNI\uc2a4\ud2f8
p729
aVKRX:008260
p730
ag34
asS'003780'
p731
(lp732
V\uc9c4\uc591\uc0b0\uc5c5
p733
aVKRX:003780
p734
ag34
asS'121550'
p735
(lp736
V\ucf54\ud06c\ub81915\ud638
p737
aVKRX:121550
p738
ag34
asS'015260'
p739
(lp740
V\uc5d0\uc774\uc5d4\ud53c
p741
aVKRX:015260
p742
ag34
asS'105630'
p743
(lp744
V\ud55c\uc138\uc2e4\uc5c5
p745
aVKRX:105630
p746
ag34
asS'041190'
p747
(lp748
V\uc6b0\ub9ac\uae30\uc220\ud22c\uc790
p749
aVKOSDAQ:041190
p750
ag5
asS'003030'
p751
(lp752
V\uc138\uc544\uc81c\uac15
p753
aVKRX:003030
p754
ag34
asS'102940'
p755
(lp756
V\ucf54\uc624\ub871\uc0dd\uba85\uacfc\ud559
p757
aVKOSDAQ:102940
p758
ag5
asS'138610'
p759
(lp760
V\ub098\uc774\ubca1
p761
aVKOSDAQ:138610
p762
ag5
asS'082740'
p763
(lp764
V\ub450\uc0b0\uc5d4\uc9c4
p765
aVKRX:082740
p766
ag34
asS'032080'
p767
(lp768
V\uc544\uc988\ud14dWB
p769
aVKOSDAQ:032080
p770
ag5
asS'011760'
p771
(lp772
V\ud604\ub300\uc885\ud569\uc0c1\uc0ac
p773
aVKRX:011760
p774
ag34
asS'002920'
p775
(lp776
V\uc720\uc131\uae30\uc5c5
p777
aVKRX:002920
p778
ag34
asS'043580'
p779
(lp780
V\uc5d0\uc784\ud558\uc774
p781
aVKOSDAQ:043580
p782
ag5
asS'210540'
p783
(lp784
V\ub514\uc640\uc774\ud30c\uc6cc
p785
aVKRX:210540
p786
ag34
asS'004780'
p787
(lp788
V\ub300\ub959\uc81c\uad00
p789
aVKOSDAQ:004780
p790
ag5
asS'002320'
p791
(lp792
V\ud55c\uc9c4
p793
aVKRX:002320
p794
ag34
asS'013720'
p795
(lp796
V\uccad\ubcf4\uc0b0\uc5c5
p797
aVKOSDAQ:013720
p798
ag5
asS'077500'
p799
(lp800
V\uc720\ub2c8\ud018\uc2a4\ud2b8
p801
aVKRX:077500
p802
ag34
asS'019300'
p803
(lp804
V\ub3d9\uc77c\uc81c\uc9c0
p805
aVKRX:019300
p806
ag34
asS'007190'
p807
(lp808
V\ud55c\uc194\uc544\ud2b8\uc6d0\uc81c\uc9c0
p809
aVKRX:007190
p810
ag34
asS'214320'
p811
(lp812
V\uc774\ub178\uc158
p813
aVKRX:214320
p814
ag34
asS'002810'
p815
(lp816
V\uc0bc\uc601\ubb34\uc5ed
p817
aVKRX:002810
p818
ag34
asS'170920'
p819
(lp820
V\uc5d8\ud2f0\uc528
p821
aVKOSDAQ:170920
p822
ag5
asS'139050'
p823
(lp824
V\uacbd\ubd09
p825
aVKOSDAQ:139050
p826
ag5
asS'007660'
p827
(lp828
V\uc774\uc218\ud398\ud0c0\uc2dc\uc2a4
p829
aVKRX:007660
p830
ag34
asS'011700'
p831
(lp832
V\ud55c\uc2e0\uae30\uacc4\uacf5\uc5c5
p833
aVKRX:011700
p834
ag34
asS'054210'
p835
(lp836
V\uc774\ub79c\ud14d
p837
aVKOSDAQ:054210
p838
ag5
asS'067900'
p839
(lp840
V\uc640\uc774\uc5d4\ud14d
p841
aVKOSDAQ:067900
p842
ag5
asS'122800'
p843
(lp844
V\ucf00\uc774\ud2f0\ub864
p845
aVKOSDAQ:122800
p846
ag5
asS'048870'
p847
(lp848
V\ucf54\uc544\ub85c\uc9c1
p849
aVKOSDAQ:048870
p850
ag5
asS'044060'
p851
(lp852
V\uc870\uad11ILI
p853
aVKOSDAQ:044060
p854
ag5
asS'051630'
p855
(lp856
V\uc9c4\uc591\ud654\ud559
p857
aVKRX:051630
p858
ag34
asS'052900'
p859
(lp860
V\ube44\uc544\uc774\uc774\uc5e0\ud2f0
p861
aVKOSDAQ:052900
p862
ag5
asS'002250'
p863
(lp864
V\uc54c\ubcf4\uc820\ucf54\ub9ac\uc544
p865
aVKRX:002250
p866
ag34
asS'058530'
p867
(lp868
V\uc774\ud050\uc2a4\uc564\uc790\ub8e8
p869
aVKOSDAQ:058530
p870
ag5
asS'082920'
p871
(lp872
V\ube44\uce20\ub85c\uc140
p873
aVKOSDAQ:082920
p874
ag5
asS'033170'
p875
(lp876
V\uc2dc\uadf8\ub124\ud2f1\uc2a4
p877
aVKOSDAQ:033170
p878
ag5
asS'024840'
p879
(lp880
V\uac11\uc744\uba54\ud0c8
p881
aVKOSDAQ:024840
p882
ag5
asS'218410'
p883
(lp884
V\uc5d4\uc5d0\uc774\uce58\uc2a4\ud3298\ud638
p885
aVKOSDAQ:218410
p886
ag5
asS'063760'
p887
(lp888
V\uc774\uc5d8\ud53c
p889
aFnan
ag294
asS'067830'
p890
(lp891
V\uc138\uc774\ube0c\uc874I&C
p892
aVKRX:067830
p893
ag34
asS'185490'
p894
(lp895
V\uc544\uc774\uc9c4
p896
aFnan
ag294
asS'025000'
p897
(lp898
VKPX\ucf00\ubbf8\uce7c
p899
aVKRX:025000
p900
ag34
asS'048470'
p901
(lp902
V\ub300\ub3d9\uc2a4\ud2f8
p903
aVKOSDAQ:048470
p904
ag5
asS'039860'
p905
(lp906
V\ub098\ub178\uc5d4\ud14d
p907
aVKOSDAQ:039860
p908
ag5
asS'134790'
p909
(lp910
V\ud300\uc2a4
p911
aVKRX:134790
p912
ag34
asS'043360'
p913
(lp914
V\ub514\uc9c0\uc544\uc774
p915
aVKOSDAQ:043360
p916
ag5
asS'002780'
p917
(lp918
V\uc9c4\ud765\uae30\uc5c5
p919
aVKRX:002780
p920
ag34
asS'179440'
p921
(lp922
V\ud53c\uc5e0\uc5d0\uc2a4
p923
aFnan
ag294
asS'073240'
p924
(lp925
V\uae08\ud638\ud0c0\uc774\uc5b4
p926
aVKRX:073240
p927
ag34
asS'053980'
p928
(lp929
V\uc624\uc0c1\uc790\uc774\uc5d8
p930
aVKOSDAQ:053980
p931
ag5
asS'001070'
p932
(lp933
V\ub300\ud55c\ubc29\uc9c1
p934
aVKRX:001070
p935
ag34
asS'016710'
p936
(lp937
V\ub300\uc131\ud640\ub529\uc2a4
p938
aVKRX:016710
p939
ag34
asS'044490'
p940
(lp941
V\ud0dc\uc6c5
p942
aVKOSDAQ:044490
p943
ag5
asS'002070'
p944
(lp945
V\ub0a8\uc601\ube44\ube44\uc548
p946
aVKRX:002070
p947
ag34
asS'037270'
p948
(lp949
VYG PLUS
p950
aVKRX:037270
p951
ag34
asS'069410'
p952
(lp953
V\uc5d4\ud154\uc2a4
p954
aVKOSDAQ:069410
p955
ag5
asS'007530'
p956
(lp957
V\uc601\uc2e0\uae08\uc18d
p958
aVKOSDAQ:007530
p959
ag5
asS'950110'
p960
(lp961
VSBI\uc561\uc2dc\uc988
p962
aVKOSDAQ:950110
p963
ag5
asS'121600'
p964
(lp965
V\ub098\ub178\uc2e0\uc18c\uc7ac
p966
aVKOSDAQ:121600
p967
ag5
asS'208710'
p968
(lp969
V\uad50\ubcf43\ud638\uc2a4\ud329
p970
aVKOSDAQ:208710
p971
ag5
asS'143160'
p972
(lp973
V\uc544\uc774\ub514\uc2a4
p974
aVKOSDAQ:143160
p975
ag5
asS'037070'
p976
(lp977
V\ud30c\uc138\ucf54
p978
aVKOSDAQ:037070
p979
ag5
asS'091090'
p980
(lp981
V\uc138\uc6d0\uc140\ub860\ud14d
p982
aVKRX:091090
p983
ag34
asS'021960'
p984
(lp985
V\ucf00\uc774\ube44\uce90\ud53c\ud0c8
p986
aVKRX:021960
p987
ag34
asS'036890'
p988
(lp989
V\uc9c4\uc131\ud2f0\uc774\uc528
p990
aVKOSDAQ:036890
p991
ag5
asS'019540'
p992
(lp993
V\uc77c\uc9c0\ud14c\ud06c
p994
aVKOSDAQ:019540
p995
ag5
asS'204630'
p996
(lp997
V\ud604\ub300\ub4dc\ub9bc\uc2a4\ud3292\ud638
p998
aVKOSDAQ:204630
p999
ag5
asS'020560'
p1000
(lp1001
V\uc544\uc2dc\uc544\ub098\ud56d\uacf5
p1002
aVKRX:020560
p1003
ag34
asS'095660'
p1004
(lp1005
V\ub124\uc624\uc704\uc988\uac8c\uc784\uc988
p1006
aVKOSDAQ:095660
p1007
ag5
asS'016800'
p1008
(lp1009
V\ud37c\uc2dc\uc2a4
p1010
aVKRX:016800
p1011
ag34
asS'039240'
p1012
(lp1013
V\uacbd\ub0a8\uc2a4\ud2f8
p1014
aVKOSDAQ:039240
p1015
ag5
asS'025860'
p1016
(lp1017
V\ub0a8\ud574\ud654\ud559
p1018
aVKRX:025860
p1019
ag34
asS'001780'
p1020
(lp1021
V\uc54c\ub8e8\ucf54
p1022
aVKRX:001780
p1023
ag34
asS'010620'
p1024
(lp1025
V\ud604\ub300\ubbf8\ud3ec\uc870\uc120
p1026
aVKRX:010620
p1027
ag34
asS'103140'
p1028
(lp1029
V\ud48d\uc0b0
p1030
aVKRX:103140
p1031
ag34
asS'090150'
p1032
(lp1033
V\uad11\uc9c4\uc708\ud14d
p1034
aVKOSDAQ:090150
p1035
ag5
asS'050860'
p1036
(lp1037
V\uc544\uc138\uc544\ud14d
p1038
aVKOSDAQ:050860
p1039
ag5
asS'033600'
p1040
(lp1041
V\uc774\uc820\ud14d
p1042
aVKOSDAQ:033600
p1043
ag5
asS'026910'
p1044
(lp1045
V\uad11\uc9c4\uc2e4\uc5c5
p1046
aVKOSDAQ:026910
p1047
ag5
asS'126700'
p1048
(lp1049
V\ud558\uc774\ube44\uc83c\uc2dc\uc2a4\ud15c
p1050
aVKOSDAQ:126700
p1051
ag5
asS'121800'
p1052
(lp1053
V\ud2f0\ube0c\uc774\ub85c\uc9c1
p1054
aVKOSDAQ:121800
p1055
ag5
asS'001250'
p1056
(lp1057
VGS\uae00\ub85c\ubc8c
p1058
aVKRX:001250
p1059
ag34
asS'001520'
p1060
(lp1061
V\ub3d9\uc591
p1062
aVKRX:001520
p1063
ag34
asS'000300'
p1064
(lp1065
V\ub300\uc720\uc2e0\uc18c\uc7ac
p1066
aVKRX:000300
p1067
ag34
asS'133820'
p1068
(lp1069
V\ud654\uc778\ubca0\uc2a4\ud2f8
p1070
aVKRX:133820
p1071
ag34
asS'043100'
p1072
(lp1073
V\uc194\uace0\ubc14\uc774\uc624
p1074
aVKOSDAQ:043100
p1075
ag5
asS'183410'
p1076
(lp1077
V\ub370\uce74\uc2dc\uc2a4\ud15c
p1078
aFnan
ag294
asS'217270'
p1079
(lp1080
V\ub300\uc2e0\ubc38\ub7f0\uc2a4\uc81c1\ud638\uc2a4\ud329
p1081
aVKOSDAQ:217270
p1082
ag5
asS'204760'
p1083
(lp1084
V\ud604\ub300\uc5d0\uc774\ube14\uc2a4\ud3291\ud638
p1085
aVKOSDAQ:204760
p1086
ag5
asS'110570'
p1087
(lp1088
V\ub125\uc194\ub860
p1089
aVKRX:110570
p1090
ag34
asS'034590'
p1091
(lp1092
V\uc778\ucc9c\ub3c4\uc2dc\uac00\uc2a4
p1093
aVKRX:034590
p1094
ag34
asS'065510'
p1095
(lp1096
V\ud734\ube44\uce20
p1097
aVKOSDAQ:065510
p1098
ag5
asS'160980'
p1099
(lp1100
V\uc2f8\uc774\ub9e5\uc2a4
p1101
aVKOSDAQ:160980
p1102
ag5
asS'158380'
p1103
(lp1104
V\uc0bc\ubaa9\uac15\uc5c5
p1105
aVKOSDAQ:158380
p1106
ag5
asS'109070'
p1107
(lp1108
VKGP
p1109
aVKRX:109070
p1110
ag34
asS'093380'
p1111
(lp1112
V\ud48d\uac15
p1113
aVKOSDAQ:093380
p1114
ag5
asS'052220'
p1115
(lp1116
ViMBC
p1117
aVKOSDAQ:052220
p1118
ag5
asS'155650'
p1119
(lp1120
V\uc640\uc774\uc5e0\uc528
p1121
aVKOSDAQ:155650
p1122
ag5
asS'029780'
p1123
(lp1124
V\uc0bc\uc131\uce74\ub4dc
p1125
aVKRX:029780
p1126
ag34
asS'043610'
p1127
(lp1128
VKT\ubba4\uc9c1
p1129
aVKOSDAQ:043610
p1130
ag5
asS'189700'
p1131
(lp1132
V\ub514\ud53c\uc564\ucf00\uc774
p1133
aFnan
ag294
asS'000230'
p1134
(lp1135
V\uc77c\ub3d9\uc81c\uc57d
p1136
aVKRX:000230
p1137
ag34
asS'009450'
p1138
(lp1139
V\uacbd\ub3d9\ub098\ube44\uc5d4
p1140
aVKRX:009450
p1141
ag34
asS'047050'
p1142
(lp1143
V\ub300\uc6b0\uc778\ud130\ub0b4\uc154\ub110
p1144
aVKRX:047050
p1145
ag34
asS'036090'
p1146
(lp1147
V\uc704\uc9c0\ud2b8
p1148
aVKOSDAQ:036090
p1149
ag5
asS'035290'
p1150
(lp1151
V\uc5d0\ub4c0\ubc15\uc2a4
p1152
aVKOSDAQ:035290
p1153
ag5
asS'032960'
p1154
(lp1155
V\ub3d9\uc77c\uae30\uc5f0
p1156
aVKOSDAQ:032960
p1157
ag5
asS'011370'
p1158
(lp1159
V\uc11c\ud55c
p1160
aVKOSDAQ:011370
p1161
ag5
asS'140520'
p1162
(lp1163
V\ub300\ucc3d\uc2a4\ud2f8
p1164
aVKOSDAQ:140520
p1165
ag5
asS'018620'
p1166
(lp1167
V\uc6b0\uc9c4\ube44\uc564\uc9c0
p1168
aVKOSDAQ:018620
p1169
ag5
asS'000120'
p1170
(lp1171
VCJ\ub300\ud55c\ud1b5\uc6b4
p1172
aVKRX:000120
p1173
ag34
asS'035720'
p1174
(lp1175
V\ub2e4\uc74c\uce74\uce74\uc624
p1176
aVKOSDAQ:035720
p1177
ag5
asS'104460'
p1178
(lp1179
V\ub3d9\uc591\ud53c\uc5d4\uc5d0\ud504
p1180
aVKOSDAQ:104460
p1181
ag5
asS'114450'
p1182
(lp1183
VKPX\uc0dd\uba85\uacfc\ud559
p1184
aVKOSDAQ:114450
p1185
ag5
asS'015890'
p1186
(lp1187
V\ud0dc\uacbd\uc0b0\uc5c5
p1188
aVKRX:015890
p1189
ag34
asS'214430'
p1190
(lp1191
V\uc544\uc774\uc4f0\ub9ac\uc2dc\uc2a4\ud15c
p1192
aVKOSDAQ:214430
p1193
ag5
asS'213420'
p1194
(lp1195
V\ub355\uc0b0\ub124\uc624\ub8e9\uc2a4
p1196
aVKOSDAQ:213420
p1197
ag5
asS'204320'
p1198
(lp1199
V\ub9cc\ub3c4
p1200
aVKRX:204320
p1201
ag34
asS'005950'
p1202
(lp1203
V\uc774\uc218\ud654\ud559
p1204
aVKRX:005950
p1205
ag34
asS'031860'
p1206
(lp1207
V\uc5d0\uc774\ubaa8\uc158
p1208
aVKOSDAQ:031860
p1209
ag5
asS'104480'
p1210
(lp1211
V\ud2f0\ucf00\uc774\ucf00\ubbf8\uce7c
p1212
aVKOSDAQ:104480
p1213
ag5
asS'004130'
p1214
(lp1215
V\ub300\ub355GDS
p1216
aVKRX:004130
p1217
ag34
asS'068760'
p1218
(lp1219
V\uc140\ud2b8\ub9ac\uc628\uc81c\uc57d
p1220
aVKOSDAQ:068760
p1221
ag5
asS'118000'
p1222
(lp1223
V\uc6b0\ub9ac\ub4e4\ud734\ube0c\ub808\uc778
p1224
aVKRX:118000
p1225
ag34
asS'139130'
p1226
(lp1227
VDGB\uae08\uc735\uc9c0\uc8fc
p1228
aVKRX:139130
p1229
ag34
asS'009070'
p1230
(lp1231
V\ucf00\uc774\uc528\ud2f0\uc2dc
p1232
aVKRX:009070
p1233
ag34
asS'011280'
p1234
(lp1235
V\ud0dc\ub9bc\ud3ec\uc7a5\uacf5\uc5c5
p1236
aVKRX:011280
p1237
ag34
asS'091970'
p1238
(lp1239
V\ub098\ub178\ucea0\ud14d
p1240
aVKOSDAQ:091970
p1241
ag5
asS'035610'
p1242
(lp1243
V\uc194\ubcf8
p1244
aVKOSDAQ:035610
p1245
ag5
asS'085910'
p1246
(lp1247
V\ub124\uc624\ud2f0\uc2a4
p1248
aVKOSDAQ:085910
p1249
ag5
asS'032560'
p1250
(lp1251
V\ud669\uae08\uc5d0\uc2a4\ud2f0
p1252
aVKRX:032560
p1253
ag34
asS'034810'
p1254
(lp1255
V\ud574\uc131\uc0b0\uc5c5
p1256
aVKOSDAQ:034810
p1257
ag5
asS'023450'
p1258
(lp1259
V\ub3d9\ub0a8\ud569\uc131
p1260
aVKRX:023450
p1261
ag34
asS'069960'
p1262
(lp1263
V\ud604\ub300\ubc31\ud654\uc810
p1264
aVKRX:069960
p1265
ag34
asS'036670'
p1266
(lp1267
VKCI
p1268
aVKOSDAQ:036670
p1269
ag5
asS'004870'
p1270
(lp1271
V\ud2f0\uc6e8\uc774\ud640\ub529\uc2a4
p1272
aVKRX:004870
p1273
ag34
asS'090730'
p1274
(lp1275
VSIMPAC METALLOY
p1276
aVKOSDAQ:090730
p1277
ag5
asS'088790'
p1278
(lp1279
V\uc9c4\ub3c4
p1280
aVKRX:088790
p1281
ag34
asS'090710'
p1282
(lp1283
V\ub514\uc5d0\uc2a4\ud2f0\ub85c\ubd07
p1284
aVKOSDAQ:090710
p1285
ag5
asS'052770'
p1286
(lp1287
V\uc640\uc774\ub514\uc628\ub77c\uc778
p1288
aVKOSDAQ:052770
p1289
ag5
asS'900080'
p1290
(lp1291
V\uc5d0\uc2a4\uc564\uc528\uc5d4\uc9c4\uadf8\ub8f9
p1292
aVKOSDAQ:900080
p1293
ag5
asS'032980'
p1294
(lp1295
V\ud3f4\ub9ac\ube44\uc804
p1296
aVKOSDAQ:032980
p1297
ag5
asS'078600'
p1298
(lp1299
V\ub300\uc8fc\uc804\uc790\uc7ac\ub8cc
p1300
aVKOSDAQ:078600
p1301
ag5
asS'003240'
p1302
(lp1303
V\ud0dc\uad11\uc0b0\uc5c5
p1304
aVKRX:003240
p1305
ag34
asS'002310'
p1306
(lp1307
V\uc544\uc138\uc544\uc81c\uc9c0
p1308
aVKRX:002310
p1309
ag34
asS'013990'
p1310
(lp1311
V\uc544\uac00\ubc29\ucef4\ud37c\ub2c8
p1312
aVKOSDAQ:013990
p1313
ag5
asS'090430'
p1314
(lp1315
V\uc544\ubaa8\ub808\ud37c\uc2dc\ud53d
p1316
aVKRX:090430
p1317
ag34
asS'006260'
p1318
(lp1319
VLS
p1320
aVKRX:006260
p1321
ag34
asS'036710'
p1322
(lp1323
V\uc2ec\ud14d\ud640\ub529\uc2a4
p1324
aVKOSDAQ:036710
p1325
ag5
asS'900140'
p1326
(lp1327
V\ucf54\ub77c\uc624\ud640\ub529\uc2a4
p1328
aVKRX:900140
p1329
ag34
asS'045340'
p1330
(lp1331
V\ud1a0\ud0c8\uc18c\ud504\ud2b8
p1332
aVKOSDAQ:045340
p1333
ag5
asS'204440'
p1334
(lp1335
V\ub300\uc6b0\uc2a4\ud3292\ud638
p1336
aVKOSDAQ:204440
p1337
ag5
asS'208370'
p1338
(lp1339
V\ud558\ub098\uba38\uc2a4\ud2b82\ud638\uc2a4\ud329
p1340
aVKOSDAQ:208370
p1341
ag5
asS'067730'
p1342
(lp1343
V\ub85c\uc9c0\uc2dc\uc2a4
p1344
aVKOSDAQ:067730
p1345
ag5
asS'116100'
p1346
(lp1347
V\ud0dc\uc591\uae30\uacc4
p1348
aFnan
ag294
asS'022100'
p1349
(lp1350
V\ud3ec\uc2a4\ucf54 ICT
p1351
aVKOSDAQ:022100
p1352
ag5
asS'192440'
p1353
(lp1354
V\uc288\ud53c\uac90\ucf54\ub9ac\uc544
p1355
aVKOSDAQ:192440
p1356
ag5
asS'141070'
p1357
(lp1358
V\ub9e5\uc2a4\ub85c\ud14d
p1359
aVKOSDAQ:141070
p1360
ag5
asS'185280'
p1361
(lp1362
V\uc774\ud478\ub978
p1363
aFnan
ag294
asS'138080'
p1364
(lp1365
V\uc624\uc774\uc194\ub8e8\uc158
p1366
aVKOSDAQ:138080
p1367
ag5
asS'163560'
p1368
(lp1369
V\ub3d9\uc77c\uace0\ubb34\ubca8\ud2b8
p1370
aVKRX:163560
p1371
ag34
asS'088130'
p1372
(lp1373
V\ub3d9\uc544\uc5d8\ud14d
p1374
aVKOSDAQ:088130
p1375
ag5
asS'033160'
p1376
(lp1377
V\uc5e0\ucf00\uc774\uc804\uc790
p1378
aVKOSDAQ:033160
p1379
ag5
asS'000270'
p1380
(lp1381
V\uae30\uc544\uc790\ub3d9\ucc28
p1382
aVKRX:000270
p1383
ag34
asS'024850'
p1384
(lp1385
V\ud53c\uc5d0\uc2a4\uc5e0\uc528
p1386
aVKOSDAQ:024850
p1387
ag5
asS'038870'
p1388
(lp1389
V\uc5d0\ucf54\uc5d0\ub108\uc9c0
p1390
aVKOSDAQ:038870
p1391
ag5
asS'059120'
p1392
(lp1393
V\uc544\uc9c4\uc5d1\uc2a4\ud14d
p1394
aVKOSDAQ:059120
p1395
ag5
asS'134780'
p1396
(lp1397
V\ud654\uc9c4
p1398
aVKOSDAQ:134780
p1399
ag5
asS'043370'
p1400
(lp1401
V\ud3c9\ud654\uc815\uacf5
p1402
aVKOSDAQ:043370
p1403
ag5
asS'095700'
p1404
(lp1405
V\uc81c\ub125\uc2e0
p1406
aVKOSDAQ:095700
p1407
ag5
asS'168330'
p1408
(lp1409
V\ub0b4\uce04\ub7f4\uc5d4\ub3c4\ud14d
p1410
aVKOSDAQ:168330
p1411
ag5
asS'096870'
p1412
(lp1413
V\uc5d8\ub514\ud2f0
p1414
aVKOSDAQ:096870
p1415
ag5
asS'001060'
p1416
(lp1417
VJW\uc911\uc678\uc81c\uc57d
p1418
aVKRX:001060
p1419
ag34
asS'033290'
p1420
(lp1421
V\ucf54\uc6f0\ud328\uc158
p1422
aVKOSDAQ:033290
p1423
ag5
asS'060910'
p1424
(lp1425
V\ud504\ub9ac\uc820
p1426
aVKOSDAQ:060910
p1427
ag5
asS'007540'
p1428
(lp1429
V\uc0d8\ud45c\uc2dd\ud488
p1430
aVKRX:007540
p1431
ag34
asS'075970'
p1432
(lp1433
V\ub3d9\uad6d\uc54c\uc564\uc5d0\uc2a4
p1434
aVKOSDAQ:075970
p1435
ag5
asS'019570'
p1436
(lp1437
V\uc81c\ubbf8\ub2c8\ud22c\uc790
p1438
aVKOSDAQ:019570
p1439
ag5
asS'006490'
p1440
(lp1441
V\uc778\uc2a4\ucf54\ube44
p1442
aVKRX:006490
p1443
ag34
asS'115480'
p1444
(lp1445
V\uc528\uc720\uba54\ub514\uce7c
p1446
aVKOSDAQ:115480
p1447
ag5
asS'003800'
p1448
(lp1449
V\uc5d0\uc774\uc2a4\uce68\ub300
p1450
aVKOSDAQ:003800
p1451
ag5
asS'041510'
p1452
(lp1453
V\uc5d0\uc2a4\uc5e0
p1454
aVKOSDAQ:041510
p1455
ag5
asS'097520'
p1456
(lp1457
V\uc5e0\uc528\ub125\uc2a4
p1458
aVKOSDAQ:097520
p1459
ag5
asS'006120'
p1460
(lp1461
VSK\ucf00\ubbf8\uce7c
p1462
aVKRX:006120
p1463
ag34
asS'115310'
p1464
(lp1465
V\uc778\ud3ec\ubc14\uc778
p1466
aVKOSDAQ:115310
p1467
ag5
asS'042510'
p1468
(lp1469
V\ub77c\uc628\uc2dc\ud050\uc5b4
p1470
aVKOSDAQ:042510
p1471
ag5
asS'144740'
p1472
(lp1473
V\ud53c\uc5e0\ub514\uc544\uce74\ub370\ubbf8
p1474
aFnan
ag294
asS'025850'
p1475
(lp1476
V\ud55c\ud654\ud654\uc778\ucf00\ubbf8\uce7c
p1477
aVKRX:025850
p1478
ag34
asS'064850'
p1479
(lp1480
V\uc5d0\ud504\uc564\uac00\uc774\ub4dc
p1481
aFnan
ag294
asS'044960'
p1482
(lp1483
V\uc774-\uae00 \ubcb3
p1484
aVKOSDAQ:044960
p1485
ag5
asS'002680'
p1486
(lp1487
V\ud55c\ud0d1
p1488
aVKOSDAQ:002680
p1489
ag5
asS'001790'
p1490
(lp1491
V\ub300\ud55c\uc81c\ub2f9
p1492
aVKRX:001790
p1493
ag34
asS'010280'
p1494
(lp1495
V\uc30d\uc6a9\uc815\ubcf4\ud1b5\uc2e0
p1496
aVKOSDAQ:010280
p1497
ag5
asS'144630'
p1498
(lp1499
V\uc528\uc544\uc774\uc5d0\uc2a4
p1500
aFnan
ag294
asS'090360'
p1501
(lp1502
V\ub85c\ubcf4\uc2a4\ud0c0
p1503
aVKOSDAQ:090360
p1504
ag5
asS'109860'
p1505
(lp1506
V\ub3d9\uc77c\uae08\uc18d
p1507
aVKOSDAQ:109860
p1508
ag5
asS'001880'
p1509
(lp1510
V\uc0bc\ud638
p1511
aVKRX:001880
p1512
ag34
asS'033340'
p1513
(lp1514
V\uc88b\uc740\uc0ac\ub78c\ub4e4
p1515
aVKOSDAQ:033340
p1516
ag5
asS'068290'
p1517
(lp1518
V\uc0bc\uc131\ucd9c\ud310\uc0ac
p1519
aVKRX:068290
p1520
ag34
asS'033830'
p1521
(lp1522
V\ud2f0\ube44\uc528
p1523
aVKOSDAQ:033830
p1524
ag5
asS'065690'
p1525
(lp1526
V\ub300\uc9c4\ub514\uc5e0\ud53c
p1527
aVKOSDAQ:065690
p1528
ag5
asS'036190'
p1529
(lp1530
V\uae08\ud654\ud53c\uc5d0\uc2a4\uc2dc
p1531
aVKOSDAQ:036190
p1532
ag5
asS'000680'
p1533
(lp1534
VLS\ub124\ud2b8\uc6cd\uc2a4
p1535
aVKRX:000680
p1536
ag34
asS'143240'
p1537
(lp1538
V\uc0ac\ub78c\uc778\uc5d0\uc774\uce58\uc54c
p1539
aVKOSDAQ:143240
p1540
ag5
asS'080010'
p1541
(lp1542
V\uc774\uc0c1\ub124\ud2b8\uc6cd\uc2a4
p1543
aVKOSDAQ:080010
p1544
ag5
asS'001530'
p1545
(lp1546
V\ub3d9\uc77c\ubc29\uc9c1
p1547
aVKRX:001530
p1548
ag34
asS'121060'
p1549
(lp1550
V\uc720\ub2c8\ud3ec\uc778\ud2b8
p1551
aFnan
ag294
asS'027740'
p1552
(lp1553
V\ub9c8\ub2c8\ucee4
p1554
aVKRX:027740
p1555
ag34
asS'053950'
p1556
(lp1557
V\uacbd\ub0a8\uc81c\uc57d
p1558
aVKOSDAQ:053950
p1559
ag5
asS'001080'
p1560
(lp1561
V\ub9cc\ud638\uc81c\uac15
p1562
aVKRX:001080
p1563
ag34
asS'200350'
p1564
(lp1565
V\ub798\ubabd\ub798\uc778
p1566
aFnan
ag294
asS'136480'
p1567
(lp1568
V\ud558\ub9bc
p1569
aVKOSDAQ:136480
p1570
ag5
asS'207930'
p1571
(lp1572
VSK1\ud638\uc2a4\ud329
p1573
aVKOSDAQ:207930
p1574
ag5
asS'202960'
p1575
(lp1576
V\ud310\ub3c4\ub77c\ud2f0\ube44
p1577
aFnan
ag294
asS'005090'
p1578
(lp1579
V\uc0bc\uad11\uae00\ub77c\uc2a4
p1580
aVKRX:005090
p1581
ag34
asS'223220'
p1582
(lp1583
V\uad6c\ub984\ucef4\ud37c\ub2c8
p1584
aFnan
ag294
asS'138040'
p1585
(lp1586
V\uba54\ub9ac\uce20\uae08\uc735\uc9c0\uc8fc
p1587
aVKRX:138040
p1588
ag34
asS'009810'
p1589
(lp1590
V\uace0\ub824\ud3ec\ub9ac\uba38
p1591
aVKRX:009810
p1592
ag34
asS'091700'
p1593
(lp1594
V\ud30c\ud2b8\ub860
p1595
aVKOSDAQ:091700
p1596
ag5
asS'009680'
p1597
(lp1598
V\ubaa8\ud1a0\ub2c9
p1599
aVKRX:009680
p1600
ag34
asS'101730'
p1601
(lp1602
V\uc870\uc774\ub9e5\uc2a4
p1603
aVKOSDAQ:101730
p1604
ag5
asS'109080'
p1605
(lp1606
V\uc635\ud2f0\uc2dc\uc2a4
p1607
aVKOSDAQ:109080
p1608
ag5
asS'187270'
p1609
(lp1610
V\uc2e0\ud654\ucf58\ud14d
p1611
aVKOSDAQ:187270
p1612
ag5
asS'024720'
p1613
(lp1614
V\ud55c\uad6d\ucf5c\ub9c8\ud640\ub529\uc2a4
p1615
aVKRX:024720
p1616
ag34
asS'009440'
p1617
(lp1618
VKC\uadf8\ub9b0\ud640\ub529\uc2a4
p1619
aVKRX:009440
p1620
ag34
asS'103590'
p1621
(lp1622
V\uc77c\uc9c4\uc804\uae30
p1623
aVKRX:103590
p1624
ag34
asS'114190'
p1625
(lp1626
V\uc6f0\ud06c\ub860\uac15\uc6d0
p1627
aVKOSDAQ:114190
p1628
ag5
asS'047040'
p1629
(lp1630
V\ub300\uc6b0\uac74\uc124
p1631
aVKRX:047040
p1632
ag34
asS'065450'
p1633
(lp1634
V\ube45\ud14d
p1635
aVKOSDAQ:065450
p1636
ag5
asS'213500'
p1637
(lp1638
V\ud55c\uc194\uc81c\uc9c0
p1639
aVKRX:213500
p1640
ag34
asS'014130'
p1641
(lp1642
V\ud55c\uc775\uc2a4\ud504\ub808\uc2a4
p1643
aVKRX:014130
p1644
ag34
asS'014710'
p1645
(lp1646
V\uc0ac\uc870\uc528\ud478\ub4dc
p1647
aVKRX:014710
p1648
ag34
asS'063440'
p1649
(lp1650
V\ucf00\uc774\ub514\ubbf8\ub514\uc5b4
p1651
aVKOSDAQ:063440
p1652
ag5
asS'011560'
p1653
(lp1654
V\uc138\ubcf4\uc5e0\uc774\uc528
p1655
aVKOSDAQ:011560
p1656
ag5
asS'076610'
p1657
(lp1658
V\ud574\uc131\uc635\ud2f1\uc2a4
p1659
aVKOSDAQ:076610
p1660
ag5
asS'214270'
p1661
(lp1662
V\ucf00\uc774\ube44\uc81c7\ud638\uc2a4\ud329
p1663
aVKOSDAQ:214270
p1664
ag5
asS'189540'
p1665
(lp1666
V\uc528\ud2f0\ub124\ud2b8\uc6cd\uc2a4
p1667
aFnan
ag294
asS'131090'
p1668
(lp1669
V\uc2dc\ud050\ube0c
p1670
aVKOSDAQ:131090
p1671
ag5
asS'009200'
p1672
(lp1673
V\ubb34\ub9bc\ud398\uc774\ud37c
p1674
aVKRX:009200
p1675
ag34
asS'900180'
p1676
(lp1677
V\uc644\ub9ac
p1678
aVKOSDAQ:900180
p1679
ag5
asS'079950'
p1680
(lp1681
VLIG\uc778\ubca0\ub2c8\uc544
p1682
aVKOSDAQ:079950
p1683
ag5
asS'140660'
p1684
(lp1685
V\uc704\uc6d4\ub4dc
p1686
aFnan
ag294
asS'214420'
p1687
(lp1688
V\ud1a0\ub2c8\ubaa8\ub9ac
p1689
aVKRX:214420
p1690
ag34
asS'014620'
p1691
(lp1692
V\uc131\uad11\ubca4\ub4dc
p1693
aVKOSDAQ:014620
p1694
ag5
asS'063840'
p1695
(lp1696
V\ub2c9\uc2a4\ud14c\ud06c
p1697
aFnan
ag294
asS'015710'
p1698
(lp1699
V\ucf54\ucf64
p1700
aVKOSDAQ:015710
p1701
ag5
asS'071670'
p1702
(lp1703
V\uc5d0\uc774\ud14c\ud06c\uc194\ub8e8\uc158
p1704
aVKOSDAQ:071670
p1705
ag5
asS'015860'
p1706
(lp1707
V\uc77c\uc9c4\ud640\ub529\uc2a4
p1708
aVKRX:015860
p1709
ag34
asS'029480'
p1710
(lp1711
V\ucf00\uc774\ub514\uc528
p1712
aVKOSDAQ:029480
p1713
ag5
asS'005430'
p1714
(lp1715
V\ud55c\uad6d\uacf5\ud56d
p1716
aVKRX:005430
p1717
ag34
asS'037440'
p1718
(lp1719
V\ud76c\ub9bc
p1720
aVKOSDAQ:037440
p1721
ag5
asS'208140'
p1722
(lp1723
V\uc5d8\uc544\uc774\uc9c0\uc2a4\ud329 2\ud638
p1724
aVKOSDAQ:208140
p1725
ag5
asS'119830'
p1726
(lp1727
V\uc544\uc774\ud14d\ubc18\ub3c4\uccb4
p1728
aVKOSDAQ:119830
p1729
ag5
asS'089890'
p1730
(lp1731
V\uace0\ub824\ubc18\ub3c4\uccb4
p1732
aVKOSDAQ:089890
p1733
ag5
asS'023530'
p1734
(lp1735
V\ub86f\ub370\uc1fc\ud551
p1736
aVKRX:023530
p1737
ag34
asS'005320'
p1738
(lp1739
V\uad6d\ub3d9
p1740
aVKRX:005320
p1741
ag34
asS'031980'
p1742
(lp1743
V\ud53c\uc5d0\uc2a4\ucf00\uc774
p1744
aVKOSDAQ:031980
p1745
ag5
asS'220260'
p1746
(lp1747
V\uc5d8\uc544\uc774\uc9c0\uc774\uc5d0\uc2a4\uc2a4\ud329
p1748
aVKOSDAQ:220260
p1749
ag5
asS'004540'
p1750
(lp1751
V\uae68\ub057\ud55c\ub098\ub77c
p1752
aVKRX:004540
p1753
ag34
asS'053160'
p1754
(lp1755
V\ud504\ub9ac\uc5e0\uc2a4
p1756
aVKOSDAQ:053160
p1757
ag5
asS'003200'
p1758
(lp1759
V\uc77c\uc2e0\ubc29\uc9c1
p1760
aVKRX:003200
p1761
ag34
asS'013520'
p1762
(lp1763
V\ud654\uc2b9\uc54c\uc564\uc5d0\uc774
p1764
aVKRX:013520
p1765
ag34
asS'121850'
p1766
(lp1767
V\ucf54\uc774\uc988
p1768
aVKOSDAQ:121850
p1769
ag5
asS'003010'
p1770
(lp1771
V\ud61c\uc778
p1772
aVKRX:003010
p1773
ag34
asS'023440'
p1774
(lp1775
V\uc81c\uc77c\uc81c\uac15
p1776
aVKOSDAQ:023440
p1777
ag5
asS'205470'
p1778
(lp1779
V\ud558\uc774\uc81c2\ud638\uc2a4\ud329
p1780
aVKOSDAQ:205470
p1781
ag5
asS'221950'
p1782
(lp1783
V\ud604\ub300\ub4dc\ub9bc3\ud638\uc2a4\ud329
p1784
aVKOSDAQ:221950
p1785
ag5
asS'032350'
p1786
(lp1787
V\ub86f\ub370\uad00\uad11\uac1c\ubc1c
p1788
aVKRX:032350
p1789
ag34
asS'219860'
p1790
(lp1791
V\ud55c\ud654\uc5d0\uc774\uc2a4\uc2a4\ud3292\ud638
p1792
aVKOSDAQ:219860
p1793
ag5
asS'095910'
p1794
(lp1795
V\uc5d0\uc2a4\uc5d0\ub108\uc9c0
p1796
aVKOSDAQ:095910
p1797
ag5
asS'045510'
p1798
(lp1799
V\uc815\uc6d0\uc5d4\uc2dc\uc2a4
p1800
aVKOSDAQ:045510
p1801
ag5
asS'012030'
p1802
(lp1803
V\ub3d9\ubd80
p1804
aVKRX:012030
p1805
ag34
asS'050320'
p1806
(lp1807
V\uc544\ub0a8\uc815\ubcf4\uae30\uc220
p1808
aVKOSDAQ:050320
p1809
ag5
asS'032750'
p1810
(lp1811
V\uc0bc\uc9c4
p1812
aVKOSDAQ:032750
p1813
ag5
asS'008420'
p1814
(lp1815
V\ubb38\ubc30\ucca0\uac15
p1816
aVKRX:008420
p1817
ag34
asS'081660'
p1818
(lp1819
V\ud720\ub77c\ucf54\ub9ac\uc544
p1820
aVKRX:081660
p1821
ag34
asS'003490'
p1822
(lp1823
V\ub300\ud55c\ud56d\uacf5
p1824
aVKRX:003490
p1825
ag34
asS'042420'
p1826
(lp1827
V\ub124\uc624\uc704\uc988\ud640\ub529\uc2a4
p1828
aVKOSDAQ:042420
p1829
ag5
asS'004430'
p1830
(lp1831
V\uc1a1\uc6d0\uc0b0\uc5c5
p1832
aVKRX:004430
p1833
ag34
asS'049070'
p1834
(lp1835
V\uc778\ud0d1\uc2a4
p1836
aVKOSDAQ:049070
p1837
ag5
asS'058820'
p1838
(lp1839
VCMG\uc81c\uc57d
p1840
aVKOSDAQ:058820
p1841
ag5
asS'003300'
p1842
(lp1843
V\ud55c\uc77c\uc2dc\uba58\ud2b8
p1844
aVKRX:003300
p1845
ag34
asS'199150'
p1846
(lp1847
V\ub370\uc774\ud130\uc2a4\ud2b8\ub9bc\uc988
p1848
aFnan
ag294
asS'003650'
p1849
(lp1850
V\ubbf8\ucc3d\uc11d\uc720\uacf5\uc5c5
p1851
aVKRX:003650
p1852
ag34
asS'043220'
p1853
(lp1854
V\uc704\ub4dc\uc708\ub124\ud2b8\uc6cd
p1855
aVKOSDAQ:043220
p1856
ag5
asS'003470'
p1857
(lp1858
V\uc720\uc548\ud0c0\uc99d\uad8c
p1859
aVKRX:003470
p1860
ag34
asS'002300'
p1861
(lp1862
V\ud55c\uad6d\uc81c\uc9c0
p1863
aVKRX:002300
p1864
ag34
asS'006060'
p1865
(lp1866
V\ud654\uc2b9\uc778\ub354\uc2a4\ud2b8\ub9ac
p1867
aVKRX:006060
p1868
ag34
asS'038680'
p1869
(lp1870
V\uc5d0\uc2a4\ub137
p1871
aVKOSDAQ:038680
p1872
ag5
asS'037620'
p1873
(lp1874
V\ubbf8\ub798\uc5d0\uc14b\uc99d\uad8c
p1875
aVKRX:037620
p1876
ag34
asS'215000'
p1877
(lp1878
V\uace8\ud504\uc874
p1879
aVKOSDAQ:215000
p1880
ag5
asS'002870'
p1881
(lp1882
V\uc2e0\ud48d\uc81c\uc9c0
p1883
aVKRX:002870
p1884
ag34
asS'096640'
p1885
(lp1886
V\uba5c\ud30c\uc2a4
p1887
aVKOSDAQ:096640
p1888
ag5
asS'068930'
p1889
(lp1890
V\ub514\uc9c0\ud138\ub300\uc131
p1891
aVKOSDAQ:068930
p1892
ag5
asS'054780'
p1893
(lp1894
V\ud0a4\uc774\uc2a4\ud2b8
p1895
aVKOSDAQ:054780
p1896
ag5
asS'138070'
p1897
(lp1898
V\uc2e0\uc9c4\uc5d0\uc2a4\uc5e0
p1899
aVKOSDAQ:138070
p1900
ag5
asS'006800'
p1901
(lp1902
V\ub300\uc6b0\uc99d\uad8c
p1903
aVKRX:006800
p1904
ag34
asS'036640'
p1905
(lp1906
VHRS
p1907
aVKOSDAQ:036640
p1908
ag5
asS'058220'
p1909
(lp1910
V\uc544\ub9ac\uc628
p1911
aVKOSDAQ:058220
p1912
ag5
asS'139670'
p1913
(lp1914
V\ub125\uc2a4\ud2b8\ub9ac\ubc0d
p1915
aVKOSDAQ:139670
p1916
ag5
asS'007820'
p1917
(lp1918
V\uc2e0\ud765\uae30\uacc4
p1919
aVKOSDAQ:007820
p1920
ag5
asS'141000'
p1921
(lp1922
V\ube44\uc544\ud2b8\ub860
p1923
aVKOSDAQ:141000
p1924
ag5
asS'001120'
p1925
(lp1926
VLG\uc0c1\uc0ac
p1927
aVKRX:001120
p1928
ag34
asS'079650'
p1929
(lp1930
V\uc11c\uc0b0
p1931
aVKOSDAQ:079650
p1932
ag5
asS'066980'
p1933
(lp1934
V\ud558\uc774\uc38c
p1935
aVKOSDAQ:066980
p1936
ag5
asS'002270'
p1937
(lp1938
V\ub86f\ub370\ud478\ub4dc
p1939
aVKRX:002270
p1940
ag34
asS'048260'
p1941
(lp1942
V\uc624\uc2a4\ud15c\uc784\ud50c\ub780\ud2b8
p1943
aVKOSDAQ:048260
p1944
ag5
asS'007310'
p1945
(lp1946
V\uc624\ub69c\uae30
p1947
aVKRX:007310
p1948
ag34
asS'044480'
p1949
(lp1950
V\uc720\ub2c8\ub354\uc2a4
p1951
aVKOSDAQ:044480
p1952
ag5
asS'008930'
p1953
(lp1954
V\ud55c\ubbf8\uc0ac\uc774\uc5b8\uc2a4
p1955
aVKRX:008930
p1956
ag34
asS'049960'
p1957
(lp1958
V\uc38c\ubc14\uc774\uc624\ud14d
p1959
aVKOSDAQ:049960
p1960
ag5
asS'038460'
p1961
(lp1962
V\ubc14\uc774\uc624\uc2a4\ub9c8\ud2b8
p1963
aVKOSDAQ:038460
p1964
ag5
asS'033530'
p1965
(lp1966
V\uc138\uc885\uacf5\uc5c5
p1967
aVKRX:033530
p1968
ag34
asS'051490'
p1969
(lp1970
V\ub098\ub77c\uc5e0\uc564\ub514
p1971
aVKOSDAQ:051490
p1972
ag5
asS'054300'
p1973
(lp1974
V\ud5e4\uc2a4\ubcf8
p1975
aVKOSDAQ:054300
p1976
ag5
asS'210980'
p1977
(lp1978
V\uc5d0\uc2a4\ucf00\uc774\ub514\uc564\ub514
p1979
aVKRX:210980
p1980
ag34
asS'074610'
p1981
(lp1982
V\uc774\uc5d4\uc4f0\ub9ac
p1983
aVKRX:074610
p1984
ag34
asS'073640'
p1985
(lp1986
V\uc0bc\uc6d0\ud14c\ud06c
p1987
aVKOSDAQ:073640
p1988
ag5
asS'006570'
p1989
(lp1990
V\ub300\ub9bc\ud1b5\uc0c1
p1991
aVKRX:006570
p1992
ag34
asS'043340'
p1993
(lp1994
V\uc5d0\uc388\ud14c\ud06c
p1995
aVKOSDAQ:043340
p1996
ag5
asS'020760'
p1997
(lp1998
V\uc77c\uc9c4\ub514\uc2a4\ud50c
p1999
aVKRX:020760
p2000
ag34
asS'060900'
p2001
(lp2002
V\ud37c\uc2dc\ud53d\ubc14\uc774\uc624
p2003
aVKOSDAQ:060900
p2004
ag5
asS'045970'
p2005
(lp2006
V\ube44\uc5d0\uc2a4\uc774
p2007
aVKOSDAQ:045970
p2008
ag5
asS'090080'
p2009
(lp2010
V\ud3c9\ud654\uc0b0\uc5c5
p2011
aVKRX:090080
p2012
ag34
asS'039310'
p2013
(lp2014
V\uc138\uc911
p2015
aVKOSDAQ:039310
p2016
ag5
asS'194510'
p2017
(lp2018
V\ud30c\ud2f0\uac8c\uc784\uc988
p2019
aVKOSDAQ:194510
p2020
ag5
asS'950130'
p2021
(lp2022
V\uc5d1\uc138\uc2a4\ubc14\uc774\uc624
p2023
aVKOSDAQ:950130
p2024
ag5
asS'036500'
p2025
(lp2026
V\uc720\uc6d0\ucef4\ud14d
p2027
aVKOSDAQ:036500
p2028
ag5
asS'039790'
p2029
(lp2030
V\uc704\ub178\ubc14
p2031
aVKOSDAQ:039790
p2032
ag5
asS'004990'
p2033
(lp2034
V\ub86f\ub370\uc81c\uacfc
p2035
aVKRX:004990
p2036
ag34
asS'115450'
p2037
(lp2038
V\uc9c0\ud2b8\ub9ac\ube44\uc564\ud2f0
p2039
aVKOSDAQ:115450
p2040
ag5
asS'042500'
p2041
(lp2042
V\ub9c1\ub124\ud2b8
p2043
aVKOSDAQ:042500
p2044
ag5
asS'036930'
p2045
(lp2046
V\uc8fc\uc131\uc5d4\uc9c0\ub2c8\uc5b4\ub9c1
p2047
aVKOSDAQ:036930
p2048
ag5
asS'001430'
p2049
(lp2050
V\uc138\uc544\ubca0\uc2a4\ud2f8
p2051
aVKRX:001430
p2052
ag34
asS'017510'
p2053
(lp2054
V\uc138\uba85\uc804\uae30
p2055
aVKOSDAQ:017510
p2056
ag5
asS'000430'
p2057
(lp2058
V\ub300\uc6d0\uac15\uc5c5
p2059
aVKRX:000430
p2060
ag34
asS'036420'
p2061
(lp2062
V\uc81c\uc774\ucf58\ud150\ud2b8\ub9ac
p2063
aVKOSDAQ:036420
p2064
ag5
asS'064820'
p2065
(lp2066
V\ucf00\uc774\ud504
p2067
aVKOSDAQ:064820
p2068
ag5
asS'219580'
p2069
(lp2070
V\uace8\ub4e0\ube0c\ub9bf\uc9c0\uc81c3\ud638\uc2a4\ud329
p2071
aVKOSDAQ:219580
p2072
ag5
asS'006370'
p2073
(lp2074
V\ub300\uad6c\ubc31\ud654\uc810
p2075
aVKRX:006370
p2076
ag34
asS'083650'
p2077
(lp2078
V\ube44\uc5d0\uc774\uce58\uc544\uc774
p2079
aVKOSDAQ:083650
p2080
ag5
asS'043290'
p2081
(lp2082
V\ucf00\uc774\ub9e5
p2083
aVKOSDAQ:043290
p2084
ag5
asS'002450'
p2085
(lp2086
V\uc0bc\uc775\uc545\uae30
p2087
aVKRX:002450
p2088
ag34
asS'144620'
p2089
(lp2090
V\ucf54\uc624\ub871\uba38\ud2f0\ub9ac\uc5bc
p2091
aVKRX:144620
p2092
ag34
asS'090370'
p2093
(lp2094
V\uc544\ube44\uc2a4\ud0c0
p2095
aVKRX:090370
p2096
ag34
asS'137940'
p2097
(lp2098
V\ub125\uc2a4\ud2b8\uc544\uc774
p2099
aVKOSDAQ:137940
p2100
ag5
asS'065060'
p2101
(lp2102
V\uc9c0\uc5d4\ucf54
p2103
aVKOSDAQ:065060
p2104
ag5
asS'065680'
p2105
(lp2106
V\uc6b0\uc8fc\uc77c\ub809\ud2b8\ub85c
p2107
aVKOSDAQ:065680
p2108
ag5
asS'000320'
p2109
(lp2110
V\ub178\ub8e8\ud640\ub529\uc2a4
p2111
aVKRX:000320
p2112
ag34
asS'217500'
p2113
(lp2114
V\ud558\uc774\uc81c3\ud638\uc2a4\ud329
p2115
aVKOSDAQ:217500
p2116
ag5
asS'001500'
p2117
(lp2118
VHMC\ud22c\uc790\uc99d\uad8c
p2119
aVKRX:001500
p2120
ag34
asS'101360'
p2121
(lp2122
V\uc774\uc5d4\ub4dc\ub514
p2123
aFnan
ag294
asS'020180'
p2124
(lp2125
V\ub300\uc2e0\uc815\ubcf4\ud1b5\uc2e0
p2126
aVKOSDAQ:020180
p2127
ag5
asS'006200'
p2128
(lp2129
V\ud55c\uad6d\uc804\uc790\ud640\ub529\uc2a4
p2130
aVKRX:006200
p2131
ag34
asS'079810'
p2132
(lp2133
V\ub514\uc774\uc5d4\ud2f0
p2134
aVKOSDAQ:079810
p2135
ag5
asS'078070'
p2136
(lp2137
V\uc720\ube44\ucffc\uc2a4
p2138
aVKOSDAQ:078070
p2139
ag5
asS'010770'
p2140
(lp2141
V\ud3c9\ud654\ud640\ub529\uc2a4
p2142
aVKRX:010770
p2143
ag34
asS'034230'
p2144
(lp2145
V\ud30c\ub77c\ub2e4\uc774\uc2a4
p2146
aVKOSDAQ:034230
p2147
ag5
asS'039130'
p2148
(lp2149
V\ud558\ub098\ud22c\uc5b4
p2150
aVKRX:039130
p2151
ag34
asS'136490'
p2152
(lp2153
V\uc120\uc9c4
p2154
aVKRX:136490
p2155
ag34
asS'051310'
p2156
(lp2157
V\ud3ec\uc2a4\ucf54\ud50c\ub79c\ud14d
p2158
aVKRX:051310
p2159
ag34
asS'033240'
p2160
(lp2161
V\uc790\ud654\uc804\uc790
p2162
aVKRX:033240
p2163
ag34
asS'207720'
p2164
(lp2165
V\uc5d4\uc5d0\uc774\uce58SL\uc2a4\ud329
p2166
aVKOSDAQ:207720
p2167
ag5
asS'126340'
p2168
(lp2169
V\ube44\ub098\ud14d
p2170
aFnan
ag294
asS'001040'
p2171
(lp2172
VCJ
p2173
aVKRX:001040
p2174
ag34
asS'065530'
p2175
(lp2176
V\uc804\ud30c\uae30\uc9c0\uad6d
p2177
aVKOSDAQ:065530
p2178
ag5
asS'000210'
p2179
(lp2180
V\ub300\ub9bc\uc0b0\uc5c5
p2181
aVKRX:000210
p2182
ag34
asS'111770'
p2183
(lp2184
V\uc601\uc6d0\ubb34\uc5ed
p2185
aVKRX:111770
p2186
ag34
asS'131400'
p2187
(lp2188
V\uc561\ud2b8
p2189
aVKOSDAQ:131400
p2190
ag5
asS'100120'
p2191
(lp2192
V\ubdf0\uc6cd\uc2a4
p2193
aVKOSDAQ:100120
p2194
ag5
asS'009470'
p2195
(lp2196
V\uc0bc\ud654\uc804\uae30
p2197
aVKRX:009470
p2198
ag34
asS'093520'
p2199
(lp2200
V\ub9e4\ucee4\uc2a4
p2201
aVKOSDAQ:093520
p2202
ag5
asS'001340'
p2203
(lp2204
V\ubc31\uad11\uc0b0\uc5c5
p2205
aVKRX:001340
p2206
ag34
asS'065440'
p2207
(lp2208
V\uc774\ub8e8\uc628
p2209
aVKOSDAQ:065440
p2210
ag5
asS'224110'
p2211
(lp2212
V\uc5d0\uc774\ud14d\ud2f0\uc564
p2213
aVKOSDAQ:224110
p2214
ag5
asS'010170'
p2215
(lp2216
V\ub300\ud55c\uad11\ud1b5\uc2e0
p2217
aVKOSDAQ:010170
p2218
ag5
asS'215580'
p2219
(lp2220
V\ub300\uc6b0\uc2a4\ud3293\ud638
p2221
aVKOSDAQ:215580
p2222
ag5
asS'089470'
p2223
(lp2224
V\ud604\ub300EP
p2225
aVKRX:089470
p2226
ag34
asS'009780'
p2227
(lp2228
V\uc5e0\uc5d0\uc2a4\uc528
p2229
aVKOSDAQ:009780
p2230
ag5
asS'034020'
p2231
(lp2232
V\ub450\uc0b0\uc911\uacf5\uc5c5
p2233
aVKRX:034020
p2234
ag34
asS'140290'
p2235
(lp2236
V\uccad\uad11\uc885\uac74
p2237
aFnan
ag294
asS'009270'
p2238
(lp2239
V\uc2e0\uc6d0
p2240
aVKRX:009270
p2241
ag34
asS'083310'
p2242
(lp2243
V\uc5d8\uc624\ud2f0\ubca0\ud060
p2244
aVKOSDAQ:083310
p2245
ag5
asS'068240'
p2246
(lp2247
V\ub2e4\uc6d0\uc2dc\uc2a4
p2248
aVKOSDAQ:068240
p2249
ag5
asS'085980'
p2250
(lp2251
V\uc138\ud654\ud53c\uc564\uc528
p2252
aFnan
ag294
asS'000100'
p2253
(lp2254
V\uc720\ud55c\uc591\ud589
p2255
aVKRX:000100
p2256
ag34
asS'189350'
p2257
(lp2258
V\ucf54\uc14b
p2259
aFnan
ag294
asS'064550'
p2260
(lp2261
V\ubc14\uc774\uc624\ub2c8\uc544
p2262
aVKOSDAQ:064550
p2263
ag5
asS'029960'
p2264
(lp2265
V\ucf54\uc5d4\ud14d
p2266
aVKOSDAQ:029960
p2267
ag5
asS'084440'
p2268
(lp2269
V\uc720\ube44\uc628
p2270
aFnan
ag294
asS'086790'
p2271
(lp2272
V\ud558\ub098\uae08\uc735\uc9c0\uc8fc
p2273
aVKRX:086790
p2274
ag34
asS'018880'
p2275
(lp2276
V\ud55c\uc628\uc2dc\uc2a4\ud15c
p2277
aVKRX:018880
p2278
ag34
asS'046970'
p2279
(lp2280
V\uc6b0\ub9ac\ub85c
p2281
aVKOSDAQ:046970
p2282
ag5
asS'036180'
p2283
(lp2284
V\uc601\uc778\ud504\ub7f0\ud2f0\uc5b4
p2285
aVKOSDAQ:036180
p2286
ag5
asS'056360'
p2287
(lp2288
V\ucf54\uc704\ubc84
p2289
aVKOSDAQ:056360
p2290
ag5
asS'005420'
p2291
(lp2292
V\ucf54\uc2a4\ubaa8\ud654\ud559
p2293
aVKRX:005420
p2294
ag34
asS'128940'
p2295
(lp2296
V\ud55c\ubbf8\uc57d\ud488
p2297
aVKRX:128940
p2298
ag34
asS'026150'
p2299
(lp2300
V\ud2b9\uc218\uac74\uc124
p2301
aVKOSDAQ:026150
p2302
ag5
asS'123700'
p2303
(lp2304
V\uc5d0\uc2a4\uc81c\uc774\uc5e0
p2305
aVKRX:123700
p2306
ag34
asS'089790'
p2307
(lp2308
V\uc81c\uc774\ud2f0
p2309
aVKOSDAQ:089790
p2310
ag5
asS'014470'
p2311
(lp2312
V\ub9ac\ud648\ucfe0\uccb8
p2313
aVKOSDAQ:014470
p2314
ag5
asS'043910'
p2315
(lp2316
V\uc790\uc5f0\uacfc\ud658\uacbd
p2317
aVKOSDAQ:043910
p2318
ag5
asS'032500'
p2319
(lp2320
V\ucf00\uc774\uc5e0\ub354\ube14\uc720
p2321
aVKOSDAQ:032500
p2322
ag5
asS'008250'
p2323
(lp2324
V\uc774\uac74\uc0b0\uc5c5
p2325
aVKRX:008250
p2326
ag34
asS'204840'
p2327
(lp2328
VIBKS\uc81c2\ud638\uc2a4\ud329
p2329
aVKOSDAQ:204840
p2330
ag5
asS'082270'
p2331
(lp2332
V\uc82c\ubc31\uc2a4
p2333
aVKOSDAQ:082270
p2334
ag5
asS'005880'
p2335
(lp2336
V\ub300\ud55c\ud574\uc6b4
p2337
aVKRX:005880
p2338
ag34
asS'070590'
p2339
(lp2340
V\ud55c\uc194\uc778\ud2f0\ud050\ube0c
p2341
aVKOSDAQ:070590
p2342
ag5
asS'031310'
p2343
(lp2344
V\uc544\uc774\uc988\ube44\uc804
p2345
aVKOSDAQ:031310
p2346
ag5
asS'053450'
p2347
(lp2348
V\uc138\ucf54\ub2c9\uc2a4
p2349
aVKOSDAQ:053450
p2350
ag5
asS'004200'
p2351
(lp2352
V\uace0\ub824\uac1c\ubc1c
p2353
aVKRX:004200
p2354
ag34
asS'149980'
p2355
(lp2356
V\ud558\uc774\ub85c\ub2c9
p2357
aVKOSDAQ:149980
p2358
ag5
asS'009300'
p2359
(lp2360
V\uc0bc\uc544\uc81c\uc57d
p2361
aVKOSDAQ:009300
p2362
ag5
asS'004060'
p2363
(lp2364
VSG\uc138\uacc4\ubb3c\uc0b0
p2365
aVKRX:004060
p2366
ag34
asS'051780'
p2367
(lp2368
V\ud050\ub85c\ud640\ub529\uc2a4
p2369
aVKOSDAQ:051780
p2370
ag5
asS'089530'
p2371
(lp2372
V\uc5d0\uc774\ud2f0\uc138\ubbf8\ucf58
p2373
aVKOSDAQ:089530
p2374
ag5
asS'106080'
p2375
(lp2376
V\ud558\uc774\uc18c\ub2c9
p2377
aVKOSDAQ:106080
p2378
ag5
asS'034830'
p2379
(lp2380
V\ud55c\uad6d\ud1a0\uc9c0\uc2e0\ud0c1
p2381
aVKOSDAQ:034830
p2382
ag5
asS'011000'
p2383
(lp2384
V\uc9c4\uc6d0\uc0dd\uba85\uacfc\ud559
p2385
aVKRX:011000
p2386
ag34
asS'106240'
p2387
(lp2388
V\ud30c\uc778\ud14c\ud06c\ub2c9\uc2a4
p2389
aVKOSDAQ:106240
p2390
ag5
asS'004840'
p2391
(lp2392
VDRB\ub3d9\uc77c
p2393
aVKRX:004840
p2394
ag34
asS'139200'
p2395
(lp2396
V\ud558\uc774\uace8\ub4dc2\ud638
p2397
aVKRX:139200
p2398
ag34
asS'003480'
p2399
(lp2400
V\ud55c\uc9c4\uc911\uacf5\uc5c5\ud640\ub529\uc2a4
p2401
aVKRX:003480
p2402
ag34
asS'003310'
p2403
(lp2404
V\ub300\uc8fc\uc0b0\uc5c5
p2405
aVKOSDAQ:003310
p2406
ag5
asS'083610'
p2407
(lp2408
V\uc544\uc2dc\uc544\ud37c\uc2dc\ud53d14\ud638
p2409
aVKRX:083610
p2410
ag34
asS'104110'
p2411
(lp2412
V\uc2e0\uc131\uc774\uc5d4\uc9c0
p2413
aVKRX:104110
p2414
ag34
asS'003460'
p2415
(lp2416
V\uc720\ud654\uc99d\uad8c
p2417
aVKRX:003460
p2418
ag34
asS'002990'
p2419
(lp2420
V\uae08\ud638\uc0b0\uc5c5
p2421
aVKRX:002990
p2422
ag34
asS'038070'
p2423
(lp2424
V\uc11c\ub9b0\ubc14\uc774\uc624
p2425
aVKOSDAQ:038070
p2426
ag5
asS'082660'
p2427
(lp2428
V\uc0bc\uc6b0\uc5e0\uc2a4
p2429
aVKOSDAQ:082660
p2430
ag5
asS'208350'
p2431
(lp2432
V\ucf00\uc774\ube44\uc81c5\ud638\uc2a4\ud329
p2433
aVKOSDAQ:208350
p2434
ag5
asS'007810'
p2435
(lp2436
V\ucf54\ub9ac\uc544\uc368\ud0a4\ud2b8
p2437
aVKRX:007810
p2438
ag34
asS'054220'
p2439
(lp2440
V\ube44\uce20\ub85c\uc2dc\uc2a4
p2441
aVKOSDAQ:054220
p2442
ag5
asS'019170'
p2443
(lp2444
V\uc2e0\ud48d\uc81c\uc57d
p2445
aVKRX:019170
p2446
ag34
asS'002840'
p2447
(lp2448
V\ubbf8\uc6d0\uc0c1\uc0ac
p2449
aVKRX:002840
p2450
ag34
asS'052690'
p2451
(lp2452
V\ud55c\uc804\uae30\uc220
p2453
aVKRX:052690
p2454
ag34
asS'093190'
p2455
(lp2456
V\ube45\uc194\ub860
p2457
aVKOSDAQ:093190
p2458
ag5
asS'003000'
p2459
(lp2460
V\ubd80\uad11\uc57d\ud488
p2461
aVKRX:003000
p2462
ag34
asS'002200'
p2463
(lp2464
V\ud55c\uad6d\uc218\ucd9c\ud3ec\uc7a5\uacf5\uc5c5
p2465
aVKRX:002200
p2466
ag34
asS'203450'
p2467
(lp2468
V\uc720\ub2c8\uc628\ucee4\ubba4\ub2c8\ud2f0
p2469
aFnan
ag294
asS'066970'
p2470
(lp2471
V\uc5d8\uc564\uc5d0\ud504
p2472
aVKOSDAQ:066970
p2473
ag5
asS'036460'
p2474
(lp2475
V\ud55c\uad6d\uac00\uc2a4\uacf5\uc0ac
p2476
aVKRX:036460
p2477
ag34
asS'044340'
p2478
(lp2479
V\uc704\ub2c9\uc2a4
p2480
aVKOSDAQ:044340
p2481
ag5
asS'049800'
p2482
(lp2483
V\uc6b0\uc9c4\ud50c\ub77c\uc784
p2484
aVKRX:049800
p2485
ag34
asS'041440'
p2486
(lp2487
V\uc5d0\ubc84\ub2e4\uc784
p2488
aVKOSDAQ:041440
p2489
ag5
asS'066570'
p2490
(lp2491
VLG\uc804\uc790
p2492
aVKRX:066570
p2493
ag34
asS'107590'
p2494
(lp2495
V\ubbf8\uc6d0\uc5d0\uc2a4\uc528
p2496
aVKRX:107590
p2497
ag34
asS'012200'
p2498
(lp2499
V\uacc4\uc591\uc804\uae30
p2500
aVKRX:012200
p2501
ag34
asS'074600'
p2502
(lp2503
V\uc6d0\uc775QnC
p2504
aVKOSDAQ:074600
p2505
ag5
asS'049480'
p2506
(lp2507
V\uc624\ud508\ubca0\uc774\uc2a4
p2508
aVKOSDAQ:049480
p2509
ag5
asS'016580'
p2510
(lp2511
V\ud658\uc778\uc81c\uc57d
p2512
aVKRX:016580
p2513
ag34
asS'073070'
p2514
(lp2515
V\ub125\uc13c\ud14c\ud06c
p2516
aVKOSDAQ:073070
p2517
ag5
asS'025540'
p2518
(lp2519
V\ud55c\uad6d\ub2e8\uc790\uacf5\uc5c5
p2520
aVKRX:025540
p2521
ag34
asS'083790'
p2522
(lp2523
V\ud06c\ub9ac\uc2a4\ud0c8
p2524
aVKOSDAQ:083790
p2525
ag5
asS'095270'
p2526
(lp2527
V\uc6e8\uc774\ube0c\uc77c\ub809\ud2b8\ub85c
p2528
aVKOSDAQ:095270
p2529
ag5
asS'024890'
p2530
(lp2531
V\ub300\uc6d0\ud654\uc131
p2532
aVKRX:024890
p2533
ag34
asS'080220'
p2534
(lp2535
V\uc81c\uc8fc\ubc18\ub3c4\uccb4
p2536
aVKOSDAQ:080220
p2537
ag5
asS'051170'
p2538
(lp2539
V\uc36c\ucf54\uc5b4
p2540
aVKOSDAQ:051170
p2541
ag5
asS'122450'
p2542
(lp2543
VKMH
p2544
aVKOSDAQ:122450
p2545
ag5
asS'099660'
p2546
(lp2547
V\ud55c\uc194\uc2e0\ud14d
p2548
aVKOSDAQ:099660
p2549
ag5
asS'044380'
p2550
(lp2551
V\uc8fc\uc5f0\ud14c\ud06c
p2552
aVKRX:044380
p2553
ag34
asS'066790'
p2554
(lp2555
V\uc528\uc528\uc5d0\uc2a4
p2556
aVKOSDAQ:066790
p2557
ag5
asS'006140'
p2558
(lp2559
V\ud53c\uc81c\uc774\uc804\uc790
p2560
aVKOSDAQ:006140
p2561
ag5
asS'016100'
p2562
(lp2563
V\uc0b0\uc131\uc568\uc5d4\uc5d0\uc2a4
p2564
aVKOSDAQ:016100
p2565
ag5
asS'016360'
p2566
(lp2567
V\uc0bc\uc131\uc99d\uad8c
p2568
aVKRX:016360
p2569
ag34
asS'001420'
p2570
(lp2571
V\ud0dc\uc6d0\ubb3c\uc0b0
p2572
aVKRX:001420
p2573
ag34
asS'053350'
p2574
(lp2575
V\uc774\ub2c8\ud14d
p2576
aVKOSDAQ:053350
p2577
ag5
asS'000910'
p2578
(lp2579
V\uc720\ub2c8\uc628
p2580
aVKRX:000910
p2581
ag34
asS'148250'
p2582
(lp2583
V\uc54c\uc5d4\ud22c\ud14c\ud06c\ub180\ub85c\uc9c0
p2584
aFnan
ag294
asS'115440'
p2585
(lp2586
V\uc6b0\ub9ac\ub137
p2587
aVKOSDAQ:115440
p2588
ag5
asS'069510'
p2589
(lp2590
V\uc5d0\uc2a4\ud14d
p2591
aVKOSDAQ:069510
p2592
ag5
asS'050540'
p2593
(lp2594
V\uc5e0\ud53c\uc528
p2595
aVKOSDAQ:050540
p2596
ag5
asS'059210'
p2597
(lp2598
V\uba54\ud0c0\ubc14\uc774\uc624\uba54\ub4dc
p2599
aVKOSDAQ:059210
p2600
ag5
asS'138930'
p2601
(lp2602
VBNK\uae08\uc735\uc9c0\uc8fc
p2603
aVKRX:138930
p2604
ag34
asS'006360'
p2605
(lp2606
VGS\uac74\uc124
p2607
aVKRX:006360
p2608
ag34
asS'091590'
p2609
(lp2610
V\ub0a8\ud654\ud1a0\uac74
p2611
aVKOSDAQ:091590
p2612
ag5
asS'074150'
p2613
(lp2614
V\uc5e0\uc81c\uc774\ube44
p2615
aVKOSDAQ:074150
p2616
ag5
asS'083640'
p2617
(lp2618
V\uc778\ucf58
p2619
aVKOSDAQ:083640
p2620
ag5
asS'047440'
p2621
(lp2622
V\ub808\uc774\uc820
p2623
aVKOSDAQ:047440
p2624
ag5
asS'039230'
p2625
(lp2626
V\uc194\ube0c\ub808\uc778\uc774\uc5d4\uc9c0
p2627
aVKOSDAQ:039230
p2628
ag5
asS'002420'
p2629
(lp2630
V\uc138\uae30\uc0c1\uc0ac
p2631
aVKRX:002420
p2632
ag34
asS'017180'
p2633
(lp2634
V\uba85\ubb38\uc81c\uc57d
p2635
aVKRX:017180
p2636
ag34
asS'216280'
p2637
(lp2638
V\uc6d0\ud14d
p2639
aFnan
ag294
asS'037330'
p2640
(lp2641
V\uc778\uc9c0\ub514\uc2a4\ud50c\ub808
p2642
aVKOSDAQ:037330
p2643
ag5
asS'108860'
p2644
(lp2645
V\ub514\uc624\ud14d
p2646
aVKOSDAQ:108860
p2647
ag5
asS'137950'
p2648
(lp2649
V\uc81c\uc774\uc528\ucf00\ubbf8\uce7c
p2650
aVKOSDAQ:137950
p2651
ag5
asS'033320'
p2652
(lp2653
V\uc81c\uc774\uc528\ud604\uc2dc\uc2a4\ud15c
p2654
aVKOSDAQ:033320
p2655
ag5
asS'020400'
p2656
(lp2657
V\ub300\ub3d9\uae08\uc18d
p2658
aVKOSDAQ:020400
p2659
ag5
asS'062860'
p2660
(lp2661
V\ud2f0\uc5d8\uc544\uc774
p2662
aVKOSDAQ:062860
p2663
ag5
asS'010690'
p2664
(lp2665
V\ud654\uc2e0
p2666
aVKRX:010690
p2667
ag34
asS'060240'
p2668
(lp2669
V\ub8fd\ud22c\ucf54\ub9ac\uc544
p2670
aVKOSDAQ:060240
p2671
ag5
asS'150900'
p2672
(lp2673
V\ud30c\uc218\ub2f7\ucef4
p2674
aVKOSDAQ:150900
p2675
ag5
asS'092730'
p2676
(lp2677
V\ub124\uc624\ud31c
p2678
aVKOSDAQ:092730
p2679
ag5
asS'000590'
p2680
(lp2681
VCS\ud640\ub529\uc2a4
p2682
aVKRX:000590
p2683
ag34
asS'001510'
p2684
(lp2685
VSK\uc99d\uad8c
p2686
aVKRX:001510
p2687
ag34
asS'034220'
p2688
(lp2689
VLG\ub514\uc2a4\ud50c\ub808\uc774
p2690
aVKRX:034220
p2691
ag34
asS'217880'
p2692
(lp2693
V\ud2f8\ub860
p2694
aFnan
ag294
asS'033920'
p2695
(lp2696
V\ubb34\ud559
p2697
aVKRX:033920
p2698
ag34
asS'033250'
p2699
(lp2700
V\uccb4\uc2dc\uc2a4
p2701
aVKRX:033250
p2702
ag34
asS'024090'
p2703
(lp2704
V\ub514\uc528\uc5e0
p2705
aVKRX:024090
p2706
ag34
asS'030210'
p2707
(lp2708
VKTB\ud22c\uc790\uc99d\uad8c
p2709
aVKRX:030210
p2710
ag34
asS'126640'
p2711
(lp2712
V\ud654\uc2e0\uc815\uacf5
p2713
aVKOSDAQ:126640
p2714
ag5
asS'087010'
p2715
(lp2716
V\ud3a9\ud2b8\ub860
p2717
aVKOSDAQ:087010
p2718
ag5
asS'039420'
p2719
(lp2720
V\ucf00\uc774\uc5d8\ub137
p2721
aVKOSDAQ:039420
p2722
ag5
asS'084180'
p2723
(lp2724
V\uc218\uc131
p2725
aVKOSDAQ:084180
p2726
ag5
asS'009460'
p2727
(lp2728
V\ud55c\ucc3d\uc81c\uc9c0
p2729
aVKRX:009460
p2730
ag34
asS'161000'
p2731
(lp2732
V\uc560\uacbd\uc720\ud654
p2733
aVKRX:161000
p2734
ag34
asS'100130'
p2735
(lp2736
V\ub3d9\uad6dS&C
p2737
aVKOSDAQ:100130
p2738
ag5
asS'155660'
p2739
(lp2740
VDSR
p2741
aVKRX:155660
p2742
ag34
asS'220110'
p2743
(lp2744
V\ub4dc\ub9bc\ud2f0\uc5d4\ud130\ud14c\uc778\uba3c\ud2b8
p2745
aFnan
ag294
asS'026960'
p2746
(lp2747
V\ub3d9\uc11c
p2748
aVKOSDAQ:026960
p2749
ag5
asS'069330'
p2750
(lp2751
V\uc720\uc544\uc774\ub514
p2752
aVKOSDAQ:069330
p2753
ag5
asS'060480'
p2754
(lp2755
V\uad6d\uc77c\uc2e0\ub3d9
p2756
aVKOSDAQ:060480
p2757
ag5
asS'005180'
p2758
(lp2759
V\ube59\uadf8\ub808
p2760
aVKRX:005180
p2761
ag34
asS'036260'
p2762
(lp2763
V\uc6f0\uba54\uc774\ub4dc\uc608\ub2f9
p2764
aVKOSDAQ:036260
p2765
ag5
asS'035080'
p2766
(lp2767
V\uc778\ud130\ud30c\ud06c\ud640\ub529\uc2a4
p2768
aVKOSDAQ:035080
p2769
ag5
asS'042660'
p2770
(lp2771
V\ub300\uc6b0\uc870\uc120\ud574\uc591
p2772
aVKRX:042660
p2773
ag34
asS'052300'
p2774
(lp2775
VSH \ud640\ub529\uc2a4
p2776
aVKOSDAQ:052300
p2777
ag5
asS'056080'
p2778
(lp2779
V\uc720\uc9c4\ub85c\ubd07
p2780
aVKOSDAQ:056080
p2781
ag5
asS'040610'
p2782
(lp2783
VSG&G
p2784
aVKOSDAQ:040610
p2785
ag5
asS'100220'
p2786
(lp2787
V\ube44\uc0c1\uad50\uc721
p2788
aVKRX:100220
p2789
ag34
asS'004920'
p2790
(lp2791
V\uc528\uc544\uc774\ud14c\ud06c
p2792
aVKRX:004920
p2793
ag34
asS'004690'
p2794
(lp2795
V\uc0bc\ucc9c\ub9ac
p2796
aVKRX:004690
p2797
ag34
asS'005980'
p2798
(lp2799
V\uc131\uc9c0\uac74\uc124
p2800
aVKRX:005980
p2801
ag34
asS'005450'
p2802
(lp2803
V\uc2e0\ud55c
p2804
aVKRX:005450
p2805
ag34
asS'042040'
p2806
(lp2807
V\ucf00\uc774\ud53c\uc5e0\ud14c\ud06c
p2808
aVKOSDAQ:042040
p2809
ag5
asS'032680'
p2810
(lp2811
V\uc18c\ud504\ud2b8\uc13c
p2812
aVKOSDAQ:032680
p2813
ag5
asS'130740'
p2814
(lp2815
V\ud2f0\ud53c\uc528\uae00\ub85c\ubc8c
p2816
aVKOSDAQ:130740
p2817
ag5
asS'096240'
p2818
(lp2819
V\uccad\ub2f4\ub7ec\ub2dd
p2820
aVKOSDAQ:096240
p2821
ag5
asS'215480'
p2822
(lp2823
V\ub300\uc6b0SBI\uc2a4\ud3291\ud638
p2824
aVKOSDAQ:215480
p2825
ag5
asS'046390'
p2826
(lp2827
V\uc0bc\ud654\ub124\ud2b8\uc6cd\uc2a4
p2828
aVKOSDAQ:046390
p2829
ag5
asS'015590'
p2830
(lp2831
V\ub300\uacbd\uae30\uacc4\uae30\uc220
p2832
aVKRX:015590
p2833
ag34
asS'185750'
p2834
(lp2835
V\uc885\uadfc\ub2f9
p2836
aVKRX:185750
p2837
ag34
asS'101060'
p2838
(lp2839
VSBS\ubbf8\ub514\uc5b4\ud640\ub529\uc2a4
p2840
aVKRX:101060
p2841
ag34
asS'092230'
p2842
(lp2843
VKPX\ud640\ub529\uc2a4
p2844
aVKRX:092230
p2845
ag34
asS'057680'
p2846
(lp2847
V\uc634\ub2c8\ud154
p2848
aVKOSDAQ:057680
p2849
ag5
asS'009310'
p2850
(lp2851
V\ucc38\uc5d4\uc9c0\ub2c8\uc5b4\ub9c1
p2852
aVKRX:009310
p2853
ag34
asS'165270'
p2854
(lp2855
V\uae08\uc624\ud558\uc774\ud14d
p2856
aFnan
ag294
asS'035420'
p2857
(lp2858
VNAVER
p2859
aVKRX:035420
p2860
ag34
asS'093050'
p2861
(lp2862
VLF
p2863
aVKRX:093050
p2864
ag34
asS'067160'
p2865
(lp2866
V\uc544\ud504\ub9ac\uce74TV
p2867
aVKOSDAQ:067160
p2868
ag5
asS'012690'
p2869
(lp2870
V\ubaa8\ub098\ub9ac\uc790
p2871
aVKRX:012690
p2872
ag34
asS'005850'
p2873
(lp2874
V\uc5d0\uc2a4\uc5d8
p2875
aVKRX:005850
p2876
ag34
asS'015020'
p2877
(lp2878
V\uc774\uc2a4\ud0c0\ucf54
p2879
aVKRX:015020
p2880
ag34
asS'222420'
p2881
(lp2882
V\ubbf8\ub798\uc5d0\uc14b\uc81c4\ud638\uc2a4\ud329
p2883
aVKOSDAQ:222420
p2884
ag5
asS'105740'
p2885
(lp2886
V\ub514\ucf00\uc774\ub77d
p2887
aVKOSDAQ:105740
p2888
ag5
asS'078650'
p2889
(lp2890
V\ucf54\ub80c
p2891
aVKOSDAQ:078650
p2892
ag5
asS'090980'
p2893
(lp2894
V\ucf54\ub9ac\uc54402\ud638
p2895
aVKRX:090980
p2896
ag34
asS'072130'
p2897
(lp2898
V\uc720\uc5d4\uc824
p2899
aVKRX:072130
p2900
ag34
asS'094360'
p2901
(lp2902
V\uce69\uc2a4\uc564\ubbf8\ub514\uc5b4
p2903
aVKOSDAQ:094360
p2904
ag5
asS'004450'
p2905
(lp2906
V\uc0bc\ud654\uc655\uad00
p2907
aVKRX:004450
p2908
ag34
asS'004100'
p2909
(lp2910
V\ud0dc\uc591\uae08\uc18d\uacf5\uc5c5
p2911
aVKRX:004100
p2912
ag34
asS'023600'
p2913
(lp2914
V\uc0bc\ubcf4\ud310\uc9c0
p2915
aVKOSDAQ:023600
p2916
ag5
asS'003670'
p2917
(lp2918
V\ud3ec\uc2a4\ucf54\ucf10\ud14d
p2919
aVKOSDAQ:003670
p2920
ag5
asS'101400'
p2921
(lp2922
V\ub124\uc624\ud53c\ub378\ub9ac\ud2f0
p2923
aVKOSDAQ:101400
p2924
ag5
asS'003450'
p2925
(lp2926
V\ud604\ub300\uc99d\uad8c
p2927
aVKRX:003450
p2928
ag34
asS'049720'
p2929
(lp2930
V\uace0\ub824\uc2e0\uc6a9\uc815\ubcf4
p2931
aVKOSDAQ:049720
p2932
ag5
asS'105560'
p2933
(lp2934
VKB\uae08\uc735
p2935
aVKRX:105560
p2936
ag34
asS'038060'
p2937
(lp2938
V\ub8e8\uba58\uc2a4
p2939
aVKOSDAQ:038060
p2940
ag5
asS'003100'
p2941
(lp2942
V\uc120\uad11
p2943
aVKOSDAQ:003100
p2944
ag5
asS'003580'
p2945
(lp2946
V\ub3d9\uc6d0
p2947
aVKRX:003580
p2948
ag34
asS'141020'
p2949
(lp2950
V\ud3ec\ud2f0\uc2a4
p2951
aVKOSDAQ:141020
p2952
ag5
asS'138250'
p2953
(lp2954
V\uc5d4\uc5d0\uc2a4\uc1fc\ud551
p2955
aVKRX:138250
p2956
ag34
asS'068790'
p2957
(lp2958
VDMS
p2959
aVKOSDAQ:068790
p2960
ag5
asS'003070'
p2961
(lp2962
V\ucf54\uc624\ub871\uae00\ub85c\ubc8c
p2963
aVKRX:003070
p2964
ag34
asS'023460'
p2965
(lp2966
VCNH
p2967
aVKOSDAQ:023460
p2968
ag5
asS'200130'
p2969
(lp2970
V\ucf5c\ub9c8\ube44\uc564\uc5d0\uc774\uce58
p2971
aVKOSDAQ:200130
p2972
ag5
asS'045300'
p2973
(lp2974
V\uc131\uc6b0\ud14c\ud06c\ub860
p2975
aVKOSDAQ:045300
p2976
ag5
asS'210610'
p2977
(lp2978
V\uc18c\ud504\ud2b8\ucea0\ud504
p2979
aFnan
ag294
asS'008350'
p2980
(lp2981
V\ub0a8\uc120\uc54c\ubbf8\ub284
p2982
aVKRX:008350
p2983
ag34
asS'013870'
p2984
(lp2985
V\uc9c0\uc5e0\ube44\ucf54\ub9ac\uc544
p2986
aVKRX:013870
p2987
ag34
asS'049120'
p2988
(lp2989
V\ud30c\uc778\ub514\uc564\uc528
p2990
aVKOSDAQ:049120
p2991
ag5
asS'053210'
p2992
(lp2993
V\ucf00\uc774\ud2f0\uc2a4\uce74\uc774\ub77c\uc774\ud504
p2994
aVKRX:053210
p2995
ag34
asS'134060'
p2996
(lp2997
V\uc774\ud4e8\uccd0
p2998
aVKOSDAQ:134060
p2999
ag5
asS'002210'
p3000
(lp3001
V\ub3d9\uc131\uc81c\uc57d
p3002
aVKRX:002210
p3003
ag34
asS'049830'
p3004
(lp3005
V\uc2b9\uc77c
p3006
aVKOSDAQ:049830
p3007
ag5
asS'045390'
p3008
(lp3009
V\ub300\uc544\ud2f0\uc544\uc774
p3010
aVKOSDAQ:045390
p3011
ag5
asS'099350'
p3012
(lp3013
V\ud558\ub098\ub2c8\ucf082\ud638
p3014
aVKRX:099350
p3015
ag34
asS'007370'
p3016
(lp3017
V\uc9c4\uc591\uc81c\uc57d
p3018
aVKOSDAQ:007370
p3019
ag5
asS'048830'
p3020
(lp3021
V\uc5d4\ud53c\ucf00\uc774
p3022
aVKOSDAQ:048830
p3023
ag5
asS'104830'
p3024
(lp3025
V\uc6d0\uc775\uba38\ud2b8\ub9ac\uc5bc\uc988
p3026
aVKOSDAQ:104830
p3027
ag5
asS'007570'
p3028
(lp3029
V\uc77c\uc591\uc57d\ud488
p3030
aVKRX:007570
p3031
ag34
asS'124500'
p3032
(lp3033
V\uc544\uc774\ud2f0\uc13c
p3034
aVKOSDAQ:124500
p3035
ag5
asS'033130'
p3036
(lp3037
V\ub514\uc9c0\ud2c0\uc870\uc120
p3038
aVKOSDAQ:033130
p3039
ag5
asS'065940'
p3040
(lp3041
V\ucf00\uc774\uc5d0\uc2a4\uc528\ube44
p3042
aVKOSDAQ:065940
p3043
ag5
asS'182360'
p3044
(lp3045
V\ud050\ube0c\uc5d4\ud130
p3046
aVKOSDAQ:182360
p3047
ag5
asS'054670'
p3048
(lp3049
V\ub300\ud55c\ub274\ud31c
p3050
aVKOSDAQ:054670
p3051
ag5
asS'072710'
p3052
(lp3053
V\ub18d\uc2ec\ud640\ub529\uc2a4
p3054
aVKRX:072710
p3055
ag34
asS'038880'
p3056
(lp3057
V\uc544\uc774\uc5d0\uc774
p3058
aVKOSDAQ:038880
p3059
ag5
asS'102210'
p3060
(lp3061
V\ud574\ub355\ud30c\uc6cc\uc6e8\uc774
p3062
aVKOSDAQ:102210
p3063
ag5
asS'001630'
p3064
(lp3065
V\uc885\uadfc\ub2f9\ud640\ub529\uc2a4
p3066
aVKRX:001630
p3067
ag34
asS'016590'
p3068
(lp3069
V\uc2e0\ub300\uc591\uc81c\uc9c0
p3070
aVKRX:016590
p3071
ag34
asS'025550'
p3072
(lp3073
V\ud55c\uad6d\uc120\uc7ac
p3074
aVKOSDAQ:025550
p3075
ag5
asS'168490'
p3076
(lp3077
V\ud55c\uad6d\ud328\ub7ec\ub7a0
p3078
aVKRX:168490
p3079
ag34
asS'085310'
p3080
(lp3081
V\uc5d4\ucf00\uc774
p3082
aVKRX:085310
p3083
ag34
asS'051160'
p3084
(lp3085
V\uc9c0\uc5b4\uc18c\ud504\ud2b8
p3086
aVKOSDAQ:051160
p3087
ag5
asS'003850'
p3088
(lp3089
V\ubcf4\ub839\uc81c\uc57d
p3090
aVKRX:003850
p3091
ag34
asS'038530'
p3092
(lp3093
V\ucf54\uc544\ud06c\ub85c\uc2a4
p3094
aVKOSDAQ:038530
p3095
ag5
asS'108670'
p3096
(lp3097
VLG\ud558\uc6b0\uc2dc\uc2a4
p3098
aVKRX:108670
p3099
ag34
asS'115610'
p3100
(lp3101
V\uc774\ubbf8\uc9c0\uc2a4
p3102
aVKOSDAQ:115610
p3103
ag5
asS'082850'
p3104
(lp3105
V\uc6b0\ub9ac\uc774\ud2f0\uc544\uc774
p3106
aVKOSDAQ:082850
p3107
ag5
asS'123860'
p3108
(lp3109
V\uc544\ub098\ud328\uc2a4
p3110
aVKOSDAQ:123860
p3111
ag5
asS'066410'
p3112
(lp3113
V\uce94\ub4e4\ubbf8\ub514\uc5b4
p3114
aVKOSDAQ:066410
p3115
ag5
asS'024950'
p3116
(lp3117
V\uc0bc\ucc9c\ub9ac\uc790\uc804\uac70
p3118
aVKOSDAQ:024950
p3119
ag5
asS'007770'
p3120
(lp3121
V\ud55c\uc77c\ud654\ud559
p3122
aVKOSDAQ:007770
p3123
ag5
asS'033790'
p3124
(lp3125
V\uc11c\ud654\uc815\ubcf4\ud1b5\uc2e0
p3126
aVKOSDAQ:033790
p3127
ag5
asS'042520'
p3128
(lp3129
V\ud55c\uc2a4\ubc14\uc774\uc624\uba54\ub4dc
p3130
aVKOSDAQ:042520
p3131
ag5
asS'027970'
p3132
(lp3133
V\uc138\ud558
p3134
aVKRX:027970
p3135
ag34
asS'039200'
p3136
(lp3137
V\uc624\uc2a4\ucf54\ud14d
p3138
aVKOSDAQ:039200
p3139
ag5
asS'097870'
p3140
(lp3141
V\ud6a8\uc131\uc624\uc564\ube44
p3142
aVKOSDAQ:097870
p3143
ag5
asS'151750'
p3144
(lp3145
V\ud14c\ub77c\ud14d
p3146
aFnan
ag294
asS'064800'
p3147
(lp3148
V\ud544\ub9c1\ud06c
p3149
aVKOSDAQ:064800
p3150
ag5
asS'091580'
p3151
(lp3152
V\uc0c1\uc2e0\uc774\ub514\ud53c
p3153
aVKOSDAQ:091580
p3154
ag5
asS'001740'
p3155
(lp3156
VSK\ub124\ud2b8\uc6cd\uc2a4
p3157
aVKRX:001740
p3158
ag34
asS'003920'
p3159
(lp3160
V\ub0a8\uc591\uc720\uc5c5
p3161
aVKRX:003920
p3162
ag34
asS'033640'
p3163
(lp3164
V\ub124\ud328\uc2a4
p3165
aVKOSDAQ:033640
p3166
ag5
asS'189860'
p3167
(lp3168
V\uc11c\uc804\uae30\uc804
p3169
aVKOSDAQ:189860
p3170
ag5
asS'091340'
p3171
(lp3172
VS&K\ud3f4\ub9ac\ud14d
p3173
aVKOSDAQ:091340
p3174
ag5
asS'058630'
p3175
(lp3176
V\uc5e0\uac8c\uc784
p3177
aVKOSDAQ:058630
p3178
ag5
asS'041650'
p3179
(lp3180
V\uc0c1\uc2e0\ube0c\ub808\uc774\ud06c
p3181
aVKRX:041650
p3182
ag34
asS'017370'
p3183
(lp3184
V\uc6b0\uc2e0\uc2dc\uc2a4\ud15c
p3185
aVKRX:017370
p3186
ag34
asS'090350'
p3187
(lp3188
V\ub178\ub8e8\ud398\uc778\ud2b8
p3189
aVKRX:090350
p3190
ag34
asS'060250'
p3191
(lp3192
V\ud55c\uad6d\uc0ac\uc774\ubc84\uacb0\uc81c
p3193
aVKOSDAQ:060250
p3194
ag5
asS'006220'
p3195
(lp3196
V\uc81c\uc8fc\uc740\ud589
p3197
aVKRX:006220
p3198
ag34
asS'051370'
p3199
(lp3200
V\uc778\ud130\ud50c\ub809\uc2a4
p3201
aVKOSDAQ:051370
p3202
ag5
asS'001290'
p3203
(lp3204
V\uace8\ub4e0\ube0c\ub9bf\uc9c0\uc99d\uad8c
p3205
aVKRX:001290
p3206
ag34
asS'001560'
p3207
(lp3208
V\uc81c\uc77c\uc5f0\ub9c8
p3209
aVKRX:001560
p3210
ag34
asS'084680'
p3211
(lp3212
V\uc774\uc6d4\ub4dc
p3213
aVKRX:084680
p3214
ag34
asS'002720'
p3215
(lp3216
V\uad6d\uc81c\uc57d\ud488\uacf5\uc5c5
p3217
aVKRX:002720
p3218
ag34
asS'030200'
p3219
(lp3220
V\ucf00\uc774\ud2f0
p3221
aVKRX:030200
p3222
ag34
asS'025950'
p3223
(lp3224
V\ub3d9\uc2e0\uac74\uc124
p3225
aVKOSDAQ:025950
p3226
ag5
asS'061250'
p3227
(lp3228
V\ud654\uc77c\uc57d\ud488
p3229
aVKOSDAQ:061250
p3230
ag5
asS'087220'
p3231
(lp3232
V\uc2a4\ud2f8\ud50c\ub77c\uc6cc
p3233
aVKOSDAQ:087220
p3234
ag5
asS'061040'
p3235
(lp3236
V\uc54c\uc5d0\ud504\ud14d
p3237
aVKOSDAQ:061040
p3238
ag5
asS'009410'
p3239
(lp3240
V\ud0dc\uc601\uac74\uc124
p3241
aVKRX:009410
p3242
ag34
asS'042700'
p3243
(lp3244
V\ud55c\ubbf8\ubc18\ub3c4\uccb4
p3245
aVKRX:042700
p3246
ag34
asS'001360'
p3247
(lp3248
V\uc0bc\uc131\uc81c\uc57d
p3249
aVKRX:001360
p3250
ag34
asS'000760'
p3251
(lp3252
V\uc774\ud654\uc0b0\uc5c5
p3253
aVKRX:000760
p3254
ag34
asS'108320'
p3255
(lp3256
V\uc2e4\ub9ac\ucf58\uc6cd\uc2a4
p3257
aVKOSDAQ:108320
p3258
ag5
asS'043650'
p3259
(lp3260
V\uad6d\uc21c\ub2f9
p3261
aVKOSDAQ:043650
p3262
ag5
asS'220100'
p3263
(lp3264
V\ud4e8\uccd0\ucf10
p3265
aFnan
ag294
asS'011930'
p3266
(lp3267
V\uc2e0\uc131\uc194\ub77c\uc5d0\ub108\uc9c0
p3268
aVKRX:011930
p3269
ag34
asS'085620'
p3270
(lp3271
V\ubbf8\ub798\uc5d0\uc14b\uc0dd\uba85
p3272
aVKRX:085620
p3273
ag34
asS'038540'
p3274
(lp3275
V\ud14d\uc140\ub124\ud2b8\ucef4
p3276
aVKOSDAQ:038540
p3277
ag5
asS'214610'
p3278
(lp3279
V\ub098\ub178\ubc14\uc774\uc624\uc2dc\uc2a4
p3280
aFnan
ag294
asS'011330'
p3281
(lp3282
V\uc720\ub2c8\ucf10
p3283
aVKRX:011330
p3284
ag34
asS'127160'
p3285
(lp3286
V\ub9e4\uc9c1\ub9c8\uc774\ud06c\ub85c
p3287
aFnan
ag294
asS'090970'
p3288
(lp3289
V\ucf54\ub9ac\uc54401\ud638
p3290
aVKRX:090970
p3291
ag34
asS'005620'
p3292
(lp3293
V\ub300\uc131\ud569\ub3d9\uc9c0\uc8fc
p3294
aVKRX:005620
p3295
ag34
asS'005190'
p3296
(lp3297
V\ub3d9\uc131\ud654\ud559
p3298
aVKRX:005190
p3299
ag34
asS'092130'
p3300
(lp3301
V\uc774\ud06c\ub808\ub354\ube14
p3302
aVKOSDAQ:092130
p3303
ag5
asS'027390'
p3304
(lp3305
V\ud55c\ud654\uac24\ub7ec\ub9ac\uc544\ud0c0\uc784\uc6d4\ub4dc
p3306
aVKRX:027390
p3307
ag34
asS'039830'
p3308
(lp3309
V\uc624\ub85c\ub77c
p3310
aVKOSDAQ:039830
p3311
ag5
asS'119610'
p3312
(lp3313
V\uc778\ud130\ub85c\uc870
p3314
aVKOSDAQ:119610
p3315
ag5
asS'035760'
p3316
(lp3317
VCJ\uc624\uc1fc\ud551
p3318
aVKOSDAQ:035760
p3319
ag5
asS'009520'
p3320
(lp3321
V\ud3ec\uc2a4\ucf54\uc5e0\ud14d
p3322
aVKOSDAQ:009520
p3323
ag5
asS'042670'
p3324
(lp3325
V\ub450\uc0b0\uc778\ud504\ub77c\ucf54\uc5b4
p3326
aVKRX:042670
p3327
ag34
asS'114090'
p3328
(lp3329
VGKL
p3330
aVKRX:114090
p3331
ag34
asS'005440'
p3332
(lp3333
V\ud604\ub300\uadf8\ub9b0\ud478\ub4dc
p3334
aVKRX:005440
p3335
ag34
asS'004910'
p3336
(lp3337
V\uc870\uad11\ud398\uc778\ud2b8
p3338
aVKRX:004910
p3339
ag34
asS'086200'
p3340
(lp3341
V\uc528\uc564\ube44\ud14d
p3342
aVKOSDAQ:086200
p3343
ag5
asS'082210'
p3344
(lp3345
V\uc635\ud2b8\ub860\ud14d
p3346
aVKOSDAQ:082210
p3347
ag5
asS'046140'
p3348
(lp3349
VSBS\ucf58\ud150\uce20\ud5c8\ube0c
p3350
aVKOSDAQ:046140
p3351
ag5
asS'032830'
p3352
(lp3353
V\uc0bc\uc131\uc0dd\uba85
p3354
aVKRX:032830
p3355
ag34
asS'031330'
p3356
(lp3357
V\uc5d0\uc2a4\uc5d0\uc774\uc5e0\ud2f0
p3358
aVKOSDAQ:031330
p3359
ag5
asS'136660'
p3360
(lp3361
V\ud050\uc5e0\uc528
p3362
aFnan
ag294
asS'009320'
p3363
(lp3364
V\ub300\uc6b0\ubd80\ud488
p3365
aVKRX:009320
p3366
ag34
asS'215360'
p3367
(lp3368
V\uc6b0\ub9ac\uc0b0\uc5c5
p3369
aVKOSDAQ:215360
p3370
ag5
asS'052400'
p3371
(lp3372
V\ucf54\ub098\uc544\uc774
p3373
aVKOSDAQ:052400
p3374
ag5
asS'004000'
p3375
(lp3376
V\uc0bc\uc131\uc815\ubc00\ud654\ud559
p3377
aVKRX:004000
p3378
ag34
asS'153460'
p3379
(lp3380
V\ub124\uc774\ube14\ucee4\ubba4\ub2c8\ucf00\uc774\uc158\uc988
p3381
aVKOSDAQ:153460
p3382
ag5
asS'067170'
p3383
(lp3384
V\uc624\ud14d
p3385
aVKOSDAQ:067170
p3386
ag5
asS'215380'
p3387
(lp3388
V\ud55c\ud654MGI\uc2a4\ud329
p3389
aVKOSDAQ:215380
p3390
ag5
asS'054800'
p3391
(lp3392
V\uc544\uc774\ub514\uc2a4\ud640\ub529\uc2a4
p3393
aVKOSDAQ:054800
p3394
ag5
asS'011790'
p3395
(lp3396
VSKC
p3397
aVKRX:011790
p3398
ag34
asS'128660'
p3399
(lp3400
V\ud53c\uc81c\uc774\uba54\ud0c8
p3401
aVKOSDAQ:128660
p3402
ag5
asS'010820'
p3403
(lp3404
V\ud37c\uc2a4\ud14d
p3405
aVKRX:010820
p3406
ag34
asS'077970'
p3407
(lp3408
VSTX\uc5d4\uc9c4
p3409
aVKRX:077970
p3410
ag34
asS'026040'
p3411
(lp3412
V\ub85c\ub9cc\uc190
p3413
aVKOSDAQ:026040
p3414
ag5
asS'204620'
p3415
(lp3416
V\uc720\uc548\ud0c0\uc81c1\ud638\uc2a4\ud329
p3417
aVKOSDAQ:204620
p3418
ag5
asS'005990'
p3419
(lp3420
V\ub9e4\uc77c\uc720\uc5c5
p3421
aVKOSDAQ:005990
p3422
ag5
asS'088910'
p3423
(lp3424
V\ub3d9\uc6b0
p3425
aVKOSDAQ:088910
p3426
ag5
asS'106190'
p3427
(lp3428
V\ud558\uc774\ud14d\ud31c
p3429
aVKOSDAQ:106190
p3430
ag5
asS'052330'
p3431
(lp3432
V\ucf54\ud14d
p3433
aVKOSDAQ:052330
p3434
ag5
asS'203690'
p3435
(lp3436
V\ucf00\uc774\ube44\uc81c3\ud638\uc2a4\ud329
p3437
aVKOSDAQ:203690
p3438
ag5
asS'004710'
p3439
(lp3440
V\ud55c\uc194\ud14c\ud06c\ub2c9\uc2a4
p3441
aVKRX:004710
p3442
ag34
asS'007160'
p3443
(lp3444
V\uc0ac\uc870\uc0b0\uc5c5
p3445
aVKRX:007160
p3446
ag34
asS'149010'
p3447
(lp3448
V\uc544\uc774\ucf00\uc774\uc138\ubbf8\ucf58
p3449
aFnan
ag294
asS'066310'
p3450
(lp3451
V\ud050\uc5d0\uc2a4\uc544\uc774
p3452
aVKOSDAQ:066310
p3453
ag5
asS'023810'
p3454
(lp3455
V\uc778\ud329
p3456
aVKRX:023810
p3457
ag34
asS'205500'
p3458
(lp3459
V\ucf00\uc774\ube44\uc81c4\ud638\uc2a4\ud329
p3460
aVKOSDAQ:205500
p3461
ag5
asS'096690'
p3462
(lp3463
V\uc138\uc6b0\ud14c\ud06c
p3464
aVKOSDAQ:096690
p3465
ag5
asS'067770'
p3466
(lp3467
V\uc138\uc9c4\ud2f0\uc5d0\uc2a4
p3468
aVKOSDAQ:067770
p3469
ag5
asS'003060'
p3470
(lp3471
V\uc288\ub12c\uc0dd\uba85\uacfc\ud559
p3472
aVKRX:003060
p3473
ag34
asS'088350'
p3474
(lp3475
V\ud55c\ud654\uc0dd\uba85
p3476
aVKRX:088350
p3477
ag34
asS'012860'
p3478
(lp3479
V\ub300\ub3d9
p3480
aVKOSDAQ:012860
p3481
ag5
asS'053590'
p3482
(lp3483
V\ud55c\uad6d\ud14c\ud06c\ub180\ub85c\uc9c0
p3484
aVKOSDAQ:053590
p3485
ag5
asS'053260'
p3486
(lp3487
V\uae08\uac15\ucca0\uac15
p3488
aVKOSDAQ:053260
p3489
ag5
asS'039610'
p3490
(lp3491
V\ud654\uc131
p3492
aVKOSDAQ:039610
p3493
ag5
asS'122900'
p3494
(lp3495
V\uc544\uc774\ub9c8\ucf13\ucf54\ub9ac\uc544
p3496
aVKRX:122900
p3497
ag34
asS'067570'
p3498
(lp3499
V\uc5d4\ube0c\uc774\uc5d0\uc774\uce58\ucf54\ub9ac\uc544
p3500
aVKOSDAQ:067570
p3501
ag5
asS'002880'
p3502
(lp3503
V\ub300\uc720\uc5d0\uc774\ud14d
p3504
aVKRX:002880
p3505
ag34
asS'072470'
p3506
(lp3507
V\uc6b0\ub9ac\uc0b0\uc5c5\ud640\ub529\uc2a4
p3508
aVKOSDAQ:072470
p3509
ag5
asS'002220'
p3510
(lp3511
V\ud55c\uc77c\ucca0\uac15
p3512
aVKRX:002220
p3513
ag34
asS'122690'
p3514
(lp3515
V\uc11c\uc9c4\uc624\ud1a0\ubaa8\ud2f0\ube0c
p3516
aVKOSDAQ:122690
p3517
ag5
asS'033310'
p3518
(lp3519
V\ub514\ucf00\uc774\ub514\uc564\uc544\uc774
p3520
aVKOSDAQ:033310
p3521
ag5
asS'077280'
p3522
(lp3523
V\ud55c\ucef4\uc9c0\uc5e0\ub514
p3524
aVKOSDAQ:077280
p3525
ag5
asS'086960'
p3526
(lp3527
VMDS\ud14c\ud06c
p3528
aVKOSDAQ:086960
p3529
ag5
asS'134580'
p3530
(lp3531
V\ub514\uc5e0\ud2f0
p3532
aVKOSDAQ:134580
p3533
ag5
asS'096760'
p3534
(lp3535
VJW\ud640\ub529\uc2a4
p3536
aVKRX:096760
p3537
ag34
asS'065950'
p3538
(lp3539
V\uc6f0\ud06c\ub860
p3540
aVKOSDAQ:065950
p3541
ag5
asS'041460'
p3542
(lp3543
V\ud55c\uad6d\uc804\uc790\uc778\uc99d
p3544
aVKOSDAQ:041460
p3545
ag5
asS'112240'
p3546
(lp3547
V\uc5d0\uc2a4\uc5d0\ud504\uc528
p3548
aVKOSDAQ:112240
p3549
ag5
asS'099830'
p3550
(lp3551
V\uc528\uadf8\ub110\uc5d4\ud130\ud14c\uc778\uba3c\ud2b8\uadf8\ub8f9
p3552
aVKOSDAQ:099830
p3553
ag5
asS'170900'
p3554
(lp3555
V\ub3d9\uc544\uc5d0\uc2a4\ud2f0
p3556
aVKRX:170900
p3557
ag34
asS'105550'
p3558
(lp3559
V\ud2b8\ub8e8\uc708
p3560
aVKOSDAQ:105550
p3561
ag5
asS'058370'
p3562
(lp3563
V\uae08\uc131\ud14c\ud06c
p3564
aVKOSDAQ:058370
p3565
ag5
asS'068870'
p3566
(lp3567
VLG\uc0dd\uba85\uacfc\ud559
p3568
aVKRX:068870
p3569
ag34
asS'003280'
p3570
(lp3571
V\ud765\uc544\ud574\uc6b4
p3572
aVKRX:003280
p3573
ag34
asS'039670'
p3574
(lp3575
V\uc2a4\ud3ec\uce20\uc11c\uc6b8
p3576
aVKOSDAQ:039670
p3577
ag5
asS'035890'
p3578
(lp3579
V\uc11c\ud76c\uac74\uc124
p3580
aVKOSDAQ:035890
p3581
ag5
asS'012450'
p3582
(lp3583
V\ud55c\ud654\ud14c\ud06c\uc708
p3584
aVKRX:012450
p3585
ag34
asS'179720'
p3586
(lp3587
V\uc610\ub85c\ud398\uc774
p3588
aFnan
ag294
asS'038500'
p3589
(lp3590
V\ub3d9\uc591\uc2dc\uba58\ud2b8
p3591
aVKOSDAQ:038500
p3592
ag5
asS'036530'
p3593
(lp3594
VS&T\ud640\ub529\uc2a4
p3595
aVKRX:036530
p3596
ag34
asS'006980'
p3597
(lp3598
V\uc6b0\uc131\uc0ac\ub8cc
p3599
aVKRX:006980
p3600
ag34
asS'007340'
p3601
(lp3602
V\ub3d9\uc544\ud0c0\uc774\uc5b4\uacf5\uc5c5
p3603
aVKRX:007340
p3604
ag34
asS'099340'
p3605
(lp3606
V\ud558\ub098\ub2c8\ucf081\ud638
p3607
aVKRX:099340
p3608
ag34
asS'066130'
p3609
(lp3610
V\ud558\uce20
p3611
aVKOSDAQ:066130
p3612
ag5
asS'012510'
p3613
(lp3614
V\ub354\uc874\ube44\uc988\uc628
p3615
aVKRX:012510
p3616
ag34
asS'024940'
p3617
(lp3618
VPN\ud48d\ub144
p3619
aVKOSDAQ:024940
p3620
ag5
asS'006340'
p3621
(lp3622
V\ub300\uc6d0\uc804\uc120
p3623
aVKRX:006340
p3624
ag34
asS'033780'
p3625
(lp3626
V\ucf00\uc774\ud2f0\uc564\uc9c0
p3627
aVKRX:033780
p3628
ag34
asS'039740'
p3629
(lp3630
V\ud55c\uad6d\uc815\ubcf4\uacf5\ud559
p3631
aVKOSDAQ:039740
p3632
ag5
asS'002150'
p3633
(lp3634
V\ub3c4\ud654\uc5d4\uc9c0\ub2c8\uc5b4\ub9c1
p3635
aVKRX:002150
p3636
ag34
asS'025890'
p3637
(lp3638
V\ud55c\uad6d\uc8fc\uac15
p3639
aVKRX:025890
p3640
ag34
asS'103130'
p3641
(lp3642
V\uc6c5\uc9c4\uc5d0\ub108\uc9c0
p3643
aVKRX:103130
p3644
ag34
asS'001750'
p3645
(lp3646
V\ud55c\uc591\uc99d\uad8c
p3647
aVKRX:001750
p3648
ag34
asS'108790'
p3649
(lp3650
V\uc778\ud130\ud30c\ud06c
p3651
aVKOSDAQ:108790
p3652
ag5
asS'038340'
p3653
(lp3654
V\ub9ac\uc820
p3655
aVKOSDAQ:038340
p3656
ag5
asS'050760'
p3657
(lp3658
V\uc5d0\uc2a4\ud3f4\ub9ac\ud14d
p3659
aVKOSDAQ:050760
p3660
ag5
asS'083660'
p3661
(lp3662
V\uc820\ud2b8\ub85c
p3663
aVKOSDAQ:083660
p3664
ag5
asS'158300'
p3665
(lp3666
V\uc5d0\uc2a4\uc5d0\uc774\ud2f0\uc774\uc5d4\uc9c0
p3667
aFnan
ag294
asS'048770'
p3668
(lp3669
VTPC
p3670
aVKOSDAQ:048770
p3671
ag5
asS'044450'
p3672
(lp3673
VKSS\ud574\uc6b4
p3674
aVKRX:044450
p3675
ag34
asS'183350'
p3676
(lp3677
V\uc5d8\ud53c\ucf00\uc774
p3678
aFnan
ag294
asS'060260'
p3679
(lp3680
V\ub274\ubcf4\ud14d
p3681
aVKOSDAQ:060260
p3682
ag5
asS'136510'
p3683
(lp3684
V\uc384\ubbf8\uc2dc\uc2a4\ucf54
p3685
aVKOSDAQ:136510
p3686
ag5
asS'052190'
p3687
(lp3688
V\uc18c\ud504\ud2b8\ub9e5\uc2a4
p3689
aVKOSDAQ:052190
p3690
ag5
asS'000370'
p3691
(lp3692
V\ud55c\ud654\uc190\ud574\ubcf4\ud5d8
p3693
aVKRX:000370
p3694
ag34
asS'111610'
p3695
(lp3696
V\uc2b9\ud654\ud504\ub9ac\ud14d
p3697
aVKOSDAQ:111610
p3698
ag5
asS'051360'
p3699
(lp3700
V\ud1a0\ube44\uc2a4
p3701
aVKOSDAQ:051360
p3702
ag5
asS'224760'
p3703
(lp3704
V\uc5d4\uc5d0\uc2a4\ucef4\ud37c\ub2c8
p3705
aFnan
ag294
asS'001570'
p3706
(lp3707
V\uae08\uc591
p3708
aVKRX:001570
p3709
ag34
asS'084690'
p3710
(lp3711
V\ub300\uc0c1\ud640\ub529\uc2a4
p3712
aVKRX:084690
p3713
ag34
asS'017960'
p3714
(lp3715
V\ud55c\uad6d\uce74\ubcf8
p3716
aVKRX:017960
p3717
ag34
asS'002710'
p3718
(lp3719
VTCC\ub3d9\uc591
p3720
aVKRX:002710
p3721
ag34
asS'030270'
p3722
(lp3723
V\uac00\ud76c
p3724
aVKOSDAQ:030270
p3725
ag5
asS'106520'
p3726
(lp3727
V\ub514\uc9c0\ud0c8\uc635\ud2f1
p3728
aVKOSDAQ:106520
p3729
ag5
asS'078000'
p3730
(lp3731
V\ud154\ucf54\uc6e8\uc5b4
p3732
aVKRX:078000
p3733
ag34
asS'222390'
p3734
(lp3735
V\ucf00\uc774\ube44\uc81c8\ud638\uc2a4\ud329
p3736
aVKOSDAQ:222390
p3737
ag5
asS'000970'
p3738
(lp3739
V\ud55c\uad6d\uc8fc\ucca0\uad00\uacf5\uc5c5
p3740
aVKRX:000970
p3741
ag34
asS'218710'
p3742
(lp3743
V\ud0a4\uc6c0\uc2a4\ud3293\ud638
p3744
aVKOSDAQ:218710
p3745
ag5
asS'040350'
p3746
(lp3747
V\ud050\ub85c\ucef4
p3748
aVKOSDAQ:040350
p3749
ag5
asS'171010'
p3750
(lp3751
V\ub7a8\ud14c\ud06c\ub180\ub7ec\uc9c0
p3752
aVKOSDAQ:171010
p3753
ag5
asS'060310'
p3754
(lp3755
V3S
p3756
aVKOSDAQ:060310
p3757
ag5
asS'033270'
p3758
(lp3759
V\uc720\ub098\uc774\ud2f0\ub4dc
p3760
aVKRX:033270
p3761
ag34
asS'027830'
p3762
(lp3763
V\ub300\uc131\ucc3d\ud22c
p3764
aVKOSDAQ:027830
p3765
ag5
asS'131180'
p3766
(lp3767
V\ub51c\ub9ac
p3768
aVKOSDAQ:131180
p3769
ag5
asS'160550'
p3770
(lp3771
VNEW
p3772
aVKOSDAQ:160550
p3773
ag5
asS'192240'
p3774
(lp3775
V\ub098\uc774\ucf54
p3776
aFnan
ag294
asS'078130'
p3777
(lp3778
V\uad6d\uc77c\uc81c\uc9c0
p3779
aVKOSDAQ:078130
p3780
ag5
asS'047080'
p3781
(lp3782
V\ud55c\ube5b\uc18c\ud504\ud2b8
p3783
aVKOSDAQ:047080
p3784
ag5
asS'092040'
p3785
(lp3786
V\uc544\ubbf8\ucf54\uc820
p3787
aVKOSDAQ:092040
p3788
ag5
asS'000480'
p3789
(lp3790
V\uc870\uc120\ub0b4\ud654
p3791
aVKRX:000480
p3792
ag34
asS'094860'
p3793
(lp3794
V\ucf54\ub2c9\uae00\ub85c\ub9ac
p3795
aVKOSDAQ:094860
p3796
ag5
asS'083470'
p3797
(lp3798
VKJ\ud504\ub9ac\ud14d
p3799
aVKOSDAQ:083470
p3800
ag5
asS'032190'
p3801
(lp3802
V\ub2e4\uc6b0\ub370\uc774\ud0c0
p3803
aVKOSDAQ:032190
p3804
ag5
asS'171120'
p3805
(lp3806
V\ub77c\uc774\uc628\ucf10\ud14d
p3807
aVKOSDAQ:171120
p3808
ag5
asS'047770'
p3809
(lp3810
V\ucf54\ub370\uc988\ucef4\ubc14\uc778
p3811
aVKOSDAQ:047770
p3812
ag5
asS'026940'
p3813
(lp3814
V\ubd80\uad6d\ucca0\uac15
p3815
aVKRX:026940
p3816
ag34
asS'036200'
p3817
(lp3818
V\uc720\ub2c8\uc148
p3819
aVKOSDAQ:036200
p3820
ag5
asS'051980'
p3821
(lp3822
VSNH
p3823
aVKOSDAQ:051980
p3824
ag5
asS'005610'
p3825
(lp3826
V\uc0bc\ub9bd\uc2dd\ud488
p3827
aVKRX:005610
p3828
ag34
asS'014200'
p3829
(lp3830
V\uad11\ub9bc
p3831
aVKOSDAQ:014200
p3832
ag5
asS'196170'
p3833
(lp3834
V\uc54c\ud14c\uc624\uc820
p3835
aVKOSDAQ:196170
p3836
ag5
asS'130580'
p3837
(lp3838
V\ub098\uc774\uc2a4\ub514\uc564\ube44
p3839
aVKOSDAQ:130580
p3840
ag5
asS'000150'
p3841
(lp3842
V\ub450\uc0b0
p3843
aVKRX:000150
p3844
ag34
asS'131290'
p3845
(lp3846
V\ud2f0\uc5d0\uc2a4\uc774
p3847
aVKOSDAQ:131290
p3848
ag5
asS'014190'
p3849
(lp3850
V\uc6d0\uc775\ud050\ube0c
p3851
aVKOSDAQ:014190
p3852
ag5
asS'018500'
p3853
(lp3854
V\ub3d9\uc6d0\uae08\uc18d
p3855
aVKRX:018500
p3856
ag34
asS'031430'
p3857
(lp3858
V\uc2e0\uc138\uacc4\uc778\ud130\ub0b4\uc154\ub0a0
p3859
aVKRX:031430
p3860
ag34
asS'072870'
p3861
(lp3862
V\uba54\uac00\uc2a4\ud130\ub514
p3863
aVKOSDAQ:072870
p3864
ag5
asS'011810'
p3865
(lp3866
VSTX
p3867
aVKRX:011810
p3868
ag34
asS'042600'
p3869
(lp3870
V\uc0c8\ub85c\ub2c9\uc2a4
p3871
aVKOSDAQ:042600
p3872
ag5
asS'009240'
p3873
(lp3874
V\ud55c\uc0d8
p3875
aVKRX:009240
p3876
ag34
asS'005290'
p3877
(lp3878
V\ub3d9\uc9c4\uc384\ubbf8\ucf10
p3879
aVKOSDAQ:005290
p3880
ag5
asS'068270'
p3881
(lp3882
V\uc140\ud2b8\ub9ac\uc628
p3883
aVKOSDAQ:068270
p3884
ag5
asS'065560'
p3885
(lp3886
V\ud050\ube0c\uc2a4
p3887
aVKOSDAQ:065560
p3888
ag5
asS'084670'
p3889
(lp3890
V\ub3d9\uc591\uace0\uc18d
p3891
aVKRX:084670
p3892
ag34
asS'035150'
p3893
(lp3894
V\ubc31\uc0b0
p3895
aVKRX:035150
p3896
ag34
asS'009180'
p3897
(lp3898
V\ud55c\uc194\ub85c\uc9c0\uc2a4\ud2f1\uc2a4
p3899
aVKRX:009180
p3900
ag34
asS'083580'
p3901
(lp3902
V\uc544\uc2dc\uc544\ud37c\uc2dc\ud53d11\ud638
p3903
aVKRX:083580
p3904
ag34
asS'005500'
p3905
(lp3906
V\uc0bc\uc9c4\uc81c\uc57d
p3907
aVKRX:005500
p3908
ag34
asS'206400'
p3909
(lp3910
V\ud55c\uad6d2\ud638\uc2a4\ud329
p3911
aVKOSDAQ:206400
p3912
ag5
asS'014440'
p3913
(lp3914
V\uc601\ubcf4\ud654\ud559
p3915
aVKRX:014440
p3916
ag34
asS'214390'
p3917
(lp3918
V\uacbd\ubcf4\uc81c\uc57d
p3919
aVKRX:214390
p3920
ag34
asS'158310'
p3921
(lp3922
V\uc138\ud638\ub85c\ubcf4\ud2b8
p3923
aVKOSDAQ:158310
p3924
ag5
asS'014680'
p3925
(lp3926
V\ud55c\uc194\ucf00\ubbf8\uce7c
p3927
aVKRX:014680
p3928
ag34
asS'217600'
p3929
(lp3930
V\uc774\ubca0\uc2a4\ud2b8\uc2a4\ud3292\ud638
p3931
aVKOSDAQ:217600
p3932
ag5
asS'025440'
p3933
(lp3934
V\ub300\uc131\uc5d8\ud14d
p3935
aVKOSDAQ:025440
p3936
ag5
asS'214150'
p3937
(lp3938
V\ucf00\uc774\ud2f0\ube44\uc2a4\ud3292\ud638
p3939
aVKOSDAQ:214150
p3940
ag5
asS'000020'
p3941
(lp3942
V\ub3d9\ud654\uc57d\ud488
p3943
aVKRX:000020
p3944
ag34
asS'004270'
p3945
(lp3946
V\ub0a8\uc131
p3947
aVKRX:004270
p3948
ag34
asS'028080'
p3949
(lp3950
V\ud734\ub9e5\uc2a4\ud640\ub529\uc2a4
p3951
aVKOSDAQ:028080
p3952
ag5
asS'042110'
p3953
(lp3954
V\uc5d0\uc2a4\uc528\ub514
p3955
aVKOSDAQ:042110
p3956
ag5
asS'032820'
p3957
(lp3958
V\uc6b0\ub9ac\uae30\uc220
p3959
aVKOSDAQ:032820
p3960
ag5
asS'100840'
p3961
(lp3962
VS&TC
p3963
aVKRX:100840
p3964
ag34
asS'089980'
p3965
(lp3966
V\uc0c1\uc544\ud504\ub860\ud14c\ud06c
p3967
aVKOSDAQ:089980
p3968
ag5
asS'100660'
p3969
(lp3970
V\uc11c\uc554\uae30\uacc4\uacf5\uc5c5
p3971
aVKOSDAQ:100660
p3972
ag5
asS'101240'
p3973
(lp3974
V\uc528\ud050\ube0c
p3975
aVKOSDAQ:101240
p3976
ag5
asS'009620'
p3977
(lp3978
V\uc0bc\ubcf4\uc0b0\uc5c5
p3979
aVKOSDAQ:009620
p3980
ag5
asS'104540'
p3981
(lp3982
V\ucf54\ub80c\ud14d
p3983
aVKOSDAQ:104540
p3984
ag5
asS'154040'
p3985
(lp3986
V\uc194\ub8e8\uc5d0\ud0c0
p3987
aVKOSDAQ:154040
p3988
ag5
asS'011780'
p3989
(lp3990
V\uae08\ud638\uc11d\uc720\ud654\ud559
p3991
aVKRX:011780
p3992
ag34
asS'037460'
p3993
(lp3994
V\uc0bc\uc9c0\uc804\uc790
p3995
aVKOSDAQ:037460
p3996
ag5
asS'005870'
p3997
(lp3998
V\ud734\ub2c8\ub4dc\ud14c\ud06c\ub180\ub7ec\uc9c0\uc2a4
p3999
aVKRX:005870
p4000
ag34
asS'032790'
p4001
(lp4002
V\uc5e0\uc820
p4003
aVKOSDAQ:032790
p4004
ag5
asS'011070'
p4005
(lp4006
VLG\uc774\ub178\ud14d
p4007
aVKRX:011070
p4008
ag34
asS'014530'
p4009
(lp4010
V\uadf9\ub3d9\uc720\ud654
p4011
aVKRX:014530
p4012
ag34
asS'003610'
p4013
(lp4014
V\ubc29\ub9bc
p4015
aVKRX:003610
p4016
ag34
asS'086890'
p4017
(lp4018
V\uc774\uc218\uc571\uc9c0\uc2a4
p4019
aVKOSDAQ:086890
p4020
ag5
asS'053690'
p4021
(lp4022
V\ud55c\ubbf8\uae00\ub85c\ubc8c
p4023
aVKRX:053690
p4024
ag34
asS'096350'
p4025
(lp4026
V\ub300\ucc3d\uc194\ub8e8\uc158
p4027
aVKOSDAQ:096350
p4028
ag5
asS'035200'
p4029
(lp4030
V\ud504\ub7fc\ud30c\uc2a4\ud2b8
p4031
aVKOSDAQ:035200
p4032
ag5
asS'008110'
p4033
(lp4034
V\ub300\ub3d9\uc804\uc790
p4035
aVKRX:008110
p4036
ag34
asS'053050'
p4037
(lp4038
V\uc9c0\uc5d0\uc2a4\uc774
p4039
aVKOSDAQ:053050
p4040
ag5
asS'004700'
p4041
(lp4042
V\uc870\uad11\ud53c\ud601
p4043
aVKRX:004700
p4044
ag34
asS'003120'
p4045
(lp4046
V\uc77c\uc131\uc2e0\uc57d
p4047
aVKRX:003120
p4048
ag34
asS'077360'
p4049
(lp4050
V\ub355\uc0b0\ud558\uc774\uba54\ud0c8
p4051
aVKOSDAQ:077360
p4052
ag5
asS'004490'
p4053
(lp4054
V\uc138\ubc29\uc804\uc9c0
p4055
aVKRX:004490
p4056
ag34
asS'023800'
p4057
(lp4058
V\uc778\uc9c0\ucee8\ud2b8\ub864\uc2a4
p4059
aVKRX:023800
p4060
ag34
asS'039290'
p4061
(lp4062
V\uc778\ud3ec\ubc45\ud06c
p4063
aVKOSDAQ:039290
p4064
ag5
asS'008370'
p4065
(lp4066
V\uc6d0\ud48d
p4067
aVKOSDAQ:008370
p4068
ag5
asS'025620'
p4069
(lp4070
V\uc2e0\uc6b0
p4071
aVKRX:025620
p4072
ag34
asS'101330'
p4073
(lp4074
V\ubaa8\ubca0\uc774\uc2a4
p4075
aVKOSDAQ:101330
p4076
ag5
asS'032640'
p4077
(lp4078
VLG\uc720\ud50c\ub7ec\uc2a4
p4079
aVKRX:032640
p4080
ag34
asS'053270'
p4081
(lp4082
V\uad6c\uc601\ud14c\ud06c
p4083
aVKOSDAQ:053270
p4084
ag5
asS'003720'
p4085
(lp4086
V\uc0bc\uc601\ud654\ud559\uacf5\uc5c5
p4087
aVKRX:003720
p4088
ag34
asS'041590'
p4089
(lp4090
V\uc82c\ubc31\uc2a4\ud14c\ud06c\ub180\ub7ec\uc9c0
p4091
aVKOSDAQ:041590
p4092
ag5
asS'003540'
p4093
(lp4094
V\ub300\uc2e0\uc99d\uad8c
p4095
aVKRX:003540
p4096
ag34
asS'002230'
p4097
(lp4098
V\ud53c\uc5d0\uc2a4\ud14d
p4099
aVKOSDAQ:002230
p4100
ag5
asS'214680'
p4101
(lp4102
V\ud55c\ud654\uc5d0\uc774\uc2a4\uc2a4\ud3291\ud638
p4103
aVKOSDAQ:214680
p4104
ag5
asS'101930'
p4105
(lp4106
V\uc778\ud654\uc815\uacf5
p4107
aVKOSDAQ:101930
p4108
ag5
asS'008970'
p4109
(lp4110
V\ub3d9\uc591\ucca0\uad00
p4111
aVKRX:008970
p4112
ag34
asS'084870'
p4113
(lp4114
V\ub354\ubca0\uc774\uc9c1\ud558\uc6b0\uc2a4
p4115
aVKRX:084870
p4116
ag34
asS'096770'
p4117
(lp4118
VSK\uc774\ub178\ubca0\uc774\uc158
p4119
aVKRX:096770
p4120
ag34
asS'138690'
p4121
(lp4122
V\uc5d8\uc544\uc774\uc5d0\uc2a4
p4123
aVKOSDAQ:138690
p4124
ag5
asS'007590'
p4125
(lp4126
V\ub3d9\ubc29\uc544\uadf8\ub85c
p4127
aVKRX:007590
p4128
ag34
asS'036540'
p4129
(lp4130
VSTS\ubc18\ub3c4\uccb4
p4131
aVKOSDAQ:036540
p4132
ag5
asS'064960'
p4133
(lp4134
VS&T\ubaa8\ud2f0\ube0c
p4135
aVKRX:064960
p4136
ag34
asS'008800'
p4137
(lp4138
V\ud589\ub0a8\uc790\uae30
p4139
aVKOSDAQ:008800
p4140
ag5
asS'161570'
p4141
(lp4142
V\ubbf8\ub3d9\uc804\uc790\ud1b5\uc2e0
p4143
aVKOSDAQ:161570
p4144
ag5
asS'113810'
p4145
(lp4146
V\ub514\uc820\uc2a4
p4147
aVKOSDAQ:113810
p4148
ag5
asS'012320'
p4149
(lp4150
V\uacbd\ub3d9\ub3c4\uc2dc\uac00\uc2a4
p4151
aVKRX:012320
p4152
ag34
asS'016170'
p4153
(lp4154
V\ub85c\uc5d4
p4155
aVKOSDAQ:016170
p4156
ag5
asS'036830'
p4157
(lp4158
V\uc194\ube0c\ub808\uc778
p4159
aVKOSDAQ:036830
p4160
ag5
asS'069640'
p4161
(lp4162
V\uc5e0\ucf00\uc774\ud2b8\ub80c\ub4dc
p4163
aVKRX:069640
p4164
ag34
asS'066430'
p4165
(lp4166
V\uc2e0\ud6c4
p4167
aVKOSDAQ:066430
p4168
ag5
asS'066910'
p4169
(lp4170
V\uc190\uc624\uacf5
p4171
aVKOSDAQ:066910
p4172
ag5
asS'094190'
p4173
(lp4174
V\uc774\uc5d8\ucf00\uc774
p4175
aVKOSDAQ:094190
p4176
ag5
asS'054050'
p4177
(lp4178
V\ub18d\uc6b0\ubc14\uc774\uc624
p4179
aVKOSDAQ:054050
p4180
ag5
asS'073110'
p4181
(lp4182
V\uc5d8\uc5e0\uc5d0\uc2a4
p4183
aVKOSDAQ:073110
p4184
ag5
asS'006400'
p4185
(lp4186
V\uc0bc\uc131SDI
p4187
aVKRX:006400
p4188
ag34
asS'024880'
p4189
(lp4190
V\ucf00\uc774\ud53c\uc5d0\ud504
p4191
aVKOSDAQ:024880
p4192
ag5
asS'025880'
p4193
(lp4194
V\ucf00\uc774\uc528\ud53c\ub4dc
p4195
aVKOSDAQ:025880
p4196
ag5
asS'043090'
p4197
(lp4198
V\ud31c\uc2a4\uc6f0\ubc14\uc774\uc624
p4199
aVKOSDAQ:043090
p4200
ag5
asS'208640'
p4201
(lp4202
V\ucf00\uc774\ube44\uc81c6\ud638\uc2a4\ud329
p4203
aVKOSDAQ:208640
p4204
ag5
asS'002410'
p4205
(lp4206
V\ubc94\uc591\uac74\uc601
p4207
aVKRX:002410
p4208
ag34
asS'002140'
p4209
(lp4210
V\uace0\ub824\uc0b0\uc5c5
p4211
aVKRX:002140
p4212
ag34
asS'084110'
p4213
(lp4214
V\ud734\uc628\uc2a4
p4215
aVKOSDAQ:084110
p4216
ag5
asS'900090'
p4217
(lp4218
V\ucc28\uc774\ub098\ud558\uc624\ub780
p4219
aVKOSDAQ:900090
p4220
ag5
asS'013120'
p4221
(lp4222
V\ub3d9\uc6d0\uac1c\ubc1c
p4223
aVKOSDAQ:013120
p4224
ag5
asS'003940'
p4225
(lp4226
V\uc0bc\uc591\uc81c\ub125\uc2a4
p4227
aVKRX:003940
p4228
ag34
asS'095300'
p4229
(lp4230
V\uc5d4\uc5d0\uc2a4\ube0c\uc774
p4231
aVKOSDAQ:095300
p4232
ag5
asS'033660'
p4233
(lp4234
V\uc544\uc8fc\uce90\ud53c\ud0c8
p4235
aVKRX:033660
p4236
ag34
asS'036490'
p4237
(lp4238
VOCI\uba38\ud2f0\ub9ac\uc5bc\uc988
p4239
aVKOSDAQ:036490
p4240
ag5
asS'178600'
p4241
(lp4242
V\ub300\ub3d9\uace0\ub824\uc0bc
p4243
aFnan
ag294
asS'027710'
p4244
(lp4245
V\ud31c\uc2a4\ud1a0\ub9ac
p4246
aVKOSDAQ:027710
p4247
ag5
asS'068060'
p4248
(lp4249
VKCW
p4250
aVKOSDAQ:068060
p4251
ag5
asS'001540'
p4252
(lp4253
V\uc548\uad6d\uc57d\ud488
p4254
aVKOSDAQ:001540
p4255
ag5
asS'001810'
p4256
(lp4257
V\ubb34\ub9bcSP
p4258
aVKOSDAQ:001810
p4259
ag5
asS'000810'
p4260
(lp4261
V\uc0bc\uc131\ud654\uc7ac\ud574\uc0c1\ubcf4\ud5d8
p4262
aVKRX:000810
p4263
ag34
asS'126560'
p4264
(lp4265
V\ud604\ub300\uc5d0\uc774\uce58\uc528\uc5d4
p4266
aVKRX:126560
p4267
ag34
asS'030790'
p4268
(lp4269
V\ub3d9\uc591\ub124\ud2b8\uc6cd\uc2a4
p4270
aVKRX:030790
p4271
ag34
asS'024110'
p4272
(lp4273
V\uae30\uc5c5\uc740\ud589
p4274
aVKRX:024110
p4275
ag34
asS'123010'
p4276
(lp4277
V\uc635\ud1a0\ud329
p4278
aFnan
ag294
asS'159650'
p4279
(lp4280
V\ud558\uc774\uace8\ub4dc8\ud638
p4281
aVKRX:159650
p4282
ag34
asS'207760'
p4283
(lp4284
V\ub3d9\ubd80\uc2a4\ud3292\ud638
p4285
aVKOSDAQ:207760
p4286
ag5
asS'002700'
p4287
(lp4288
V\uc2e0\uc77c\uc0b0\uc5c5
p4289
aVKRX:002700
p4290
ag34
asS'035900'
p4291
(lp4292
VJYP Ent.
p4293
aVKOSDAQ:035900
p4294
ag5
asS'040910'
p4295
(lp4296
V\uc544\uc774\uc528\ub514
p4297
aVKOSDAQ:040910
p4298
ag5
asS'047560'
p4299
(lp4300
V\uc774\uc2a4\ud2b8\uc18c\ud504\ud2b8
p4301
aVKOSDAQ:047560
p4302
ag5
asS'033200'
p4303
(lp4304
V\ubaa8\uc544\ud14d
p4305
aVKOSDAQ:033200
p4306
ag5
asS'060300'
p4307
(lp4308
V\ub808\ub4dc\ub85c\ubc84
p4309
aVKOSDAQ:060300
p4310
ag5
asS'017550'
p4311
(lp4312
V\uc218\uc0b0\uc911\uacf5\uc5c5
p4313
aVKRX:017550
p4314
ag34
asS'065150'
p4315
(lp4316
VMPK
p4317
aVKOSDAQ:065150
p4318
ag5
asS'145990'
p4319
(lp4320
V\uc0bc\uc591\uc0ac
p4321
aVKRX:145990
p4322
ag34
asS'065770'
p4323
(lp4324
VCS
p4325
aVKOSDAQ:065770
p4326
ag5
asS'017040'
p4327
(lp4328
V\uad11\uba85\uc804\uae30
p4329
aVKRX:017040
p4330
ag34
asS'085370'
p4331
(lp4332
V\ub8e8\ud2b8\ub85c\ub2c9
p4333
aVKOSDAQ:085370
p4334
ag5
asS'192250'
p4335
(lp4336
V\ucf00\uc774\uc0ac\uc778
p4337
aVKOSDAQ:192250
p4338
ag5
asS'092070'
p4339
(lp4340
V\ub514\uc5d4\uc5d0\ud504
p4341
aVKOSDAQ:092070
p4342
ag5
asS'109740'
p4343
(lp4344
V\ub514\uc5d0\uc2a4\ucf00\uc774
p4345
aVKOSDAQ:109740
p4346
ag5
asS'000700'
p4347
(lp4348
V\uc720\uc218\ud640\ub529\uc2a4
p4349
aVKRX:000700
p4350
ag34
asS'092460'
p4351
(lp4352
V\ud55c\ub77cIMS
p4353
aVKOSDAQ:092460
p4354
ag5
asS'001380'
p4355
(lp4356
VSG\ucda9\ub0a8\ubc29\uc801
p4357
aVKRX:001380
p4358
ag34
asS'001140'
p4359
(lp4360
V\uad6d\ubcf4
p4361
aVKRX:001140
p4362
ag34
asS'103650'
p4363
(lp4364
V\ud558\ub098\uc77c\ub809\ucf64
p4365
aFnan
ag294
asS'034300'
p4366
(lp4367
V\uc2e0\uc138\uacc4\uac74\uc124
p4368
aVKRX:034300
p4369
ag34
asS'094850'
p4370
(lp4371
V\ucc38\uc88b\uc740\ub808\uc838
p4372
aVKOSDAQ:094850
p4373
ag5
asS'000490'
p4374
(lp4375
V\ub300\ub3d9\uacf5\uc5c5
p4376
aVKRX:000490
p4377
ag34
asS'053870'
p4378
(lp4379
VGT&T
p4380
aVKOSDAQ:053870
p4381
ag5
asS'075180'
p4382
(lp4383
V\uc0c8\ub860\uc624\ud1a0\ubaa8\ud2f0\ube0c
p4384
aVKRX:075180
p4385
ag34
asS'010240'
p4386
(lp4387
V\ud765\uad6d
p4388
aVKOSDAQ:010240
p4389
ag5
asS'097950'
p4390
(lp4391
VCJ\uc81c\uc77c\uc81c\ub2f9
p4392
aVKRX:097950
p4393
ag34
asS'018680'
p4394
(lp4395
V\uc11c\uc6b8\uc81c\uc57d
p4396
aVKOSDAQ:018680
p4397
ag5
asS'000140'
p4398
(lp4399
V\ud558\uc774\ud2b8\uc9c4\ub85c\ud640\ub529\uc2a4
p4400
aVKRX:000140
p4401
ag34
asS'057880'
p4402
(lp4403
V\ud1a0\ud544\ub4dc
p4404
aVKOSDAQ:057880
p4405
ag5
asS'043710'
p4406
(lp4407
V\ub85c\ucf13\ubaa8\ubc14\uc77c
p4408
aVKOSDAQ:043710
p4409
ag5
asS'041920'
p4410
(lp4411
V\uba54\ub514\uc544\ub098
p4412
aVKOSDAQ:041920
p4413
ag5
asS'104200'
p4414
(lp4415
V\ub124\uc624\uc704\uc988\uc778\ud130\ub137
p4416
aVKOSDAQ:104200
p4417
ag5
asS'065570'
p4418
(lp4419
V\uc0bc\uc601\uc774\uc5d4\uc528
p4420
aVKOSDAQ:065570
p4421
ag5
asS'083590'
p4422
(lp4423
V\uc544\uc2dc\uc544\ud37c\uc2dc\ud53d12\ud638
p4424
aVKRX:083590
p4425
ag34
asS'014830'
p4426
(lp4427
V\uc720\ub2c8\ub4dc
p4428
aVKRX:014830
p4429
ag34
asS'009290'
p4430
(lp4431
V\uad11\ub3d9\uc81c\uc57d
p4432
aVKRX:009290
p4433
ag34
asS'220630'
p4434
(lp4435
V\ucf00\uc774\ud2f0\ube44\uc2a4\ud3293\ud638
p4436
aVKOSDAQ:220630
p4437
ag5
asS'222520'
p4438
(lp4439
V\uc194\ud2b8\uc6cd\uc2a4
p4440
aFnan
ag294
asS'046310'
p4441
(lp4442
V\ubc31\uae08T&A
p4443
aVKOSDAQ:046310
p4444
ag5
asS'120030'
p4445
(lp4446
V\uc870\uc120\uc120\uc7ac
p4447
aVKRX:120030
p4448
ag34
asS'131370'
p4449
(lp4450
V\uc54c\uc11c\ud3ec\ud2b8
p4451
aVKOSDAQ:131370
p4452
ag5
asS'087600'
p4453
(lp4454
V\ud53d\uc140\ud50c\ub7ec\uc2a4
p4455
aVKOSDAQ:087600
p4456
ag5
asS'092200'
p4457
(lp4458
V\ub514\uc544\uc774\uc528
p4459
aVKRX:092200
p4460
ag34
asS'086220'
p4461
(lp4462
V\ub124\ucd94\ub7f4FNP
p4463
aFnan
ag294
asS'052420'
p4464
(lp4465
V\uc624\uc131\uc5d8\uc5d0\uc2a4\ud2f0
p4466
aVKOSDAQ:052420
p4467
ag5
asS'182690'
p4468
(lp4469
V\ud14c\ub77c\uc148
p4470
aVKOSDAQ:182690
p4471
ag5
asS'053110'
p4472
(lp4473
V\uc18c\ub9ac\ubc14\ub2e4
p4474
aVKOSDAQ:053110
p4475
ag5
asS'123840'
p4476
(lp4477
V\ud55c\uc77c\uc9c4\uacf5
p4478
aVKOSDAQ:123840
p4479
ag5
asS'100090'
p4480
(lp4481
V\uc0bc\uac15\uc5e0\uc564\ud2f0
p4482
aVKOSDAQ:100090
p4483
ag5
asS'000030'
p4484
(lp4485
V\uc6b0\ub9ac\uc740\ud589
p4486
aVKRX:000030
p4487
ag34
asS'064350'
p4488
(lp4489
V\ud604\ub300\ub85c\ud15c
p4490
aVKRX:064350
p4491
ag34
asS'014940'
p4492
(lp4493
V\uc624\ub9ac\uc5d4\ud0c8\uc815\uacf5
p4494
aVKOSDAQ:014940
p4495
ag5
asS'004800'
p4496
(lp4497
V\ud6a8\uc131
p4498
aVKRX:004800
p4499
ag34
asS'011040'
p4500
(lp4501
V\uacbd\ub3d9\uc81c\uc57d
p4502
aVKOSDAQ:011040
p4503
ag5
asS'015540'
p4504
(lp4505
V\ud56b\ud14d
p4506
aVKRX:015540
p4507
ag34
asS'080580'
p4508
(lp4509
V\uc624\ud0a8\uc2a4\uc804\uc790
p4510
aVKOSDAQ:080580
p4511
ag5
asS'052600'
p4512
(lp4513
V\ud55c\ub124\ud2b8
p4514
aVKOSDAQ:052600
p4515
ag5
asS'150440'
p4516
(lp4517
V\ud53c\ub178\ud14d
p4518
aFnan
ag294
asS'036010'
p4519
(lp4520
V\uc544\ube44\ucf54\uc804\uc790
p4521
aVKOSDAQ:036010
p4522
ag5
asS'005860'
p4523
(lp4524
V\ud55c\uc77c\uc0ac\ub8cc
p4525
aVKOSDAQ:005860
p4526
ag5
asS'079190'
p4527
(lp4528
VEMW
p4529
aVKOSDAQ:079190
p4530
ag5
asS'026260'
p4531
(lp4532
V\ubcf4\ud0c0\ubc14\uc774\uc624
p4533
aVKOSDAQ:026260
p4534
ag5
asS'101670'
p4535
(lp4536
V\ucf54\ub9ac\uc544\uc5d0\uc2a4\uc774
p4537
aVKOSDAQ:101670
p4538
ag5
asS'093240'
p4539
(lp4540
V\uc5d0\ub9ac\ud2b8\ubca0\uc774\uc9c1
p4541
aVKRX:093240
p4542
ag34
asS'004890'
p4543
(lp4544
V\ub3d9\uc77c\uc0b0\uc5c5
p4545
aVKRX:004890
p4546
ag34
asS'053060'
p4547
(lp4548
V\uc138\ub3d9
p4549
aVKOSDAQ:053060
p4550
ag5
asS'093370'
p4551
(lp4552
V\ud6c4\uc131
p4553
aVKRX:093370
p4554
ag34
asS'135270'
p4555
(lp4556
V\uc138\uc885\uba38\ud2f0\ub9ac\uc5bc\uc988
p4557
aFnan
ag294
asS'034940'
p4558
(lp4559
V\uc870\uc544\uc81c\uc57d
p4560
aVKOSDAQ:034940
p4561
ag5
asS'058610'
p4562
(lp4563
V\uc5d0\uc2a4\ud53c\uc9c0
p4564
aVKOSDAQ:058610
p4565
ag5
asS'215050'
p4566
(lp4567
V\ube44\uc5d4\ub514\uc0dd\ud65c\uac74\uac15
p4568
aFnan
ag294
asS'105330'
p4569
(lp4570
V\ucf00\uc774\uc5d4\ub354\ube14\uc720
p4571
aVKOSDAQ:105330
p4572
ag5
asS'012790'
p4573
(lp4574
V\uc2e0\uc77c\uc81c\uc57d
p4575
aVKOSDAQ:012790
p4576
ag5
asS'119850'
p4577
(lp4578
V\uc9c0\uc5d4\uc528\uc5d0\ub108\uc9c0
p4579
aVKOSDAQ:119850
p4580
ag5
asS'004020'
p4581
(lp4582
V\ud604\ub300\uc81c\ucca0
p4583
aVKRX:004020
p4584
ag34
asS'008560'
p4585
(lp4586
V\uba54\ub9ac\uce20\uc885\uae08\uc99d\uad8c
p4587
aVKRX:008560
p4588
ag34
asS'067080'
p4589
(lp4590
V\ub300\ud654\uc81c\uc57d
p4591
aVKOSDAQ:067080
p4592
ag5
asS'189690'
p4593
(lp4594
V\ud3ec\uc2dc\uc5d0\uc2a4
p4595
aVKOSDAQ:189690
p4596
ag5
asS'088800'
p4597
(lp4598
V\uc5d0\uc774\uc2a4\ud14c\ud06c
p4599
aVKOSDAQ:088800
p4600
ag5
asS'200670'
p4601
(lp4602
V\ud734\uba54\ub515\uc2a4
p4603
aVKOSDAQ:200670
p4604
ag5
asS'104120'
p4605
(lp4606
V\uc2e0\uc131\uc5d0\ud504\uc5d0\uc774
p4607
aVKRX:104120
p4608
ag34
asS'007610'
p4609
(lp4610
V\uc120\ub3c4\uc804\uae30
p4611
aVKRX:007610
p4612
ag34
asS'023900'
p4613
(lp4614
V\ud48d\uad6d\uc8fc\uc815
p4615
aVKOSDAQ:023900
p4616
ag5
asS'200470'
p4617
(lp4618
V\ud558\uc774\uc148
p4619
aVKOSDAQ:200470
p4620
ag5
asS'088390'
p4621
(lp4622
V\uc774\ub179\uc2a4
p4623
aVKOSDAQ:088390
p4624
ag5
asS'037760'
p4625
(lp4626
V\uc384\ub2c8\ud2b8
p4627
aVKOSDAQ:037760
p4628
ag5
asS'050110'
p4629
(lp4630
V\ucea0\uc2dc\uc2a4
p4631
aVKOSDAQ:050110
p4632
ag5
asS'009150'
p4633
(lp4634
V\uc0bc\uc131\uc804\uae30
p4635
aVKRX:009150
p4636
ag34
asS'204650'
p4637
(lp4638
V\ucf00\uc774\ud2f0\ube44\uc2a4\ud3291\ud638
p4639
aVKOSDAQ:204650
p4640
ag5
asS'192530'
p4641
(lp4642
V\uad11\uc8fc\uc740\ud589
p4643
aVKRX:192530
p4644
ag34
asS'200780'
p4645
(lp4646
V\ube44\uc528\uc6d4\ub4dc\uc81c\uc57d
p4647
aVKOSDAQ:200780
p4648
ag5
asS'066590'
p4649
(lp4650
V\uc6b0\uc218AMS
p4651
aVKOSDAQ:066590
p4652
ag5
asS'123410'
p4653
(lp4654
V\ucf54\ub9ac\uc544\uc5d0\ud504\ud2f0
p4655
aVKOSDAQ:123410
p4656
ag5
asS'002550'
p4657
(lp4658
VKB\uc190\ud574\ubcf4\ud5d8
p4659
aVKRX:002550
p4660
ag34
asS'016090'
p4661
(lp4662
V\ub300\ud604
p4663
aVKRX:016090
p4664
ag34
asS'078930'
p4665
(lp4666
VGS
p4667
aVKRX:078930
p4668
ag34
asS'044180'
p4669
(lp4670
V\ucf00\uc774\ub514\uac74\uc124
p4671
aVKOSDAQ:044180
p4672
ag5
asS'002390'
p4673
(lp4674
V\ud55c\ub3c5
p4675
aVKRX:002390
p4676
ag34
asS'058430'
p4677
(lp4678
V\ud3ec\uc2a4\ucf54\uac15\ud310
p4679
aVKRX:058430
p4680
ag34
asS'091000'
p4681
(lp4682
V\ucf54\ub9ac\uc54404\ud638
p4683
aVKRX:091000
p4684
ag34
asS'007720'
p4685
(lp4686
V\ub300\uba85\ucf54\ud37c\ub808\uc774\uc158
p4687
aVKOSDAQ:007720
p4688
ag5
asS'003550'
p4689
(lp4690
VLG
p4691
aVKRX:003550
p4692
ag34
asS'041020'
p4693
(lp4694
V\uc778\ud504\ub77c\uc6e8\uc5b4
p4695
aVKOSDAQ:041020
p4696
ag5
asS'066110'
p4697
(lp4698
V\ubc31\uc0b0OPC
p4699
aVKOSDAQ:066110
p4700
ag5
asS'012330'
p4701
(lp4702
V\ud604\ub300\ubaa8\ube44\uc2a4
p4703
aVKRX:012330
p4704
ag34
asS'099320'
p4705
(lp4706
V\uc384\ud2b8\ub809\uc544\uc774
p4707
aVKOSDAQ:099320
p4708
ag5
asS'067920'
p4709
(lp4710
V\uc774\uae00\ub8e8\uc2dc\ud050\ub9ac\ud2f0
p4711
aVKOSDAQ:067920
p4712
ag5
asS'054040'
p4713
(lp4714
V\ud55c\uad6d\ucef4\ud4e8\ud130
p4715
aVKOSDAQ:054040
p4716
ag5
asS'097780'
p4717
(lp4718
V\uc5d0\uc2a4\ub9e5
p4719
aVKOSDAQ:097780
p4720
ag5
asS'006740'
p4721
(lp4722
V\uc601\ud48d\uc81c\uc9c0
p4723
aVKRX:006740
p4724
ag34
asS'196490'
p4725
(lp4726
V\ub514\uc5d0\uc774\ud14c\ud06c\ub180\ub85c\uc9c0
p4727
aVKOSDAQ:196490
p4728
ag5
asS'115390'
p4729
(lp4730
V\ub77d\uc564\ub77d
p4731
aVKRX:115390
p4732
ag34
asS'021240'
p4733
(lp4734
V\ucf54\uc6e8\uc774
p4735
aVKRX:021240
p4736
ag34
asS'001770'
p4737
(lp4738
V\uc2e0\ud654\uc2e4\uc5c5
p4739
aVKRX:001770
p4740
ag34
asS'002170'
p4741
(lp4742
V\uc0bc\uc591\ud1b5\uc0c1
p4743
aVKRX:002170
p4744
ag34
asS'037370'
p4745
(lp4746
VEG
p4747
aVKOSDAQ:037370
p4748
ag5
asS'156100'
p4749
(lp4750
V\uc5d8\uc564\ucf00\uc774\ubc14\uc774\uc624
p4751
aFnan
ag294
asS'092440'
p4752
(lp4753
V\uae30\uc2e0\uc815\uae30
p4754
aVKRX:092440
p4755
ag34
asS'155960'
p4756
(lp4757
V\uc9c0\ub514
p4758
aVKOSDAQ:155960
p4759
ag5
asS'216400'
p4760
(lp4761
V\ubc14\uc774\uc624\ucf54\uc544
p4762
aFnan
ag294
asS'083600'
p4763
(lp4764
V\uc544\uc2dc\uc544\ud37c\uc2dc\ud53d13\ud638
p4765
aVKRX:083600
p4766
ag34
asS'047400'
p4767
(lp4768
V\uc30d\uc6a9\uba38\ud2f0\ub9ac\uc5bc
p4769
aVKRX:047400
p4770
ag34
asS'020710'
p4771
(lp4772
V\uc2dc\uacf5\ud14c\ud06c
p4773
aVKOSDAQ:020710
p4774
ag5
asS'036480'
p4775
(lp4776
V\ub300\uc131\ubbf8\uc0dd\ubb3c
p4777
aVKOSDAQ:036480
p4778
ag5
asS'192390'
p4779
(lp4780
V\uc708\ud558\uc774\ud14d
p4781
aVKOSDAQ:192390
p4782
ag5
asS'001550'
p4783
(lp4784
V\uc870\ube44
p4785
aVKRX:001550
p4786
ag34
asS'192820'
p4787
(lp4788
V\ucf54\uc2a4\ub9e5\uc2a4
p4789
aVKRX:192820
p4790
ag34
asS'001800'
p4791
(lp4792
V\uc624\ub9ac\uc628
p4793
aVKRX:001800
p4794
ag34
asS'017940'
p4795
(lp4796
VE1
p4797
aVKRX:017940
p4798
ag34
asS'093640'
p4799
(lp4800
V\ub2e4\ubbc8\uba40\ud2f0\ubbf8\ub514\uc5b4
p4801
aVKOSDAQ:093640
p4802
ag5
asS'115570'
p4803
(lp4804
V\uc2a4\ud0c0\ud50c\ub809\uc2a4
p4805
aVKOSDAQ:115570
p4806
ag5
asS'078020'
p4807
(lp4808
V\uc774\ubca0\uc2a4\ud2b8\ud22c\uc790\uc99d\uad8c
p4809
aVKOSDAQ:078020
p4810
ag5
asS'094280'
p4811
(lp4812
V\ud6a8\uc131 ITX
p4813
aVKRX:094280
p4814
ag34
asS'025980'
p4815
(lp4816
V\uc5d0\uba38\uc2a8\ud37c\uc2dc\ud53d
p4817
aVKOSDAQ:025980
p4818
ag5
asS'018290'
p4819
(lp4820
V\uc9c0\uc5e0\ud53c
p4821
aVKOSDAQ:018290
p4822
ag5
asS'170030'
p4823
(lp4824
V\ud604\ub300\uacf5\uc5c5
p4825
aVKOSDAQ:170030
p4826
ag5
asS'080000'
p4827
(lp4828
V\uc5d0\uc2a4\uc5d4\uc720
p4829
aVKOSDAQ:080000
p4830
ag5
asS'061460'
p4831
(lp4832
V\ud55c\uc9c4\ud53c\uc564\uc528
p4833
aVKOSDAQ:061460
p4834
ag5
asS'065160'
p4835
(lp4836
V\uc5d0\ud504\ud2f0\uc774\uc564\uc774
p4837
aVKOSDAQ:065160
p4838
ag5
asS'000950'
p4839
(lp4840
V\uc804\ubc29
p4841
aVKRX:000950
p4842
ag34
asS'027580'
p4843
(lp4844
V\uc0c1\ubcf4
p4845
aVKOSDAQ:027580
p4846
ag5
asS'123690'
p4847
(lp4848
V\ud55c\uad6d\ud654\uc7a5\ud488
p4849
aVKRX:123690
p4850
ag34
asS'114570'
p4851
(lp4852
V\uc9c0\uc2a4\ub9c8\ud2b8\uae00\ub85c\ubc8c
p4853
aVKOSDAQ:114570
p4854
ag5
asS'024740'
p4855
(lp4856
V\ud55c\uc77c\ub2e8\uc870
p4857
aVKOSDAQ:024740
p4858
ag5
asS'079970'
p4859
(lp4860
V\ud22c\ube44\uc18c\ud504\ud2b8
p4861
aVKOSDAQ:079970
p4862
ag5
asS'094840'
p4863
(lp4864
V\uc288\ud504\ub9ac\ub9c8
p4865
aVKOSDAQ:094840
p4866
ag5
asS'131760'
p4867
(lp4868
V\ud30c\uc778\ud14d
p4869
aVKOSDAQ:131760
p4870
ag5
asS'009420'
p4871
(lp4872
V\ud55c\uc62c\ubc14\uc774\uc624\ud30c\ub9c8
p4873
aVKRX:009420
p4874
ag34
asS'001390'
p4875
(lp4876
VKG\ucf00\ubbf8\uce7c
p4877
aVKRX:001390
p4878
ag34
asS'034310'
p4879
(lp4880
VNICE
p4881
aVKRX:034310
p4882
ag34
asS'039010'
p4883
(lp4884
V\ud604\ub300\ud1b5\uc2e0
p4885
aVKOSDAQ:039010
p4886
ag5
asS'002600'
p4887
(lp4888
V\uc870\ud765
p4889
aVKRX:002600
p4890
ag34
asS'083450'
p4891
(lp4892
VGST
p4893
aVKOSDAQ:083450
p4894
ag5
asS'053800'
p4895
(lp4896
V\uc548\ub7a9
p4897
aVKOSDAQ:053800
p4898
ag5
asS'103660'
p4899
(lp4900
V\uc528\uc557
p4901
aFnan
ag294
asS'028670'
p4902
(lp4903
V\ud32c\uc624\uc158
p4904
aVKRX:028670
p4905
ag34
asS'033500'
p4906
(lp4907
V\ub3d9\uc131\ud654\uc778\ud14d
p4908
aVKOSDAQ:033500
p4909
ag5
asS'208870'
p4910
(lp4911
V\ud558\ub098\uba38\uc2a4\ud2b83\ud638\uc2a4\ud329
p4912
aVKOSDAQ:208870
p4913
ag5
asS'085670'
p4914
(lp4915
V\ub274\ud504\ub809\uc2a4
p4916
aVKOSDAQ:085670
p4917
ag5
asS'064760'
p4918
(lp4919
V\ud2f0\uc528\ucf00\uc774
p4920
aVKOSDAQ:064760
p4921
ag5
asS'010470'
p4922
(lp4923
V\uc624\ub9ac\ucf64
p4924
aVKOSDAQ:010470
p4925
ag5
asS'011300'
p4926
(lp4927
V\uc131\uc548
p4928
aVKRX:011300
p4929
ag34
asS'222670'
p4930
(lp4931
V\ud50c\ub7fc\ub77c\uc778\uc0dd\uba85\uacfc\ud559
p4932
aFnan
ag294
asS'041930'
p4933
(lp4934
V\ub3d9\uc544\ud654\uc131
p4935
aVKOSDAQ:041930
p4936
ag5
asS'136540'
p4937
(lp4938
V\uc708\uc2a4
p4939
aVKOSDAQ:136540
p4940
ag5
asS'079370'
p4941
(lp4942
V\uc81c\uc6b0\uc2a4
p4943
aVKOSDAQ:079370
p4944
ag5
asS'105840'
p4945
(lp4946
V\uc6b0\uc9c4
p4947
aVKRX:105840
p4948
ag34
asS'130960'
p4949
(lp4950
VCJ E&M
p4951
aVKOSDAQ:130960
p4952
ag5
asS'056190'
p4953
(lp4954
V\uc5d0\uc2a4\uc5d0\ud504\uc5d0\uc774
p4955
aVKOSDAQ:056190
p4956
ag5
asS'005070'
p4957
(lp4958
V\ucf54\uc2a4\ubaa8\uc2e0\uc18c\uc7ac
p4959
aVKRX:005070
p4960
ag34
asS'014820'
p4961
(lp4962
V\ub3d9\uc6d0\uc2dc\uc2a4\ud15c\uc988
p4963
aVKRX:014820
p4964
ag34
asS'055550'
p4965
(lp4966
V\uc2e0\ud55c\uc9c0\uc8fc
p4967
aVKRX:055550
p4968
ag34
asS'084650'
p4969
(lp4970
V\ub7a9\uc9c0\ub178\ubbf9\uc2a4
p4971
aVKOSDAQ:084650
p4972
ag5
asS'005250'
p4973
(lp4974
V\ub179\uc2ed\uc790\ud640\ub529\uc2a4
p4975
aVKRX:005250
p4976
ag34
asS'026180'
p4977
(lp4978
V\ud604\ub300\uc815\ubcf4\uae30\uc220
p4979
aVKOSDAQ:026180
p4980
ag5
asS'004380'
p4981
(lp4982
V\uc0bc\uc775THK
p4983
aVKRX:004380
p4984
ag34
asS'215790'
p4985
(lp4986
V\uc5d4\uc5d0\uc774\uce58\uc2a4\ud3295\ud638
p4987
aVKOSDAQ:215790
p4988
ag5
asS'217620'
p4989
(lp4990
V\ud55c\ud654ACPC\uc2a4\ud329
p4991
aVKOSDAQ:217620
p4992
ag5
asS'046110'
p4993
(lp4994
V\ud55c\uc77c\ub124\ud2b8\uc6cd\uc2a4
p4995
aVKOSDAQ:046110
p4996
ag5
asS'145270'
p4997
(lp4998
V\ucf00\uc774\ud0d1\ub9ac\uce20
p4999
aVKRX:145270
p5000
ag34
asS'032800'
p5001
(lp5002
V\ud310\ud0c0\uc9c0\uc624
p5003
aVKOSDAQ:032800
p5004
ag5
asS'028260'
p5005
(lp5006
V\uc81c\uc77c\ubaa8\uc9c1
p5007
aVKRX:028260
p5008
ag34
asS'044820'
p5009
(lp5010
V\ucf54\uc2a4\ub9e5\uc2a4\ube44\ud2f0\uc544\uc774
p5011
aVKRX:044820
p5012
ag34
asS'005380'
p5013
(lp5014
V\ud604\ub300\uc790\ub3d9\ucc28
p5015
aVKRX:005380
p5016
ag34
asS'008770'
p5017
(lp5018
V\ud638\ud154\uc2e0\ub77c
p5019
aVKRX:008770
p5020
ag34
asS'000040'
p5021
(lp5022
VKR\ubaa8\ud130\uc2a4
p5023
aVKRX:000040
p5024
ag34
asS'004250'
p5025
(lp5026
V\uc5d4\ud53c\uc528
p5027
aVKRX:004250
p5028
ag34
asS'078340'
p5029
(lp5030
V\ucef4\ud22c\uc2a4
p5031
aVKOSDAQ:078340
p5032
ag5
asS'005670'
p5033
(lp5034
V\ud478\ub4dc\uc6f0
p5035
aVKOSDAQ:005670
p5036
ag5
asS'009190'
p5037
(lp5038
V\ub300\uc591\uae08\uc18d
p5039
aVKRX:009190
p5040
ag34
asS'052290'
p5041
(lp5042
V\ud2b8\ub808\uc774\uc2a4
p5043
aVKOSDAQ:052290
p5044
ag5
asS'069110'
p5045
(lp5046
V\ucf54\uc2a4\uc628
p5047
aVKOSDAQ:069110
p5048
ag5
asS'072520'
p5049
(lp5050
V\ud0dc\uc591\uae30\uc804
p5051
aVKOSDAQ:072520
p5052
ag5
asS'039340'
p5053
(lp5054
V\ud55c\uad6d\uacbd\uc81cTV
p5055
aVKOSDAQ:039340
p5056
ag5
asS'120240'
p5057
(lp5058
V\ub300\uc815\ud654\uae08
p5059
aVKOSDAQ:120240
p5060
ag5
asS'052670'
p5061
(lp5062
V\uc81c\uc77c\ubc14\uc774\uc624
p5063
aVKOSDAQ:052670
p5064
ag5
asS'092220'
p5065
(lp5066
VKEC
p5067
aVKRX:092220
p5068
ag34
asS'036000'
p5069
(lp5070
V\uc608\ub9bc\ub2f9
p5071
aVKOSDAQ:036000
p5072
ag5
asS'005810'
p5073
(lp5074
V\ud48d\uc0b0\ud640\ub529\uc2a4
p5075
aVKRX:005810
p5076
ag34
asS'007330'
p5077
(lp5078
V\ud478\ub978\uc800\ucd95\uc740\ud589
p5079
aVKOSDAQ:007330
p5080
ag5
asS'071280'
p5081
(lp5082
V\ub85c\uccb4\uc2dc\uc2a4\ud15c\uc988
p5083
aVKOSDAQ:071280
p5084
ag5
asS'097230'
p5085
(lp5086
V\ud55c\uc9c4\uc911\uacf5\uc5c5
p5087
aVKRX:097230
p5088
ag34
asS'092870'
p5089
(lp5090
V\uc5d1\uc2dc\ucf58
p5091
aFnan
ag294
asS'005740'
p5092
(lp5093
V\ud06c\ub77c\uc6b4\uc81c\uacfc
p5094
aVKRX:005740
p5095
ag34
asS'092300'
p5096
(lp5097
V\ud604\uc6b0\uc0b0\uc5c5
p5098
aVKOSDAQ:092300
p5099
ag5
asS'101680'
p5100
(lp5101
V\ud55c\uad6d\uc815\ubc00\uae30\uacc4
p5102
aVKOSDAQ:101680
p5103
ag5
asS'004650'
p5104
(lp5105
V\ucc3d\ud574\uc5d0\ud0c4\uc62c
p5106
aVKOSDAQ:004650
p5107
ag5
asS'076340'
p5108
(lp5109
V\uad00\uc545\uc0b0\uc5c5
p5110
aFnan
ag294
asS'005490'
p5111
(lp5112
V\ud3ec\uc2a4\ucf54
p5113
aVKRX:005490
p5114
ag34
asS'009770'
p5115
(lp5116
V\uc0bc\uc815\ud384\ud504
p5117
aVKRX:009770
p5118
ag34
asS'051500'
p5119
(lp5120
VCJ\ud504\ub808\uc2dc\uc6e8\uc774
p5121
aVKOSDAQ:051500
p5122
ag5
asS'023350'
p5123
(lp5124
V\ud55c\uad6d\uc885\ud569\uae30\uc220
p5125
aVKRX:023350
p5126
ag34
asS'034950'
p5127
(lp5128
V\ud55c\uad6d\uae30\uc5c5\ud3c9\uac00
p5129
aVKOSDAQ:034950
p5130
ag5
asS'140910'
p5131
(lp5132
V\uad11\ud76c\ub9ac\uce20
p5133
aVKRX:140910
p5134
ag34
asS'089140'
p5135
(lp5136
V\ub125\uc2a4\ud134
p5137
aVKOSDAQ:089140
p5138
ag5
asS'186230'
p5139
(lp5140
V\uadf8\ub9b0\ud50c\ub7ec\uc2a4
p5141
aFnan
ag294
asS'009970'
p5142
(lp5143
V\uc601\uc6d0\ubb34\uc5ed\ud640\ub529\uc2a4
p5144
aVKRX:009970
p5145
ag34
asS'011690'
p5146
(lp5147
V\uc720\uc591\ub514\uc564\uc720
p5148
aVKRX:011690
p5149
ag34
asS'123260'
p5150
(lp5151
V\uc0ac\ud30c\uc774\uc5b4\ud14c\ud06c\ub180\ub85c\uc9c0
p5152
aVKOSDAQ:123260
p5153
ag5
asS'054920'
p5154
(lp5155
V\uc18c\ud504\ud2b8\ud3ec\ub7fc
p5156
aVKOSDAQ:054920
p5157
ag5
asS'210120'
p5158
(lp5159
V\uc774\uae40\ud504\ub85c\ub355\uc158
p5160
aFnan
ag294
asS'036170'
p5161
(lp5162
V\uc528\ud2f0\uc5d8
p5163
aVKOSDAQ:036170
p5164
ag5
asS'038110'
p5165
(lp5166
V\uc5d0\ucf54\ud50c\ub77c\uc2a4\ud2f1
p5167
aVKOSDAQ:038110
p5168
ag5
asS'035460'
p5169
(lp5170
V\uae30\uc0b0\ud154\ub808\ucf64
p5171
aVKOSDAQ:035460
p5172
ag5
asS'054450'
p5173
(lp5174
V\ud154\ub808\uce69\uc2a4
p5175
aVKOSDAQ:054450
p5176
ag5
asS'900120'
p5177
(lp5178
V\uc528\ucf00\uc774\uc5d0\uc774\uce58
p5179
aVKOSDAQ:900120
p5180
ag5
asS'008000'
p5181
(lp5182
V\ub3c4\ub808\uc774\ucf00\ubbf8\uce7c
p5183
aVKRX:008000
p5184
ag34
asS'003560'
p5185
(lp5186
V\uc544\uc774\uc5d0\uc774\uce58\ud050
p5187
aVKRX:003560
p5188
ag34
asS'203400'
p5189
(lp5190
V\uc5d0\uc774\ube44\uc628
p5191
aFnan
ag294
asS'091120'
p5192
(lp5193
V\uc774\uc5e0\ud14d
p5194
aVKOSDAQ:091120
p5195
ag5
asS'003090'
p5196
(lp5197
V\ub300\uc6c5
p5198
aVKRX:003090
p5199
ag34
asS'038290'
p5200
(lp5201
V\ub9c8\ud06c\ub85c\uc820
p5202
aVKOSDAQ:038290
p5203
ag5
asS'050120'
p5204
(lp5205
V\ub77c\uc774\ube0c\ud50c\ub809\uc2a4
p5206
aVKOSDAQ:050120
p5207
ag5
asS'019010'
p5208
(lp5209
V\uadf8\ub79c\ub4dc\ubc31\ud654\uc810
p5210
aVKOSDAQ:019010
p5211
ag5
asS'058730'
p5212
(lp5213
V\ub3d9\uc544\uc5d0\uc2a4\ud14d
p5214
aVKRX:058730
p5215
ag34
asS'123100'
p5216
(lp5217
V\ud14c\ub77c\uc138\ubbf8\ucf58
p5218
aVKOSDAQ:123100
p5219
ag5
asS'023910'
p5220
(lp5221
V\ub300\ud55c\uc57d\ud488
p5222
aVKOSDAQ:023910
p5223
ag5
asS'007280'
p5224
(lp5225
V\ud55c\uad6d\ud2b9\uc218\ud615\uac15
p5226
aVKRX:007280
p5227
ag34
asS'054630'
p5228
(lp5229
V\uc5d0\uc774\ub514\uce69\uc2a4
p5230
aVKOSDAQ:054630
p5231
ag5
asS'007110'
p5232
(lp5233
V\uc77c\uc2e0\uc11d\uc7ac
p5234
aVKRX:007110
p5235
ag34
asS'003410'
p5236
(lp5237
V\uc30d\uc6a9\uc591\ud68c\uacf5\uc5c5
p5238
aVKRX:003410
p5239
ag34
asS'067630'
p5240
(lp5241
V\uc5d0\ub108\uc9c0\uc194\ub8e8\uc158
p5242
aVKOSDAQ:067630
p5243
ag5
asS'093920'
p5244
(lp5245
V\uc11c\uc6d0\uc778\ud14d
p5246
aVKOSDAQ:093920
p5247
ag5
asS'001940'
p5248
(lp5249
VKISCO\ud640\ub529\uc2a4
p5250
aVKRX:001940
p5251
ag34
asS'123420'
p5252
(lp5253
V\uc120\ub370\uc774\ud1a0\uc988
p5254
aVKOSDAQ:123420
p5255
ag5
asS'048410'
p5256
(lp5257
V\ud604\ub300\uc544\uc774\ube44\ud2f0
p5258
aVKOSDAQ:048410
p5259
ag5
asS'002380'
p5260
(lp5261
V\ucf00\uc774\uc528\uc528
p5262
aVKRX:002380
p5263
ag34
asS'058420'
p5264
(lp5265
V\uc81c\uc774\uc6e8\uc774
p5266
aVKOSDAQ:058420
p5267
ag5
asS'214180'
p5268
(lp5269
V\ubbfc\uc564\uc9c0
p5270
aVKOSDAQ:214180
p5271
ag5
asS'076080'
p5272
(lp5273
V\uc6f0\ud06c\ub860\ud55c\ud14d
p5274
aVKOSDAQ:076080
p5275
ag5
asS'036560'
p5276
(lp5277
V\uc601\ud48d\uc815\ubc00
p5278
aVKOSDAQ:036560
p5279
ag5
asS'121440'
p5280
(lp5281
V\uace8\ud504\uc874\uc720\uc6d0\ud640\ub529\uc2a4
p5282
aVKOSDAQ:121440
p5283
ag5
asS'024910'
p5284
(lp5285
V\uacbd\ucc3d\uc0b0\uc5c5
p5286
aVKOSDAQ:024910
p5287
ag5
asS'138360'
p5288
(lp5289
V\uc5d0\uc774\uc528\ud2f0
p5290
aVKOSDAQ:138360
p5291
ag5
asS'198440'
p5292
(lp5293
V\uc5d4\uc5d0\uc774\uce58\uc2a4\ud3293\ud638
p5294
aVKOSDAQ:198440
p5295
ag5
asS'012340'
p5296
(lp5297
V\ub274\uc778\ud14d
p5298
aVKOSDAQ:012340
p5299
ag5
asS'036810'
p5300
(lp5301
V\uc5d0\ud504\uc5d0\uc2a4\ud2f0
p5302
aVKOSDAQ:036810
p5303
ag5
asS'006730'
p5304
(lp5305
V\uc11c\ubd80T&D
p5306
aVKOSDAQ:006730
p5307
ag5
asS'019490'
p5308
(lp5309
V\ud558\uc774\ud2b8\ub860\uc528\uc2a4\ud15c\uc988
p5310
aVKRX:019490
p5311
ag34
asS'006880'
p5312
(lp5313
V\uc2e0\uc1a1\ud640\ub529\uc2a4
p5314
aVKRX:006880
p5315
ag34
asS'004080'
p5316
(lp5317
V\uc2e0\ud765
p5318
aVKRX:004080
p5319
ag34
asS'006390'
p5320
(lp5321
V\ud604\ub300\uc2dc\uba58\ud2b8
p5322
aVKRX:006390
p5323
ag34
asS'053290'
p5324
(lp5325
V\ub2a5\ub960\uad50\uc721
p5326
aVKOSDAQ:053290
p5327
ag5
asS'080160'
p5328
(lp5329
V\ubaa8\ub450\ud22c\uc5b4
p5330
aVKOSDAQ:080160
p5331
ag5
asS'003960'
p5332
(lp5333
V\uc0ac\uc870\ub300\ub9bc
p5334
aVKRX:003960
p5335
ag34
asS'123330'
p5336
(lp5337
V\uc81c\ub2c9
p5338
aVKOSDAQ:123330
p5339
ag5
asS'021650'
p5340
(lp5341
V\ud55c\uad6d\ud050\ube45
p5342
aVKOSDAQ:021650
p5343
ag5
asS'184230'
p5344
(lp5345
V\ub808\ub4dc\ube44\uc528
p5346
aVKOSDAQ:184230
p5347
ag5
asS'049470'
p5348
(lp5349
VSGA
p5350
aVKOSDAQ:049470
p5351
ag5
asS'017680'
p5352
(lp5353
V\ub370\ucf54\uc564\uc774
p5354
aVKOSDAQ:017680
p5355
ag5
asS'000540'
p5356
(lp5357
V\ud765\uad6d\ud654\uc7ac
p5358
aVKRX:000540
p5359
ag34
asS'115500'
p5360
(lp5361
V\ucf00\uc774\uc528\uc5d0\uc2a4
p5362
aVKOSDAQ:115500
p5363
ag5
asS'131970'
p5364
(lp5365
V\ud14c\uc2a4\ub098
p5366
aVKOSDAQ:131970
p5367
ag5
asS'099440'
p5368
(lp5369
V\uc2a4\ub9e5
p5370
aVKOSDAQ:099440
p5371
ag5
asS'123750'
p5372
(lp5373
V\uc54c\ud1a4\uc2a4\ud3ec\uce20
p5374
aVKOSDAQ:123750
p5375
ag5
asS'090990'
p5376
(lp5377
V\ucf54\ub9ac\uc54403\ud638
p5378
aVKRX:090990
p5379
ag34
asS'187790'
p5380
(lp5381
V\ub098\ub178
p5382
aVKOSDAQ:187790
p5383
ag5
asS'160600'
p5384
(lp5385
V\uc5d0\uc2a4\uc5d4\ud14d
p5386
aVKOSDAQ:160600
p5387
ag5
asS'065170'
p5388
(lp5389
V\ub125\uc2a4\ud2b8BT
p5390
aVKOSDAQ:065170
p5391
ag5
asS'002760'
p5392
(lp5393
V\ubcf4\ub77d
p5394
aVKRX:002760
p5395
ag34
asS'183490'
p5396
(lp5397
V\uc5d4\uc9c0\ucf10\uc0dd\uba85\uacfc\ud559
p5398
aFnan
ag294
asS'030530'
p5399
(lp5400
V\uc6d0\uc775IPS
p5401
aVKOSDAQ:030530
p5402
ag5
asS'091270'
p5403
(lp5404
V\uc720\ub514\ud53c
p5405
aFnan
ag294
asS'016880'
p5406
(lp5407
V\uc6c5\uc9c4
p5408
aVKRX:016880
p5409
ag34
asS'036580'
p5410
(lp5411
V\ud31c\uc2a4\ucf54
p5412
aVKRX:036580
p5413
ag34
asS'060980'
p5414
(lp5415
V\ud55c\ub77c\ud640\ub529\uc2a4
p5416
aVKRX:060980
p5417
ag34
asS'079980'
p5418
(lp5419
V\ud734\ube44\uc2a4
p5420
aVKRX:079980
p5421
ag34
asS'115160'
p5422
(lp5423
V\ud734\ub9e5\uc2a4
p5424
aVKOSDAQ:115160
p5425
ag5
asS'036030'
p5426
(lp5427
VKTH
p5428
aVKOSDAQ:036030
p5429
ag5
asS'000720'
p5430
(lp5431
V\ud604\ub300\uac74\uc124
p5432
aVKRX:000720
p5433
ag34
asS'110660'
p5434
(lp5435
V\uc138\uc2e0\ubc84\ud314\ub85c
p5436
aFnan
ag294
asS'041830'
p5437
(lp5438
V\uc778\ubc14\ub514
p5439
aVKOSDAQ:041830
p5440
ag5
asS'079960'
p5441
(lp5442
V\ub3d9\uc591\uc774\uc5d4\ud53c
p5443
aVKOSDAQ:079960
p5444
ag5
asS'150840'
p5445
(lp5446
V\uc778\ud2b8\ub85c\uba54\ub515
p5447
aVKOSDAQ:150840
p5448
ag5
asS'039020'
p5449
(lp5450
V\uc774\uac74\ucc3d\ud638
p5451
aVKOSDAQ:039020
p5452
ag5
asS'065350'
p5453
(lp5454
V\uc2e0\uc131\ub378\ud0c0\ud14c\ud06c
p5455
aVKOSDAQ:065350
p5456
ag5
asS'197140'
p5457
(lp5458
V\ub514\uc9c0\ucea1
p5459
aFnan
ag294
asS'053810'
p5460
(lp5461
V\ucf00\uc774\uc5d8\ud2f0
p5462
aVKOSDAQ:053810
p5463
ag5
asS'078160'
p5464
(lp5465
V\uba54\ub514\ud3ec\uc2a4\ud2b8
p5466
aVKOSDAQ:078160
p5467
ag5
asS'129260'
p5468
(lp5469
V\uc778\ud130\uc9c0\uc2a4
p5470
aVKRX:129260
p5471
ag34
asS'000830'
p5472
(lp5473
V\uc0bc\uc131\ubb3c\uc0b0
p5474
aVKRX:000830
p5475
ag34
asS'085660'
p5476
(lp5477
V\ucc28\ubc14\uc774\uc624\ud14d
p5478
aVKOSDAQ:085660
p5479
ag5
asS'010640'
p5480
(lp5481
V\uc9c4\uc591\ud3f4\ub9ac\uc6b0\ub808\ud0c4
p5482
aVKRX:010640
p5483
ag34
asS'127120'
p5484
(lp5485
V\ub514\uc5d4\uc5d0\uc774\ub9c1\ud06c
p5486
aVKOSDAQ:127120
p5487
ag5
asS'010580'
p5488
(lp5489
V\uc9c0\ucf54
p5490
aVKRX:010580
p5491
ag34
asS'089850'
p5492
(lp5493
V\uc720\ube44\ubca8\ub85d\uc2a4
p5494
aVKOSDAQ:089850
p5495
ag5
asS'001230'
p5496
(lp5497
V\ub3d9\uad6d\uc81c\uac15
p5498
aVKRX:001230
p5499
ag34
asS'119650'
p5500
(lp5501
VKC\ucf54\ud2b8\ub810
p5502
aVKRX:119650
p5503
ag34
asS'100250'
p5504
(lp5505
V\uc9c4\uc591\ud640\ub529\uc2a4
p5506
aVKRX:100250
p5507
ag34
asS'094940'
p5508
(lp5509
V\ud478\ub978\uae30\uc220
p5510
aVKOSDAQ:094940
p5511
ag5
asS'051390'
p5512
(lp5513
VYW
p5514
aVKOSDAQ:051390
p5515
ag5
asS'064480'
p5516
(lp5517
V\ube0c\ub9ac\uc9c0\ud14d
p5518
aVKOSDAQ:064480
p5519
ag5
asS'101170'
p5520
(lp5521
V\uc6b0\ub9bc\uae30\uacc4
p5522
aVKOSDAQ:101170
p5523
ag5
asS'068330'
p5524
(lp5525
V\uc77c\uc2e0\ubc14\uc774\uc624
p5526
aVKOSDAQ:068330
p5527
ag5
asS'011200'
p5528
(lp5529
V\ud604\ub300\uc0c1\uc120
p5530
aVKRX:011200
p5531
ag34
asS'214450'
p5532
(lp5533
V\ud30c\ub9c8\ub9ac\uc11c\uce58\ud504\ub85c\ub355\ud2b8
p5534
aVKOSDAQ:214450
p5535
ag5
asS'117580'
p5536
(lp5537
V\ub300\uc131\uc5d0\ub108\uc9c0
p5538
aVKRX:117580
p5539
ag34
asS'064240'
p5540
(lp5541
V\ud648\uce90\uc2a4\ud2b8
p5542
aVKOSDAQ:064240
p5543
ag5
asS'005710'
p5544
(lp5545
V\ub300\uc6d0\uc0b0\uc5c5
p5546
aVKOSDAQ:005710
p5547
ag5
asS'071970'
p5548
(lp5549
VSTX\uc911\uacf5\uc5c5
p5550
aVKRX:071970
p5551
ag34
asS'177350'
p5552
(lp5553
V\ubca0\uc140
p5554
aVKOSDAQ:177350
p5555
ag5
asS'060720'
p5556
(lp5557
VKH\ubc14\ud14d
p5558
aVKOSDAQ:060720
p5559
ag5
asS'151860'
p5560
(lp5561
VKG ETS
p5562
aVKOSDAQ:151860
p5563
ag5
asS'078590'
p5564
(lp5565
V\ub450\uc62c\uc0b0\uc5c5
p5566
aVKOSDAQ:078590
p5567
ag5
asS'131390'
p5568
(lp5569
V\ud53c\uc564\uc774\uc194\ub8e8\uc158
p5570
aVKOSDAQ:131390
p5571
ag5
asS'005390'
p5572
(lp5573
V\uc2e0\uc131\ud1b5\uc0c1
p5574
aVKRX:005390
p5575
ag34
asS'053660'
p5576
(lp5577
V\ud604\uc9c4\uc18c\uc7ac
p5578
aVKOSDAQ:053660
p5579
ag5
asS'126880'
p5580
(lp5581
V\uc81c\uc774\uc5d4\ucf00\uc774\ud788\ud130
p5582
aVKOSDAQ:126880
p5583
ag5
asS'000050'
p5584
(lp5585
V\uacbd\ubc29
p5586
aVKRX:000050
p5587
ag34
asS'078350'
p5588
(lp5589
V\ud55c\uc591\ub514\uc9c0\ud14d
p5590
aVKOSDAQ:078350
p5591
ag5
asS'093320'
p5592
(lp5593
V\ucf00\uc774\uc544\uc774\uc5d4\uc5d1\uc2a4
p5594
aVKOSDAQ:093320
p5595
ag5
asS'056700'
p5596
(lp5597
V\uc2e0\ud654\uc778\ud130\ud14d
p5598
aVKOSDAQ:056700
p5599
ag5
asS'089600'
p5600
(lp5601
V\ub098\uc2a4\ubbf8\ub514\uc5b4
p5602
aVKOSDAQ:089600
p5603
ag5
asS'009160'
p5604
(lp5605
VSIMPAC
p5606
aVKRX:009160
p5607
ag34
asS'037560'
p5608
(lp5609
VCJ\ud5ec\ub85c\ube44\uc804
p5610
aVKRX:037560
p5611
ag34
asS'032580'
p5612
(lp5613
V\ud53c\ub378\ub9ad\uc2a4
p5614
aVKOSDAQ:032580
p5615
ag5
asS'018000'
p5616
(lp5617
V\uc720\ub2c8\uc2a8
p5618
aVKOSDAQ:018000
p5619
ag5
asS'189330'
p5620
(lp5621
V\uc528\uc774\ub7a9
p5622
aFnan
ag294
asS'008490'
p5623
(lp5624
V\uc11c\ud765
p5625
aVKRX:008490
p5626
ag34
asS'096300'
p5627
(lp5628
V\ubca0\ud2b8\ub0a8\uac1c\ubc1c1
p5629
aVKRX:096300
p5630
ag34
asS'151910'
p5631
(lp5632
V\ub098\ub178\uc2a4
p5633
aVKOSDAQ:151910
p5634
ag5
asS'063160'
p5635
(lp5636
V\uc885\uadfc\ub2f9\ubc14\uc774\uc624
p5637
aVKRX:063160
p5638
ag34
asS'005800'
p5639
(lp5640
V\uc2e0\uc601\uc640\ucf54\ub8e8
p5641
aVKRX:005800
p5642
ag34
asS'086390'
p5643
(lp5644
V\uc720\ub2c8\ud14c\uc2a4\ud2b8
p5645
aVKOSDAQ:086390
p5646
ag5
asS'086520'
p5647
(lp5648
V\uc5d0\ucf54\ud504\ub85c
p5649
aVKOSDAQ:086520
p5650
ag5
asS'003620'
p5651
(lp5652
V\uc30d\uc6a9\uc790\ub3d9\ucc28
p5653
aVKRX:003620
p5654
ag34
asS'079170'
p5655
(lp5656
V\ud55c\ucc3d\uc0b0\uc5c5
p5657
aVKOSDAQ:079170
p5658
ag5
asS'114630'
p5659
(lp5660
V\uc6b0\ub178\uc564\ucef4\ud37c\ub2c8
p5661
aVKOSDAQ:114630
p5662
ag5
asS'018310'
p5663
(lp5664
V\uc0bc\ubaa9\uc5d0\uc2a4\ud3fc
p5665
aVKOSDAQ:018310
p5666
ag5
asS'057540'
p5667
(lp5668
V\uc634\ub2c8\uc2dc\uc2a4\ud15c
p5669
aVKOSDAQ:057540
p5670
ag5
asS'052710'
p5671
(lp5672
V\uc544\ubaa8\ud14d
p5673
aVKOSDAQ:052710
p5674
ag5
asS'086250'
p5675
(lp5676
V\ud654\uc2e0\ud14c\ud06c
p5677
aVKOSDAQ:086250
p5678
ag5
asS'203650'
p5679
(lp5680
V\uc2e0\ud55c\uc81c2\ud638SPAC
p5681
aVKOSDAQ:203650
p5682
ag5
asS'134380'
p5683
(lp5684
V\ubbf8\uc6d0\ud654\ud559
p5685
aVKRX:134380
p5686
ag34
asS'053620'
p5687
(lp5688
V\ud0dc\uc591
p5689
aVKOSDAQ:053620
p5690
ag5
asS'005930'
p5691
(lp5692
V\uc0bc\uc131\uc804\uc790
p5693
aVKRX:005930
p5694
ag34
asS'054930'
p5695
(lp5696
V\uc720\uc2e0
p5697
aVKOSDAQ:054930
p5698
ag5
asS'015360'
p5699
(lp5700
V\uc608\uc2a4\ucf54
p5701
aVKRX:015360
p5702
ag34
asS'191420'
p5703
(lp5704
V\ud14c\uace0\uc0ac\uc774\uc5b8\uc2a4
p5705
aVKOSDAQ:191420
p5706
ag5
asS'089150'
p5707
(lp5708
V\ucf00\uc774\uc528\ud2f0
p5709
aVKOSDAQ:089150
p5710
ag5
asS'011420'
p5711
(lp5712
VIB\uc6d4\ub4dc\uc640\uc774\ub4dc
p5713
aVKRX:011420
p5714
ag34
asS'045100'
p5715
(lp5716
V\ud55c\uc591\uc774\uc5d4\uc9c0
p5717
aVKOSDAQ:045100
p5718
ag5
asS'082640'
p5719
(lp5720
V\ub3d9\uc591\uc0dd\uba85
p5721
aVKRX:082640
p5722
ag34
asS'900130'
p5723
(lp5724
V\uc6e8\uc774\ud3ec\ud2b8
p5725
aVKOSDAQ:900130
p5726
ag5
asS'042940'
p5727
(lp5728
V\ub974\ub124\ucf54
p5729
aVKOSDAQ:042940
p5730
ag5
asS'007630'
p5731
(lp5732
V\uc9c0\uc5d0\uc2a4\uc778\uc2a4\ud2b8\ub8e8
p5733
aVKRX:007630
p5734
ag34
asS'003570'
p5735
(lp5736
VS&T\uc911\uacf5\uc5c5
p5737
aVKRX:003570
p5738
ag34
asS'023960'
p5739
(lp5740
V\uc5d0\uc4f0\uc528\uc5d4\uc9c0\ub2c8\uc5b4\ub9c1
p5741
aVKRX:023960
p5742
ag34
asS'021880'
p5743
(lp5744
V\uc528\uc5d1\uc2a4\uc528\uc885\ud569\uce90\ud53c\ud0c8
p5745
aVKOSDAQ:021880
p5746
ag5
asS'003080'
p5747
(lp5748
V\uc131\ubcf4\ud654\ud559
p5749
aVKRX:003080
p5750
ag34
asS'054620'
p5751
(lp5752
VAP\uc2dc\uc2a4\ud15c
p5753
aVKOSDAQ:054620
p5754
ag5
asS'071090'
p5755
(lp5756
V\ud558\uc774\uc2a4\ud2f8
p5757
aVKRX:071090
p5758
ag34
asS'176750'
p5759
(lp5760
V\ub4c0\ucf10\ubc14\uc774\uc624
p5761
aFnan
ag294
asS'049770'
p5762
(lp5763
V\ub3d9\uc6d0F&B
p5764
aVKRX:049770
p5765
ag34
asS'007120'
p5766
(lp5767
V\ubbf8\ub798\uc544\uc774\uc564\uc9c0
p5768
aVKRX:007120
p5769
ag34
asS'196700'
p5770
(lp5771
V\uc6f9\uc2a4
p5772
aVKOSDAQ:196700
p5773
ag5
asS'049950'
p5774
(lp5775
V\ubbf8\ub798\ucef4\ud37c\ub2c8
p5776
aVKOSDAQ:049950
p5777
ag5
asS'007700'
p5778
(lp5779
VF&F
p5780
aVKRX:007700
p5781
ag34
asS'083930'
p5782
(lp5783
V\uc544\ubc14\ucf54
p5784
aVKOSDAQ:083930
p5785
ag5
asS'006650'
p5786
(lp5787
V\ub300\ud55c\uc720\ud654
p5788
aVKRX:006650
p5789
ag34
asS'073490'
p5790
(lp5791
V\uc774\ub178\uc640\uc774\uc5b4\ub9ac\uc2a4
p5792
aVKOSDAQ:073490
p5793
ag5
asS'036570'
p5794
(lp5795
V\uc5d4\uc528\uc18c\ud504\ud2b8
p5796
aVKRX:036570
p5797
ag34
asS'039560'
p5798
(lp5799
V\ub2e4\uc0b0\ub124\ud2b8\uc6cd\uc2a4
p5800
aVKOSDAQ:039560
p5801
ag5
asS'008830'
p5802
(lp5803
V\ub300\ub3d9\uae30\uc5b4
p5804
aVKOSDAQ:008830
p5805
ag5
asS'024900'
p5806
(lp5807
V\ub355\uc591\uc0b0\uc5c5
p5808
aVKRX:024900
p5809
ag34
asS'067990'
p5810
(lp5811
V\ub3c4\uc774\uce58\ubaa8\ud130\uc2a4
p5812
aVKOSDAQ:067990
p5813
ag5
asS'036800'
p5814
(lp5815
V\ub098\uc774\uc2a4\uc815\ubcf4\ud1b5\uc2e0
p5816
aVKOSDAQ:036800
p5817
ag5
asS'019660'
p5818
(lp5819
V\ubca0\ub9ac\ud0c0\uc2a4
p5820
aVKOSDAQ:019660
p5821
ag5
asS'147830'
p5822
(lp5823
V\uc81c\ub8e1\uc0b0\uc5c5
p5824
aVKOSDAQ:147830
p5825
ag5
asS'006890'
p5826
(lp5827
V\ud0dc\uacbd\ud654\ud559
p5828
aVKRX:006890
p5829
ag34
asS'096630'
p5830
(lp5831
V\uc5d0\uc2a4\ucf54\ub125
p5832
aVKOSDAQ:096630
p5833
ag5
asS'059090'
p5834
(lp5835
V\ubbf8\ucf54
p5836
aVKOSDAQ:059090
p5837
ag5
asS'048550'
p5838
(lp5839
VSM C&C
p5840
aVKOSDAQ:048550
p5841
ag5
asS'019680'
p5842
(lp5843
V\ub300\uad50
p5844
aVKRX:019680
p5845
ag34
asS'043260'
p5846
(lp5847
V\uc131\ud638\uc804\uc790
p5848
aVKOSDAQ:043260
p5849
ag5
asS'219750'
p5850
(lp5851
V\uc9c0\ud2f0\uc9c0\uc6f0\ub2c8\uc2a4
p5852
aFnan
ag294
asS'083620'
p5853
(lp5854
V\uc544\uc2dc\uc544\ud37c\uc2dc\ud53d15\ud638
p5855
aVKRX:083620
p5856
ag34
asS'037350'
p5857
(lp5858
V\uc131\ub3c4\uc774\uc5d4\uc9c0
p5859
aVKOSDAQ:037350
p5860
ag5
asS'039490'
p5861
(lp5862
V\ud0a4\uc6c0\uc99d\uad8c
p5863
aVKRX:039490
p5864
ag34
asS'155900'
p5865
(lp5866
V\ubc14\ub2e4\ub85c19\ud638
p5867
aVKRX:155900
p5868
ag34
asS'073010'
p5869
(lp5870
V\ucf00\uc774\uc5d0\uc2a4\ud53c
p5871
aVKOSDAQ:073010
p5872
ag5
asS'073540'
p5873
(lp5874
V\uc5d0\ud504\uc54c\ud14d
p5875
aVKOSDAQ:073540
p5876
ag5
asS'033180'
p5877
(lp5878
V\ud544\ub8e9\uc2a4
p5879
aVKRX:033180
p5880
ag34
asS'006090'
p5881
(lp5882
V\uc0ac\uc870\uc624\uc591
p5883
aVKRX:006090
p5884
ag34
asS'024830'
p5885
(lp5886
V\uc138\uc6d0\ubb3c\uc0b0
p5887
aVKOSDAQ:024830
p5888
ag5
asS'003230'
p5889
(lp5890
V\uc0bc\uc591\uc2dd\ud488
p5891
aVKRX:003230
p5892
ag34
asS'024120'
p5893
(lp5894
VKB\uc624\ud1a0\uc2dc\uc2a4
p5895
aVKOSDAQ:024120
p5896
ag5
asS'016450'
p5897
(lp5898
V\ud55c\uc138\uc608\uc2a424\ud640\ub529\uc2a4
p5899
aVKRX:016450
p5900
ag34
asS'068050'
p5901
(lp5902
V\ud32c\uc5d4\ud130\ud14c\uc778\uba3c\ud2b8
p5903
aVKOSDAQ:068050
p5904
ag5
asS'001820'
p5905
(lp5906
V\uc0bc\ud654\ucf58\ub374\uc11c\uacf5\uc5c5
p5907
aVKRX:001820
p5908
ag34
asS'084010'
p5909
(lp5910
V\ub300\ud55c\uc81c\uac15
p5911
aVKRX:084010
p5912
ag34
asS'002020'
p5913
(lp5914
V\ucf54\uc624\ub871
p5915
aVKRX:002020
p5916
ag34
asS'069260'
p5917
(lp5918
V\ud734\ucf10\uc2a4
p5919
aVKRX:069260
p5920
ag34
asS'001000'
p5921
(lp5922
V\uc2e0\ub77c\uc12c\uc720
p5923
aVKOSDAQ:001000
p5924
ag5
asS'033230'
p5925
(lp5926
V\uc778\uc131\uc815\ubcf4
p5927
aVKOSDAQ:033230
p5928
ag5
asS'013000'
p5929
(lp5930
V\uc138\uc6b0\uae00\ub85c\ubc8c
p5931
aVKRX:013000
p5932
ag34
asS'069460'
p5933
(lp5934
V\ub300\ud638\uc5d0\uc774\uc5d8
p5935
aVKRX:069460
p5936
ag34
asS'006380'
p5937
(lp5938
V\uce74\ud504\ub85c
p5939
aVKRX:006380
p5940
ag34
asS'040420'
p5941
(lp5942
V\uc815\uc0c1\uc81c\uc774\uc5d8\uc5d0\uc2a4
p5943
aVKOSDAQ:040420
p5944
ag5
asS'027050'
p5945
(lp5946
V\ucf54\ub9ac\uc544\ub098
p5947
aVKOSDAQ:027050
p5948
ag5
asS'000990'
p5949
(lp5950
V\ub3d9\ubd80\ud558\uc774\ud14d
p5951
aVKRX:000990
p5952
ag34
asS'094820'
p5953
(lp5954
V\uc77c\uc9c4\ud30c\uc6cc
p5955
aVKOSDAQ:094820
p5956
ag5
asS'159580'
p5957
(lp5958
V\uc81c\ub85c\ud22c\uc138\ube10
p5959
aVKOSDAQ:159580
p5960
ag5
asS'000440'
p5961
(lp5962
V\uc911\uc559\uc5d0\ub108\ube44\uc2a4
p5963
aVKOSDAQ:000440
p5964
ag5
asS'002620'
p5965
(lp5966
V\uc81c\uc77c\uc57d\ud488
p5967
aVKRX:002620
p5968
ag34
asS'030610'
p5969
(lp5970
V\uad50\ubcf4\uc99d\uad8c
p5971
aVKRX:030610
p5972
ag34
asS'196450'
p5973
(lp5974
V\ucc28\ub514\uc624\uc2a4\ud14d
p5975
aVKOSDAQ:196450
p5976
ag5
asS'001130'
p5977
(lp5978
V\ub300\ud55c\uc81c\ubd84
p5979
aVKRX:001130
p5980
ag34
asS'039030'
p5981
(lp5982
V\uc774\uc624\ud14c\ud06c\ub2c9\uc2a4
p5983
aVKOSDAQ:039030
p5984
ag5
asS'033050'
p5985
(lp5986
V\uc81c\uc774\uc5e0\uc544\uc774
p5987
aVKOSDAQ:033050
p5988
ag5
asS'111870'
p5989
(lp5990
V\uc0bc\ubcf8\uc815\ubc00\uc804\uc790
p5991
aVKOSDAQ:111870
p5992
ag5
asS'178780'
p5993
(lp5994
V\uc720\ud14c\ud06c
p5995
aVKOSDAQ:178780
p5996
ag5
asS'060150'
p5997
(lp5998
V\uc778\uc120\uc774\uc5d4\ud2f0
p5999
aVKOSDAQ:060150
p6000
ag5
asS'041910'
p6001
(lp6002
V\uc5d0\uc2a4\ud14d\ud30c\ub9c8
p6003
aVKOSDAQ:041910
p6004
ag5
asS'082390'
p6005
(lp6006
V\ud53c\uc5d8\uc5d0\uc774
p6007
aVKOSDAQ:082390
p6008
ag5
asS'010100'
p6009
(lp6010
V\ud55c\uad6d\ud504\ub79c\uc9c0\uacf5\uc5c5
p6011
aVKRX:010100
p6012
ag34
asS'014570'
p6013
(lp6014
V\uace0\ub824\uc81c\uc57d
p6015
aVKOSDAQ:014570
p6016
ag5
asS'030520'
p6017
(lp6018
V\ud55c\uae00\uacfc\ucef4\ud4e8\ud130
p6019
aVKOSDAQ:030520
p6020
ag5
asS'075130'
p6021
(lp6022
V\ud50c\ub79c\ud2f0\ub137
p6023
aVKOSDAQ:075130
p6024
ag5
asS'000660'
p6025
(lp6026
VSK\ud558\uc774\ub2c9\uc2a4
p6027
aVKRX:000660
p6028
ag34
asS'083380'
p6029
(lp6030
V\ub3d9\ubd81\uc54413\ud638\uc120\ubc15\ud22c\uc790
p6031
aVKRX:083380
p6032
ag34
asS'204990'
p6033
(lp6034
V\ud604\uc131\ubc14\uc774\ud0c8
p6035
aFnan
ag294
asS'005010'
p6036
(lp6037
V\ud734\uc2a4\ud2f8
p6038
aVKRX:005010
p6039
ag34
asS'064520'
p6040
(lp6041
V\ubc14\ub978\uc804\uc790
p6042
aVKOSDAQ:064520
p6043
ag5
asS'028100'
p6044
(lp6045
V\ub3d9\uc544\uc9c0\uc9c8
p6046
aVKRX:028100
p6047
ag34
asS'193250'
p6048
(lp6049
V\uc601\ubc31\uc528\uc5e0
p6050
aVKOSDAQ:193250
p6051
ag5
asS'117930'
p6052
(lp6053
V\ud55c\uc9c4\ud574\uc6b4
p6054
aVKRX:117930
p6055
ag34
asS'154030'
p6056
(lp6057
V\uc544\uc2dc\uc544\uc885\ubb18
p6058
aFnan
ag294
asS'180400'
p6059
(lp6060
V\uc5e0\uc9c0\uba54\ub4dc
p6061
aFnan
ag294
asS'008900'
p6062
(lp6063
V\ud2f0\uc774\uc528\ucf54
p6064
aVKRX:008900
p6065
ag34
asS'051380'
p6066
(lp6067
V\ud53c\uc528\ub514\ub809\ud2b8
p6068
aVKOSDAQ:051380
p6069
ag5
asS'011210'
p6070
(lp6071
V\ud604\ub300\uc704\uc544
p6072
aVKRX:011210
p6073
ag34
asS'005720'
p6074
(lp6075
V\ub125\uc13c
p6076
aVKRX:005720
p6077
ag34
asS'063570'
p6078
(lp6079
V\ud55c\uad6d\uc804\uc790\uae08\uc735
p6080
aVKOSDAQ:063570
p6081
ag5
asS'032860'
p6082
(lp6083
V\uc2a4\ud2f8\uc564\ub9ac\uc18c\uc2dc\uc988
p6084
aVKOSDAQ:032860
p6085
ag5
asS'000060'
p6086
(lp6087
V\uba54\ub9ac\uce20\ud654\uc7ac
p6088
aVKRX:000060
p6089
ag34
asS'026890'
p6090
(lp6091
V\ub514\ud53c\uc528
p6092
aVKRX:026890
p6093
ag34
asS'030960'
p6094
(lp6095
V\uc591\uc9c0\uc0ac
p6096
aVKOSDAQ:030960
p6097
ag5
asS'111820'
p6098
(lp6099
V\ucc98\uc74c\uc564\uc528
p6100
aVKOSDAQ:111820
p6101
ag5
asS'028040'
p6102
(lp6103
V\ud30c\uce94OPC
p6104
aVKOSDAQ:028040
p6105
ag5
asS'172580'
p6106
(lp6107
V\ud558\uc774\uace8\ub4dc12\ud638
p6108
aVKRX:172580
p6109
ag34
asS'079000'
p6110
(lp6111
V\uc640\ud1a0\uc2a4\ucf54\ub9ac\uc544
p6112
aVKOSDAQ:079000
p6113
ag5
asS'070300'
p6114
(lp6115
V\uc194\ub77c\uc2dc\uc544
p6116
aVKOSDAQ:070300
p6117
ag5
asS'014790'
p6118
(lp6119
V\ud55c\ub77c
p6120
aVKRX:014790
p6121
ag34
asS'052270'
p6122
(lp6123
V\uc6b0\uc804\uc564\ud55c\ub2e8
p6124
aVKOSDAQ:052270
p6125
ag5
asS'014970'
p6126
(lp6127
V\uc0bc\ub96d\ubb3c\uc0b0
p6128
aVKOSDAQ:014970
p6129
ag5
asS'012630'
p6130
(lp6131
V\ud604\ub300\uc0b0\uc5c5\uac1c\ubc1c
p6132
aVKRX:012630
p6133
ag34
asS'023590'
p6134
(lp6135
V\ub2e4\uc6b0\uae30\uc220
p6136
aVKRX:023590
p6137
ag34
asS'005830'
p6138
(lp6139
V\ub3d9\ubd80\ud654\uc7ac\ud574\uc0c1\ubcf4\ud5d8
p6140
aVKRX:005830
p6141
ag34
asS'004830'
p6142
(lp6143
V\ub355\uc131
p6144
aVKRX:004830
p6145
ag34
asS'089010'
p6146
(lp6147
V\ucf10\ud2b8\ub85c\ub2c9\uc2a4
p6148
aVKOSDAQ:089010
p6149
ag5
asS'093230'
p6150
(lp6151
V\uc774\uc544\uc774\ub514
p6152
aVKRX:093230
p6153
ag34
asS'063170'
p6154
(lp6155
V\uc11c\uc6b8\uc625\uc158
p6156
aVKOSDAQ:063170
p6157
ag5
asS'011500'
p6158
(lp6159
V\ud55c\ub18d\ud654\uc131
p6160
aVKRX:011500
p6161
ag34
asS'086670'
p6162
(lp6163
V\ube44\uc5e0\ud2f0
p6164
aVKOSDAQ:086670
p6165
ag5
asS'128820'
p6166
(lp6167
V\ub300\uc131\uc0b0\uc5c5
p6168
aVKRX:128820
p6169
ag34
asS'018670'
p6170
(lp6171
VSK\uac00\uc2a4
p6172
aVKRX:018670
p6173
ag34
asS'056000'
p6174
(lp6175
V\ucf54\uc6d0
p6176
aVKOSDAQ:056000
p6177
ag5
asS'083360'
p6178
(lp6179
V\ub3d9\ubd81\uc54411\ud638\uc120\ubc15\ud22c\uc790
p6180
aVKRX:083360
p6181
ag34
asS'007860'
p6182
(lp6183
V\uc11c\uc5f0
p6184
aVKRX:007860
p6185
ag34
asS'221800'
p6186
(lp6187
V\uc720\ud22c\ubc14\uc774\uc624
p6188
aFnan
ag294
asS'015350'
p6189
(lp6190
V\ubd80\uc0b0\ub3c4\uc2dc\uac00\uc2a4
p6191
aVKRX:015350
p6192
ag34
asS'032280'
p6193
(lp6194
V\uc0bc\uc77c
p6195
aVKOSDAQ:032280
p6196
ag5
asS'004740'
p6197
(lp6198
V\ubcf4\ub8e8\ub124\uc624\uac00\uad6c
p6199
aVKRX:004740
p6200
ag34
asS'141080'
p6201
(lp6202
V\ub808\uace0\ucf10\ubc14\uc774\uc624
p6203
aVKOSDAQ:141080
p6204
ag5
asS'067310'
p6205
(lp6206
V\ud558\ub098\ub9c8\uc774\ud06c\ub860
p6207
aVKOSDAQ:067310
p6208
ag5
asS'067290'
p6209
(lp6210
VJW\uc911\uc678\uc2e0\uc57d
p6211
aVKOSDAQ:067290
p6212
ag5
asS'119500'
p6213
(lp6214
V\ud3ec\uba54\ud0c8
p6215
aVKOSDAQ:119500
p6216
ag5
asS'900100'
p6217
(lp6218
V\ub274\ud504\ub77c\uc774\ub4dc
p6219
aVKOSDAQ:900100
p6220
ag5
asS'078780'
p6221
(lp6222
V\uc544\uc774\ub514\uc5d0\uc2a4
p6223
aVKOSDAQ:078780
p6224
ag5
asS'008020'
p6225
(lp6226
V\uacbd\ub0a8\uc5d0\ub108\uc9c0
p6227
aVKRX:008020
p6228
ag34
asS'053700'
p6229
(lp6230
V\uc0bc\ubcf4\ubaa8\ud130\uc2a4
p6231
aVKOSDAQ:053700
p6232
ag5
asS'035480'
p6233
(lp6234
V\ub9c8\uc81c\uc2a4\ud0c0
p6235
aVKOSDAQ:035480
p6236
ag5
asS'025560'
p6237
(lp6238
V\ubbf8\ub798\uc0b0\uc5c5
p6239
aVKRX:025560
p6240
ag34
asS'153360'
p6241
(lp6242
V\ud558\uc774\uace8\ub4dc3\ud638
p6243
aVKRX:153360
p6244
ag34
asS'199800'
p6245
(lp6246
V\ud234\uc820
p6247
aFnan
ag294
asS'001620'
p6248
(lp6249
V\ub3d9\uad6d\uc2e4\uc5c5
p6250
aVKRX:001620
p6251
ag34
asS'079160'
p6252
(lp6253
VCJ CGV
p6254
aVKRX:079160
p6255
ag34
asS'066270'
p6256
(lp6257
VSK\ucef4\uc988
p6258
aVKOSDAQ:066270
p6259
ag5
asS'013580'
p6260
(lp6261
V\uacc4\ub8e1\uac74\uc124\uc0b0\uc5c5
p6262
aVKRX:013580
p6263
ag34
asS'089230'
p6264
(lp6265
V\uc6a9\ud604BM
p6266
aVKOSDAQ:089230
p6267
ag5
asS'161390'
p6268
(lp6269
V\ud55c\uad6d\ud0c0\uc774\uc5b4
p6270
aVKRX:161390
p6271
ag34
asS'081000'
p6272
(lp6273
V\uc77c\uc9c4\ub2e4\uc774\uc544
p6274
aVKRX:081000
p6275
ag34
asS'002960'
p6276
(lp6277
V\ud55c\uad6d\uc258\uc11d\uc720
p6278
aVKRX:002960
p6279
ag34
asS'080530'
p6280
(lp6281
V\ucf54\ub514\uc5d0\uc2a4
p6282
aVKOSDAQ:080530
p6283
ag5
asS'025750'
p6284
(lp6285
V\ud55c\uc194\ud648\ub370\ucf54
p6286
aVKRX:025750
p6287
ag34
asS'032040'
p6288
(lp6289
VC&S\uc790\uc0b0\uad00\ub9ac
p6290
aVKOSDAQ:032040
p6291
ag5
asS'096530'
p6292
(lp6293
V\uc528\uc820
p6294
aVKOSDAQ:096530
p6295
ag5
asS'003160'
p6296
(lp6297
V\ub514\uc544\uc774
p6298
aVKRX:003160
p6299
ag34
asS'054540'
p6300
(lp6301
V\uc0bc\uc601\uc5e0\ud14d
p6302
aVKOSDAQ:054540
p6303
ag5
asS'049430'
p6304
(lp6305
V\ucf54\uba54\ub860
p6306
aVKOSDAQ:049430
p6307
ag5
asS'006660'
p6308
(lp6309
V\uc0bc\uc131\uacf5\uc870
p6310
aVKRX:006660
p6311
ag34
asS'002360'
p6312
(lp6313
VSH\uc5d0\ub108\uc9c0\ud654\ud559
p6314
aVKRX:002360
p6315
ag34
asS'058400'
p6316
(lp6317
VKNN
p6318
aVKOSDAQ:058400
p6319
ag5
asS'045060'
p6320
(lp6321
V\uc624\uacf5
p6322
aVKOSDAQ:045060
p6323
ag5
asS'012160'
p6324
(lp6325
V\uc601\ud765\ucca0\uac15
p6326
aVKRX:012160
p6327
ag34
asS'007390'
p6328
(lp6329
V\ub124\uc774\ucc98\uc140
p6330
aVKOSDAQ:007390
p6331
ag5
asS'098460'
p6332
(lp6333
V\uace0\uc601
p6334
aVKOSDAQ:098460
p6335
ag5
asS'054090'
p6336
(lp6337
V\uc0bc\uc9c4\uc5d8\uc564\ub514
p6338
aVKOSDAQ:054090
p6339
ag5
asS'112610'
p6340
(lp6341
V\uc528\uc5d0\uc2a4\uc708\ub4dc
p6342
aVKRX:112610
p6343
ag34
asS'066670'
p6344
(lp6345
V\ub514\uc2a4\ud50c\ub808\uc774\ud14d
p6346
aVKOSDAQ:066670
p6347
ag5
asS'079430'
p6348
(lp6349
V\ud604\ub300\ub9ac\ubc14\ud2b8
p6350
aVKRX:079430
p6351
ag34
asS'102120'
p6352
(lp6353
V\uc5b4\ubcf4\ube0c\ubc18\ub3c4\uccb4
p6354
aVKOSDAQ:102120
p6355
ag5
asS'189980'
p6356
(lp6357
V\ud765\uad6d\uc5d0\ud504\uc5d4\ube44
p6358
aVKOSDAQ:189980
p6359
ag5
asS'001720'
p6360
(lp6361
V\uc2e0\uc601\uc99d\uad8c
p6362
aVKRX:001720
p6363
ag34
asS'123040'
p6364
(lp6365
V\uc5e0\uc5d0\uc2a4\uc624\ud1a0\ud14d
p6366
aVKOSDAQ:123040
p6367
ag5
asS'002100'
p6368
(lp6369
V\uacbd\ub18d
p6370
aVKRX:002100
p6371
ag34
asS'037340'
p6372
(lp6373
V\ub124\uc624\uc774\ub179\uc2a4\uc5d4\ubaa8\ud06c\uc2a4
p6374
aVKOSDAQ:037340
p6375
ag5
asS'038390'
p6376
(lp6377
V\ub808\ub4dc\ucea1\ud22c\uc5b4
p6378
aVKOSDAQ:038390
p6379
ag5
asS'094170'
p6380
(lp6381
V\ub3d9\uc6b4\uc544\ub098\ud14d
p6382
aVKOSDAQ:094170
p6383
ag5
asS'099190'
p6384
(lp6385
V\uc544\uc774\uc13c\uc2a4
p6386
aVKOSDAQ:099190
p6387
ag5
asS'041140'
p6388
(lp6389
V\ub125\uc2a8\uc9c0\ud2f0
p6390
aVKOSDAQ:041140
p6391
ag5
asS'069730'
p6392
(lp6393
VDSR\uc81c\uac15
p6394
aVKRX:069730
p6395
ag34
asS'002290'
p6396
(lp6397
V\uc0bc\uc77c\uae30\uc5c5\uacf5\uc0ac
p6398
aVKOSDAQ:002290
p6399
ag5
asS'094480'
p6400
(lp6401
V\uac24\ub7ed\uc2dc\uc544\ucef4\uc988
p6402
aVKOSDAQ:094480
p6403
ag5
asS'073570'
p6404
(lp6405
V\uc5d0\uc774\ud2f0\ud14c\ud06c\ub180\ub7ec\uc9c0
p6406
aVKOSDAQ:073570
p6407
ag5
asS'025530'
p6408
(lp6409
V\uc5d0\uc2a4\uc81c\uc774\uc5e0\ud640\ub529\uc2a4
p6410
aVKRX:025530
p6411
ag34
asS'123570'
p6412
(lp6413
V\uc774\uc5e0\ub137
p6414
aVKOSDAQ:123570
p6415
ag5
asS'048430'
p6416
(lp6417
V\uc720\ub77c\ud14c\ud06c
p6418
aVKOSDAQ:048430
p6419
ag5
asS'024800'
p6420
(lp6421
V\uc720\uc131\ud2f0\uc5d4\uc5d0\uc2a4
p6422
aVKOSDAQ:024800
p6423
ag5
asS'019210'
p6424
(lp6425
V\uc640\uc774\uc9c0-\uc6d0
p6426
aVKOSDAQ:019210
p6427
ag5
asS'040160'
p6428
(lp6429
V\ub204\ub9ac\ud154\ub808\ucf64
p6430
aVKOSDAQ:040160
p6431
ag5
asS'000520'
p6432
(lp6433
V\uc0bc\uc77c\uc81c\uc57d
p6434
aVKRX:000520
p6435
ag34
asS'021320'
p6436
(lp6437
VKCC\uac74\uc124
p6438
aVKOSDAQ:021320
p6439
ag5
asS'006280'
p6440
(lp6441
V\ub179\uc2ed\uc790
p6442
aVKRX:006280
p6443
ag34
asS'006040'
p6444
(lp6445
V\ub3d9\uc6d0\uc0b0\uc5c5
p6446
aVKRX:006040
p6447
ag34
asS'002030'
p6448
(lp6449
V\uc544\uc138\uc544
p6450
aVKRX:002030
p6451
ag34
asS'037230'
p6452
(lp6453
V\ud55c\uad6d\ud329\ud0a4\uc9c0
p6454
aVKOSDAQ:037230
p6455
ag5
asS'004590'
p6456
(lp6457
V\ud55c\uad6d\uac00\uad6c
p6458
aVKOSDAQ:004590
p6459
ag5
asS'060560'
p6460
(lp6461
V\ud648\uc13c\ud0c0
p6462
aVKOSDAQ:060560
p6463
ag5
asS'122350'
p6464
(lp6465
V\uc0bc\uae30\uc624\ud1a0\ubaa8\ud2f0\ube0c
p6466
aVKOSDAQ:122350
p6467
ag5
asS'054940'
p6468
(lp6469
V\uc5d1\uc0ac\uc774\uc5d4\uc528
p6470
aVKOSDAQ:054940
p6471
ag5
asS'109960'
p6472
(lp6473
V\ub85c\ucf54\uc870\uc774
p6474
aVKOSDAQ:109960
p6475
ag5
asS'066700'
p6476
(lp6477
V\ud14c\ub77c\uc820\uc774\ud14d\uc2a4
p6478
aVKOSDAQ:066700
p6479
ag5
asS'006910'
p6480
(lp6481
V\ubcf4\uc131\ud30c\uc6cc\ud14d
p6482
aVKOSDAQ:006910
p6483
ag5
asS'040300'
p6484
(lp6485
VYTN
p6486
aVKOSDAQ:040300
p6487
ag5
asS'087730'
p6488
(lp6489
V\ub124\ud328\uc2a4\uc2e0\uc18c\uc7ac
p6490
aVKOSDAQ:087730
p6491
ag5
asS'017000'
p6492
(lp6493
V\uc2e0\uc6d0\uc885\ud569\uac1c\ubc1c
p6494
aVKOSDAQ:017000
p6495
ag5
asS'083420'
p6496
(lp6497
VKPX\uadf8\ub9b0\ucf00\ubbf8\uce7c
p6498
aVKRX:083420
p6499
ag34
asS'078140'
p6500
(lp6501
V\ub300\ubd09\uc5d8\uc5d0\uc2a4
p6502
aVKOSDAQ:078140
p6503
ag5
asS'001450'
p6504
(lp6505
V\ud604\ub300\ud574\uc0c1
p6506
aVKRX:001450
p6507
ag34
asS'024060'
p6508
(lp6509
V\ud765\uad6c\uc11d\uc720
p6510
aVKOSDAQ:024060
p6511
ag5
asS'080420'
p6512
(lp6513
V\uc774\ub178\uce69
p6514
aVKOSDAQ:080420
p6515
ag5
asS'108380'
p6516
(lp6517
V\ub300\uc591\uc804\uae30\uacf5\uc5c5
p6518
aVKOSDAQ:108380
p6519
ag5
asS'079940'
p6520
(lp6521
V\uac00\ube44\uc544
p6522
aVKOSDAQ:079940
p6523
ag5
asS'030350'
p6524
(lp6525
V\ub4dc\ub798\uace4\ud50c\ub77c\uc774
p6526
aVKOSDAQ:030350
p6527
ag5
asS'025820'
p6528
(lp6529
V\uc774\uad6c\uc0b0\uc5c5
p6530
aVKRX:025820
p6531
ag34
asS'010660'
p6532
(lp6533
V\ud654\ucc9c\uae30\uacc4
p6534
aVKRX:010660
p6535
ag34
asS'084730'
p6536
(lp6537
V\ud305\ud06c\uc6e8\uc5b4
p6538
aVKOSDAQ:084730
p6539
ag5
asS'092630'
p6540
(lp6541
V\ubc14\ub2e4\ub85c3\ud638
p6542
aVKRX:092630
p6543
ag34
asS'194610'
p6544
(lp6545
V\uc6b0\uc131\uc544\uc774\ube44
p6546
aVKOSDAQ:194610
p6547
ag5
asS'002630'
p6548
(lp6549
V\uc624\ub9ac\uc5d4\ud2b8\ubc14\uc774\uc624
p6550
aVKRX:002630
p6551
ag34
asS'000850'
p6552
(lp6553
V\ud654\ucc9c\uae30\uacf5
p6554
aVKRX:000850
p6555
ag34
asS'030190'
p6556
(lp6557
VNICE\ud3c9\uac00\uc815\ubcf4
p6558
aVKOSDAQ:030190
p6559
ag5
asS'143540'
p6560
(lp6561
V\uc601\uc6b0\ub514\uc5d0\uc2a4\ud53c
p6562
aVKOSDAQ:143540
p6563
ag5
asS'122870'
p6564
(lp6565
V\uc640\uc774\uc9c0\uc5d4\ud130\ud14c\uc778\uba3c\ud2b8
p6566
aVKOSDAQ:122870
p6567
ag5
asS'060230'
p6568
(lp6569
V\uc774\uadf8\uc7ad\uc2a4
p6570
aVKOSDAQ:060230
p6571
ag5
asS'225220'
p6572
(lp6573
V\uc81c\ub180\ub8e8\uc158
p6574
aFnan
ag294
asS'041960'
p6575
(lp6576
V\ucf54\ubbf8\ud31c
p6577
aVKOSDAQ:041960
p6578
ag5
asS'036220'
p6579
(lp6580
V\uc778\ud3ec\ud53c\uc544
p6581
aVKOSDAQ:036220
p6582
ag5
asS'065420'
p6583
(lp6584
V\uc5d0\uc2a4\uc544\uc774\ub9ac\uc18c\uc2a4
p6585
aVKOSDAQ:065420
p6586
ag5
asS'170790'
p6587
(lp6588
V\ud30c\uc774\uc624\ub9c1\ud06c
p6589
aVKOSDAQ:170790
p6590
ag5
asS'000180'
p6591
(lp6592
V\uc131\ucc3d\uae30\uc5c5\uc9c0\uc8fc
p6593
aVKRX:000180
p6594
ag34
asS'014160'
p6595
(lp6596
V\ub300\uc601\ud3ec\uc7a5
p6597
aVKRX:014160
p6598
ag34
asS'078860'
p6599
(lp6600
V\ud3ec\uc778\ud2b8\uc544\uc774
p6601
aVKOSDAQ:078860
p6602
ag5
asS'024660'
p6603
(lp6604
V\ud558\ub9bc\ud640\ub529\uc2a4
p6605
aVKOSDAQ:024660
p6606
ag5
asS'017480'
p6607
(lp6608
V\uc0bc\ud604\ucca0\uac15
p6609
aVKOSDAQ:017480
p6610
ag5
asS'000670'
p6611
(lp6612
V\uc601\ud48d
p6613
aVKRX:000670
p6614
ag34
asS'083390'
p6615
(lp6616
V\ub3d9\ubd81\uc54414\ud638\uc120\ubc15\ud22c\uc790
p6617
aVKRX:083390
p6618
ag34
asS'009540'
p6619
(lp6620
V\ud604\ub300\uc911\uacf5\uc5c5
p6621
aVKRX:009540
p6622
ag34
asS'001210'
p6623
(lp6624
V\uae08\ud638\uc804\uae30
p6625
aVKRX:001210
p6626
ag34
asS'103230'
p6627
(lp6628
V\uc5d0\uc2a4\uc564\ub354\ube14\ub958
p6629
aVKOSDAQ:103230
p6630
ag5
asS'091440'
p6631
(lp6632
V\ud154\ub808\ud544\ub4dc
p6633
aVKOSDAQ:091440
p6634
ag5
asS'078940'
p6635
(lp6636
V\uc77c\uacbd\uc0b0\uc5c5\uac1c\ubc1c
p6637
aVKOSDAQ:078940
p6638
ag5
asS'083550'
p6639
(lp6640
V\ucf00\uc774\uc5e0
p6641
aVKOSDAQ:083550
p6642
ag5
asS'010060'
p6643
(lp6644
VOCI
p6645
aVKRX:010060
p6646
ag34
asS'071950'
p6647
(lp6648
V\ucf54\uc544\uc2a4
p6649
aVKRX:071950
p6650
ag34
asS'015760'
p6651
(lp6652
V\ud55c\uad6d\uc804\ub825\uacf5\uc0ac
p6653
aVKRX:015760
p6654
ag34
asS'149950'
p6655
(lp6656
V\uc544\ubc14\ud14d
p6657
aVKOSDAQ:149950
p6658
ag5
asS'008700'
p6659
(lp6660
V\uc544\ub0a8\uc804\uc790
p6661
aVKRX:008700
p6662
ag34
asS'000070'
p6663
(lp6664
V\uc0bc\uc591\ud640\ub529\uc2a4
p6665
aVKRX:000070
p6666
ag34
asS'028050'
p6667
(lp6668
V\uc0bc\uc131\uc5d4\uc9c0\ub2c8\uc5b4\ub9c1
p6669
aVKRX:028050
p6670
ag34
asS'046120'
p6671
(lp6672
V\uc624\ub974\ube44\ud14d
p6673
aVKOSDAQ:046120
p6674
ag5
asS'032850'
p6675
(lp6676
V\ube44\ud2b8\ucef4\ud4e8\ud130
p6677
aVKOSDAQ:032850
p6678
ag5
asS'086060'
p6679
(lp6680
V\uc9c4\ubc14\uc774\uc624\ud14d
p6681
aVKOSDAQ:086060
p6682
ag5
asS'072950'
p6683
(lp6684
V\ube5b\uc0d8\uc804\uc790
p6685
aVKOSDAQ:072950
p6686
ag5
asS'052460'
p6687
(lp6688
V\uc544\uc774\ud06c\ub798\ud504\ud2b8
p6689
aVKOSDAQ:052460
p6690
ag5
asS'031390'
p6691
(lp6692
V\ub179\uc2ed\uc790\uc140
p6693
aVKOSDAQ:031390
p6694
ag5
asS'187220'
p6695
(lp6696
V\ub514\ud2f0\uc564\uc528
p6697
aVKOSDAQ:187220
p6698
ag5
asS'086460'
p6699
(lp6700
V\uc5d0\uc2a4\uc5d4\ud53c\uc81c\ub124\ud2f1\uc2a4
p6701
aFnan
ag294
asS'220180'
p6702
(lp6703
V\ud578\ub514\uc18c\ud504\ud2b8
p6704
aFnan
ag294
asS'009140'
p6705
(lp6706
V\uacbd\uc778\uc804\uc790
p6707
aVKRX:009140
p6708
ag34
asS'069140'
p6709
(lp6710
V\ub204\ub9ac\ud50c\ub79c
p6711
aVKOSDAQ:069140
p6712
ag5
asS'052260'
p6713
(lp6714
V\ubc14\uc774\uc624\ub79c\ub4dc
p6715
aVKOSDAQ:052260
p6716
ag5
asS'012620'
p6717
(lp6718
V\uc6d0\uc77c\ud2b9\uac15
p6719
aVKOSDAQ:012620
p6720
ag5
asS'005820'
p6721
(lp6722
V\uc6d0\ub9bc
p6723
aVKRX:005820
p6724
ag34
asS'011080'
p6725
(lp6726
V\uc6b0\uc131I&C
p6727
aVKOSDAQ:011080
p6728
ag5
asS'014580'
p6729
(lp6730
V\ubc31\uad11\uc18c\uc7ac
p6731
aVKRX:014580
p6732
ag34
asS'017890'
p6733
(lp6734
V\ud55c\uad6d\uc54c\ucf5c
p6735
aVKOSDAQ:017890
p6736
ag5
asS'031510'
p6737
(lp6738
V\uc624\uc2a4\ud15c
p6739
aVKOSDAQ:031510
p6740
ag5
asS'130660'
p6741
(lp6742
V\ud55c\uc804\uc0b0\uc5c5
p6743
aVKRX:130660
p6744
ag34
asS'023160'
p6745
(lp6746
V\ud0dc\uad11
p6747
aVKOSDAQ:023160
p6748
ag5
asS'035250'
p6749
(lp6750
V\uac15\uc6d0\ub79c\ub4dc
p6751
aVKRX:035250
p6752
ag34
asS'131220'
p6753
(lp6754
V\ub300\ud55c\uacfc\ud559
p6755
aVKOSDAQ:131220
p6756
ag5
asS'057030'
p6757
(lp6758
VYBM\uc2dc\uc0ac\ub2f7\ucef4
p6759
aVKOSDAQ:057030
p6760
ag5
asS'161890'
p6761
(lp6762
V\ud55c\uad6d\ucf5c\ub9c8
p6763
aVKRX:161890
p6764
ag34
asS'052790'
p6765
(lp6766
V\uc561\ud1a0\uc988\uc18c\ud504\ud2b8
p6767
aVKOSDAQ:052790
p6768
ag5
asS'064260'
p6769
(lp6770
V\ub2e4\ub0a0
p6771
aVKOSDAQ:064260
p6772
ag5
asS'083370'
p6773
(lp6774
V\ub3d9\ubd81\uc54412\ud638\uc120\ubc15\ud22c\uc790
p6775
aVKRX:083370
p6776
ag34
asS'004170'
p6777
(lp6778
V\uc2e0\uc138\uacc4
p6779
aVKRX:004170
p6780
ag34
asS'049080'
p6781
(lp6782
V\uae30\uac00\ub808\uc778
p6783
aVKOSDAQ:049080
p6784
ag5
asS'215090'
p6785
(lp6786
V\uc720\uc9c4\uc5d0\uc774\uc528\ud53c\uc528\uc2a4\ud3292\ud638
p6787
aVKOSDAQ:215090
p6788
ag5
asS'031820'
p6789
(lp6790
V\ucf64\ud14d\uc2dc\uc2a4\ud15c
p6791
aVKRX:031820
p6792
ag34
asS'054950'
p6793
(lp6794
V\uc81c\uc774\ube0c\uc774\uc5e0
p6795
aVKOSDAQ:054950
p6796
ag5
asS'036120'
p6797
(lp6798
V\uc11c\uc6b8\uc2e0\uc6a9\ud3c9\uac00
p6799
aVKOSDAQ:036120
p6800
ag5
asS'219960'
p6801
(lp6802
V\uc720\uc548\ud0c0\uc81c2\ud638\uc2a4\ud329
p6803
aVKOSDAQ:219960
p6804
ag5
asS'011150'
p6805
(lp6806
VCJ\uc528\ud478\ub4dc
p6807
aVKRX:011150
p6808
ag34
asS'067280'
p6809
(lp6810
V\ud06c\ub808\ub4c0
p6811
aVKOSDAQ:067280
p6812
ag5
asS'012750'
p6813
(lp6814
V\uc5d0\uc2a4\uc6d0
p6815
aVKRX:012750
p6816
ag34
asS'046940'
p6817
(lp6818
V\uc6b0\uc6d0\uac1c\ubc1c
p6819
aVKOSDAQ:046940
p6820
ag5
asS'900110'
p6821
(lp6822
V\uc774\uc2a4\ud2b8\uc544\uc2dc\uc544\ud640\ub529\uc2a4
p6823
aVKOSDAQ:900110
p6824
ag5
asS'086280'
p6825
(lp6826
V\ud604\ub300\uae00\ub85c\ube44\uc2a4
p6827
aVKRX:086280
p6828
ag34
asS'053280'
p6829
(lp6830
V\uc608\uc2a424
p6831
aVKOSDAQ:053280
p6832
ag5
asS'122640'
p6833
(lp6834
V\uc608\uc2a4\ud2f0
p6835
aFnan
ag294
asS'104040'
p6836
(lp6837
V\ub300\uc131\ud30c\uc778\ud14d
p6838
aVKOSDAQ:104040
p6839
ag5
asS'023760'
p6840
(lp6841
V\ud55c\uad6d\uce90\ud53c\ud0c8
p6842
aVKOSDAQ:023760
p6843
ag5
asS'023410'
p6844
(lp6845
V\uc720\uc9c4\uae30\uc5c5
p6846
aVKOSDAQ:023410
p6847
ag5
asS'012280'
p6848
(lp6849
V\uc601\ud654\uae08\uc18d
p6850
aVKRX:012280
p6851
ag34
asS'069920'
p6852
(lp6853
V\uc544\uc774\uc5d0\uc2a4\uc774\ucee4\uba38\uc2a4
p6854
aVKOSDAQ:069920
p6855
ag5
asS'013570'
p6856
(lp6857
V\ub514\uc640\uc774
p6858
aVKRX:013570
p6859
ag34
asS'015230'
p6860
(lp6861
V\ub300\ucc3d\ub2e8\uc870
p6862
aVKRX:015230
p6863
ag34
asS'036630'
p6864
(lp6865
V\uc138\uc885\ud154\ub808\ucf64
p6866
aVKOSDAQ:036630
p6867
ag5
asS'138490'
p6868
(lp6869
V\ucf54\uc624\ub871\ud50c\ub77c\uc2a4\ud2f1
p6870
aVKRX:138490
p6871
ag34
asS'080520'
p6872
(lp6873
V\uc624\ub514\ud14d
p6874
aVKOSDAQ:080520
p6875
ag5
asS'102260'
p6876
(lp6877
V\ub3d9\uc131\ucf54\ud37c\ub808\uc774\uc158
p6878
aVKRX:102260
p6879
ag34
asS'058650'
p6880
(lp6881
V\uc138\uc544\ud640\ub529\uc2a4
p6882
aVKRX:058650
p6883
ag34
asS'004770'
p6884
(lp6885
V\uc368\ub2c8\uc804\uc790
p6886
aVKRX:004770
p6887
ag34
asS'140410'
p6888
(lp6889
V\uba54\uc9c0\uc628
p6890
aVKOSDAQ:140410
p6891
ag5
asS'049550'
p6892
(lp6893
V\uc789\ud06c\ud14c\ud06c
p6894
aVKOSDAQ:049550
p6895
ag5
asS'102460'
p6896
(lp6897
V\uc774\uc5f0\uc81c\uc57d
p6898
aVKRX:102460
p6899
ag34
asS'114920'
p6900
(lp6901
V\ub300\uc8fc\uc774\uc5d4\ud2f0
p6902
aFnan
ag294
asS'102280'
p6903
(lp6904
V\uc30d\ubc29\uc6b8
p6905
aVKRX:102280
p6906
ag34
asS'052860'
p6907
(lp6908
V\uc544\uc774\uc564\uc528
p6909
aVKOSDAQ:052860
p6910
ag5
asS'081150'
p6911
(lp6912
V\ud2f0\ud50c\ub799\uc2a4
p6913
aVKOSDAQ:081150
p6914
ag5
asS'002350'
p6915
(lp6916
V\ub125\uc13c\ud0c0\uc774\uc5b4
p6917
aVKRX:002350
p6918
ag34
asS'058470'
p6919
(lp6920
V\ub9ac\ub178\uacf5\uc5c5
p6921
aVKOSDAQ:058470
p6922
ag5
asS'038010'
p6923
(lp6924
V\uc81c\uc77c\ud14c\ud06c\ub178\uc2a4
p6925
aVKOSDAQ:038010
p6926
ag5
asS'012170'
p6927
(lp6928
V\ud0a4\uc2a4\ud1a4\uae00\ub85c\ubc8c
p6929
aVKRX:012170
p6930
ag34
asS'090410'
p6931
(lp6932
V\ub355\uc2e0\ud558\uc6b0\uc9d5
p6933
aVKOSDAQ:090410
p6934
ag5
asS'090470'
p6935
(lp6936
VAST\uc82f\ud14d
p6937
aVKOSDAQ:090470
p6938
ag5
asS'096610'
p6939
(lp6940
V\uc54c\uc5d0\ud504\uc138\ubbf8
p6941
aVKOSDAQ:096610
p6942
ag5
asS'025320'
p6943
(lp6944
V\uc2dc\ub178\ud399\uc2a4
p6945
aVKOSDAQ:025320
p6946
ag5
asS'068940'
p6947
(lp6948
V\uc544\uc774\uc528\ucf00\uc774
p6949
aVKOSDAQ:068940
p6950
ag5
asS'192400'
p6951
(lp6952
V\ucfe0\ucfe0\uc804\uc790
p6953
aVKRX:192400
p6954
ag34
asS'019440'
p6955
(lp6956
V\uc138\uc544\ud2b9\uc218\uac15
p6957
aVKRX:019440
p6958
ag34
asS'044780'
p6959
(lp6960
V\uc5d0\uc774\uce58\ucf00\uc774
p6961
aVKOSDAQ:044780
p6962
ag5
asS'002820'
p6963
(lp6964
V\uc120\ucc3d\uc0b0\uc5c5
p6965
aVKRX:002820
p6966
ag34
asS'086980'
p6967
(lp6968
V\uc1fc\ubc15\uc2a4
p6969
aVKOSDAQ:086980
p6970
ag5
asS'043200'
p6971
(lp6972
V\ud30c\ub8e8
p6973
aVKOSDAQ:043200
p6974
ag5
asS'016610'
p6975
(lp6976
V\ub3d9\ubd80\uc99d\uad8c
p6977
aVKRX:016610
p6978
ag34
asS'045890'
p6979
(lp6980
V\ub3d9\ubd80\ub77c\uc774\ud14d
p6981
aVKOSDAQ:045890
p6982
ag5
asS'159910'
p6983
(lp6984
VMBK
p6985
aVKOSDAQ:159910
p6986
ag5
asS'011720'
p6987
(lp6988
V\ud604\ub300\ud398\uc778\ud2b8
p6989
aVKRX:011720
p6990
ag34
asS'033430'
p6991
(lp6992
V\ud55c\uad6d\uc790\uc6d0\ud22c\uc790\uac1c\ubc1c
p6993
aVKOSDAQ:033430
p6994
ag5
asS'019990'
p6995
(lp6996
V\uc5d0\ub108\ud1a0\ud06c
p6997
aVKOSDAQ:019990
p6998
ag5
asS'187420'
p6999
(lp7000
V\uc81c\ub178\ud3ec\ucee4\uc2a4
p7001
aVKOSDAQ:187420
p7002
ag5
asS'024810'
p7003
(lp7004
V\uc774\ud654\uc804\uae30
p7005
aVKOSDAQ:024810
p7006
ag5
asS'051600'
p7007
(lp7008
V\ud55c\uc804KPS
p7009
aVKRX:051600
p7010
ag34
asS'046890'
p7011
(lp7012
V\uc11c\uc6b8\ubc18\ub3c4\uccb4
p7013
aVKOSDAQ:046890
p7014
ag5
asS'138440'
p7015
(lp7016
V\uc774\ucf54\ub9ac\uc544\ub9ac\uce20
p7017
aVKRX:138440
p7018
ag34
asS'175330'
p7019
(lp7020
VJB\uae08\uc735\uc9c0\uc8fc
p7021
aVKRX:175330
p7022
ag34
asS'001020'
p7023
(lp7024
V\ud398\uc774\ud37c\ucf54\ub9ac\uc544
p7025
aVKRX:001020
p7026
ag34
asS'109820'
p7027
(lp7028
V\uc9c4\ub9e4\ud2b8\ub9ad\uc2a4
p7029
aVKOSDAQ:109820
p7030
ag5
asS'001840'
p7031
(lp7032
V\uc774\ud654\uacf5\uc601
p7033
aVKOSDAQ:001840
p7034
ag5
asS'017900'
p7035
(lp7036
V\uad11\uc804\uc790
p7037
aVKRX:017900
p7038
ag34
asS'017670'
p7039
(lp7040
VSK\ud154\ub808\ucf64
p7041
aVKRX:017670
p7042
ag34
asS'002000'
p7043
(lp7044
V\ud55c\uad6d\uc720\ub9ac\uacf5\uc5c5
p7045
aVKRX:002000
p7046
ag34
asS'183190'
p7047
(lp7048
V\uc544\uc138\uc544\uc2dc\uba58\ud2b8
p7049
aVKRX:183190
p7050
ag34
asS'006050'
p7051
(lp7052
V\uad6d\uc601\uc9c0\uc564\uc5e0
p7053
aVKOSDAQ:006050
p7054
ag5
asS'021080'
p7055
(lp7056
V\uc5d0\uc774\ud2f0\ub118\uc778\ubca0\uc2a4\ud2b8
p7057
aVKOSDAQ:021080
p7058
ag5
asS'107640'
p7059
(lp7060
V\ud55c\uc911\uc5d4\uc2dc\uc5d0\uc2a4
p7061
aFnan
ag294
asS'035810'
p7062
(lp7063
V\uc774\uc9c0\ubc14\uc774\uc624
p7064
aVKOSDAQ:035810
p7065
ag5
asS'047820'
p7066
(lp7067
V\ucd08\ub85d\ubc40
p7068
aVKOSDAQ:047820
p7069
ag5
asS'020000'
p7070
(lp7071
V\ud55c\uc12c
p7072
aVKRX:020000
p7073
ag34
asS'023000'
p7074
(lp7075
V\uc0bc\uc6d0\uac15\uc7ac
p7076
aVKRX:023000
p7077
ag34
asS'004310'
p7078
(lp7079
V\ud604\ub300\uc57d\ud488
p7080
aVKRX:004310
p7081
ag34
asS'078150'
p7082
(lp7083
VHB\ud14c\ud06c\ub180\ub7ec\uc9c0
p7084
aVKOSDAQ:078150
p7085
ag5
asS'001440'
p7086
(lp7087
V\ub300\ud55c\uc804\uc120
p7088
aVKRX:001440
p7089
ag34
asS'024070'
p7090
(lp7091
VWISCOM
p7092
aVKRX:024070
p7093
ag34
asS'094800'
p7094
(lp7095
V\ub9f5\uc2a4\ub9ac\uc5bc\ud2f01
p7096
aVKRX:094800
p7097
ag34
asS'137400'
p7098
(lp7099
V\ud53c\uc5d4\ud2f0
p7100
aVKOSDAQ:137400
p7101
ag5
asS'219550'
p7102
(lp7103
VSK2\ud638\uc2a4\ud329
p7104
aVKOSDAQ:219550
p7105
ag5
asS'180640'
p7106
(lp7107
V\ud55c\uc9c4\uce7c
p7108
aVKRX:180640
p7109
ag34
asS'115530'
p7110
(lp7111
V\uc528\uc5d4\ud50c\ub7ec\uc2a4
p7112
aVKOSDAQ:115530
p7113
ag5
asS'050890'
p7114
(lp7115
V\uc3e0\ub9ac\ub4dc
p7116
aVKOSDAQ:050890
p7117
ag5
asS'033540'
p7118
(lp7119
V\ud30c\ub77c\ud14d
p7120
aVKOSDAQ:033540
p7121
ag5
asS'000860'
p7122
(lp7123
V\uac74\uc124\ud654\ud559\uacf5\uc5c5
p7124
aVKRX:000860
p7125
ag34
asS'101140'
p7126
(lp7127
V\uc544\ud2f0\uc2a4
p7128
aVKRX:101140
p7129
ag34
asS'000640'
p7130
(lp7131
V\ub3d9\uc544\uc3d8\uc2dc\uc624\ud640\ub529\uc2a4
p7132
aVKRX:000640
p7133
ag34
asS'010120'
p7134
(lp7135
VLS\uc0b0\uc804
p7136
aVKRX:010120
p7137
ag34
asS'029460'
p7138
(lp7139
V\ucf00\uc774\uc528\ud14d
p7140
aVKRX:029460
p7141
ag34
asS'000880'
p7142
(lp7143
V\ud55c\ud654
p7144
aVKRX:000880
p7145
ag34
asS'094970'
p7146
(lp7147
V\uc81c\uc774\uc5e0\ud2f0
p7148
aVKOSDAQ:094970
p7149
ag5
asS'131030'
p7150
(lp7151
V\ub514\uc5d0\uc774\uce58\ud53c\ucf54\ub9ac\uc544
p7152
aVKOSDAQ:131030
p7153
ag5
asS'027410'
p7154
(lp7155
VBGF\ub9ac\ud14c\uc77c
p7156
aVKRX:027410
p7157
ag34
asS'043150'
p7158
(lp7159
V\ubc14\ud14d
p7160
aVKOSDAQ:043150
p7161
ag5
asS'064090'
p7162
(lp7163
V\ud55c\uc591\ud558\uc774\ud0c0\uc624
p7164
aVKOSDAQ:064090
p7165
ag5
asS'005030'
p7166
(lp7167
V\ubd80\uc0b0\uc8fc\uacf5
p7168
aVKRX:005030
p7169
ag34
asS'177830'
p7170
(lp7171
V\ud30c\ubc84\ub098\uc778
p7172
aVKOSDAQ:177830
p7173
ag5
asS'001200'
p7174
(lp7175
V\uc720\uc9c4\uc99d\uad8c
p7176
aVKRX:001200
p7177
ag34
asS'095570'
p7178
(lp7179
VAJ\ub124\ud2b8\uc6cd\uc2a4
p7180
aVKRX:095570
p7181
ag34
asS'047310'
p7182
(lp7183
V\ud30c\uc6cc\ub85c\uc9c1\uc2a4
p7184
aVKOSDAQ:047310
p7185
ag5
asS'222800'
p7186
(lp7187
V\uc2ec\ud14d
p7188
aVKOSDAQ:222800
p7189
ag5
asS'010050'
p7190
(lp7191
V\uc6b0\ub9ac\uc885\uae08
p7192
aVKRX:010050
p7193
ag34
asS'206660'
p7194
(lp7195
V\uace8\ub4e0\ube0c\ub9bf\uc9c0\uc81c2\ud638\uc2a4\ud329
p7196
aVKOSDAQ:206660
p7197
ag5
asS'224090'
p7198
(lp7199
V\uc815\ub2e4\uc6b4
p7200
aFnan
ag294
asS'015750'
p7201
(lp7202
V\uc131\uc6b0\ud558\uc774\ud14d
p7203
aVKOSDAQ:015750
p7204
ag5
asS'011230'
p7205
(lp7206
V\uc0bc\ud654\uc804\uc790\uacf5\uc5c5
p7207
aVKRX:011230
p7208
ag34
asS'037950'
p7209
(lp7210
V\uc5d8\ucef4\ud14d
p7211
aVKOSDAQ:037950
p7212
ag5
asS'131100'
p7213
(lp7214
V\ub9ac\ucf10
p7215
aVKOSDAQ:131100
p7216
ag5
asS'048530'
p7217
(lp7218
V\uc778\ud2b8\ub860\ubc14\uc774\uc624
p7219
aVKOSDAQ:048530
p7220
ag5
asS'033100'
p7221
(lp7222
V\uc81c\ub8e1\uc804\uae30
p7223
aVKOSDAQ:033100
p7224
ag5
asS'008730'
p7225
(lp7226
V\uc728\ucd0c\ud654\ud559
p7227
aVKRX:008730
p7228
ag34
asS'000080'
p7229
(lp7230
V\ud558\uc774\ud2b8\uc9c4\ub85c
p7231
aVKRX:000080
p7232
ag34
asS'149940'
p7233
(lp7234
V\ubaa8\ub2e4\uc815\ubcf4\ud1b5\uc2e0
p7235
aVKOSDAQ:149940
p7236
ag5
asS'000240'
p7237
(lp7238
V\ud55c\uad6d\ud0c0\uc774\uc5b4\uc6d4\ub4dc\uc640\uc774\ub4dc
p7239
aVKRX:000240
p7240
ag34
asS'035000'
p7241
(lp7242
VG\u2161R
p7243
aVKRX:035000
p7244
ag34
asS'056730'
p7245
(lp7246
V\uc544\ud050\ud53d\uc2a4
p7247
aVKOSDAQ:056730
p7248
ag5
asS'195990'
p7249
(lp7250
V\uc720\uc9c0\uc778\ud2b8
p7251
aVKOSDAQ:195990
p7252
ag5
asS'142280'
p7253
(lp7254
V\ub179\uc2ed\uc790\uc5e0\uc5d0\uc2a4
p7255
aVKOSDAQ:142280
p7256
ag5
asS'065620'
p7257
(lp7258
V\uc81c\ub099\uc2a4
p7259
aVKOSDAQ:065620
p7260
ag5
asS'014910'
p7261
(lp7262
V\uc131\ubb38\uc804\uc790
p7263
aVKRX:014910
p7264
ag34
asS'018470'
p7265
(lp7266
V\uc870\uc77c\uc54c\ubbf8\ub284
p7267
aVKRX:018470
p7268
ag34
asS'005360'
p7269
(lp7270
V\ubaa8\ub098\ubbf8
p7271
aVKRX:005360
p7272
ag34
asS'127710'
p7273
(lp7274
V\uc544\uc2dc\uc544\uacbd\uc81c
p7275
aVKOSDAQ:127710
p7276
ag5
asS'089030'
p7277
(lp7278
V\ud14c\ud06c\uc719
p7279
aVKOSDAQ:089030
p7280
ag5
asS'035620'
p7281
(lp7282
V\ubc14\ub978\uc190\uc774\uc564\uc5d0\uc774
p7283
aVKOSDAQ:035620
p7284
ag5
asS'012610'
p7285
(lp7286
V\uacbd\uc778\uc591\ud589
p7287
aVKRX:012610
p7288
ag34
asS'120110'
p7289
(lp7290
V\ucf54\uc624\ub871\uc778\ub354
p7291
aVKRX:120110
p7292
ag34
asS'005690'
p7293
(lp7294
V\ud30c\ubbf8\uc140
p7295
aVKRX:005690
p7296
ag34
asS'900050'
p7297
(lp7298
V\uc911\uad6d\uc6d0\uc591\uc790\uc6d0
p7299
aVKRX:900050
p7300
ag34
asS'215200'
p7301
(lp7302
V\uba54\uac00\uc2a4\ud130\ub514\uad50\uc721
p7303
aVKOSDAQ:215200
p7304
ag5
asS'068400'
p7305
(lp7306
VAJ\ub80c\ud130\uce74
p7307
aVKRX:068400
p7308
ag34
asS'205100'
p7309
(lp7310
V\uc5d1\uc148
p7311
aVKOSDAQ:205100
p7312
ag5
asS'009730'
p7313
(lp7314
V\ucf54\uc13c
p7315
aVKOSDAQ:009730
p7316
ag5
asS'008600'
p7317
(lp7318
V\uc70c\ube44\uc2a4
p7319
aVKRX:008600
p7320
ag34
asS'053030'
p7321
(lp7322
V\ubc14\uc774\ub125\uc2a4
p7323
aVKOSDAQ:053030
p7324
ag5
asS'085810'
p7325
(lp7326
V\uc54c\ud2f0\uce90\uc2a4\ud2b8
p7327
aVKOSDAQ:085810
p7328
ag5
asS'018120'
p7329
(lp7330
V\uc9c4\ub85c\ubc1c\ud6a8
p7331
aVKOSDAQ:018120
p7332
ag5
asS'003690'
p7333
(lp7334
V\ucf54\ub9ac\uc548\ub9ac
p7335
aVKRX:003690
p7336
ag34
asS'050090'
p7337
(lp7338
V\ud718\ub2c9\uc2a4\uc18c\uc7ac
p7339
aVKOSDAQ:050090
p7340
ag5
asS'019770'
p7341
(lp7342
V\ud0d1\uae08\uc18d
p7343
aVKOSDAQ:019770
p7344
ag5
asS'088980'
p7345
(lp7346
V\ub9e5\ucffc\ub9ac\uc778\ud504\ub77c
p7347
aVKRX:088980
p7348
ag34
asS'004980'
p7349
(lp7350
V\uc131\uc2e0\uc591\ud68c
p7351
aVKRX:004980
p7352
ag34
asS'214310'
p7353
(lp7354
V\uc138\ubbf8\ucf58\ub77c\uc774\ud2b8
p7355
aVKOSDAQ:214310
p7356
ag5
asS'098660'
p7357
(lp7358
V\uc5d0\uc2a4\ud2f0\uc624
p7359
aVKOSDAQ:098660
p7360
ag5
asS'037400'
p7361
(lp7362
V\uc6b0\ub9ac\uc870\uba85
p7363
aVKOSDAQ:037400
p7364
ag5
asS'005960'
p7365
(lp7366
V\ub3d9\ubd80\uac74\uc124
p7367
aVKRX:005960
p7368
ag34
asS'028300'
p7369
(lp7370
V\uc5d0\uc774\uce58\uc5d8\ube44
p7371
aVKOSDAQ:028300
p7372
ag5
asS'072020'
p7373
(lp7374
V\uc911\uc559\ubc31\uc2e0
p7375
aVKOSDAQ:072020
p7376
ag5
asS'008040'
p7377
(lp7378
V\ub3d9\uc544\uc6d0
p7379
aVKRX:008040
p7380
ag34
asS'032620'
p7381
(lp7382
V\uc720\ube44\ucf00\uc5b4
p7383
aVKOSDAQ:032620
p7384
ag5
asS'080440'
p7385
(lp7386
V\uc138\uc9c4\uc804\uc790
p7387
aVKOSDAQ:080440
p7388
ag5
asS'067000'
p7389
(lp7390
V\uc870\uc774\uc2dc\ud2f0
p7391
aVKOSDAQ:067000
p7392
ag5
asS'090740'
p7393
(lp7394
V\uc5f0\uc774\uc815\ubcf4\ud1b5\uc2e0
p7395
aVKOSDAQ:090740
p7396
ag5
asS'054410'
p7397
(lp7398
V\ucf00\uc774\ud53c\ud2f0
p7399
aVKOSDAQ:054410
p7400
ag5
asS'101390'
p7401
(lp7402
V\uc544\uc774\uc5e0
p7403
aVKOSDAQ:101390
p7404
ag5
asS'223040'
p7405
(lp7406
V\uad50\ubcf45\ud638\uc2a4\ud329
p7407
aVKOSDAQ:223040
p7408
ag5
asS'200880'
p7409
(lp7410
V\ud55c\uc77c\uc774\ud654
p7411
aVKRX:200880
p7412
ag34
asS'071050'
p7413
(lp7414
V\ud55c\uad6d\uae08\uc735\uc9c0\uc8fc
p7415
aVKRX:071050
p7416
ag34
asS'011090'
p7417
(lp7418
V\uc5d0\ub125\uc2a4
p7419
aVKRX:011090
p7420
ag34
asS'078520'
p7421
(lp7422
V\uc5d0\uc774\ube14\uc528\uc5d4\uc528
p7423
aVKRX:078520
p7424
ag34
asS'023770'
p7425
(lp7426
V\ud50c\ub808\uc774\uc704\ub4dc
p7427
aVKOSDAQ:023770
p7428
ag5
asS'101000'
p7429
(lp7430
V\ub514\uc5e0\uc528
p7431
aVKOSDAQ:101000
p7432
ag5
asS'049180'
p7433
(lp7434
V\uc140\ub8e8\uba54\ub4dc
p7435
aVKOSDAQ:049180
p7436
ag5
asS'010780'
p7437
(lp7438
V\uc544\uc774\uc5d0\uc2a4\ub3d9\uc11c
p7439
aVKRX:010780
p7440
ag34
asS'122990'
p7441
(lp7442
V\uc640\uc774\uc194
p7443
aVKOSDAQ:122990
p7444
ag5
asS'104700'
p7445
(lp7446
V\ud55c\uad6d\ucca0\uac15
p7447
aVKRX:104700
p7448
ag34
asS'013360'
p7449
(lp7450
V\uc77c\uc131\uac74\uc124
p7451
aVKRX:013360
p7452
ag34
asS'013810'
p7453
(lp7454
V\uc2a4\ud398\ucf54
p7455
aVKOSDAQ:013810
p7456
ag5
asS'049630'
p7457
(lp7458
V\uc7ac\uc601\uc194\ub8e8\ud14d
p7459
aVKOSDAQ:049630
p7460
ag5
asS'037710'
p7461
(lp7462
V\uad11\uc8fc\uc2e0\uc138\uacc4
p7463
aVKRX:037710
p7464
ag34
asS'023790'
p7465
(lp7466
V\ub3d9\uc77c\ucca0\uac15
p7467
aVKOSDAQ:023790
p7468
ag5
asS'002900'
p7469
(lp7470
V\ub3d9\uc591\ubb3c\uc0b0\uae30\uc5c5
p7471
aVKRX:002900
p7472
ag34
asS'036620'
p7473
(lp7474
V\ubc84\ucd94\uc5bc\ud14d
p7475
aVKOSDAQ:036620
p7476
ag5
asS'049520'
p7477
(lp7478
V\uc720\uc544\uc774\uc5d8
p7479
aVKOSDAQ:049520
p7480
ag5
asS'053610'
p7481
(lp7482
V\ud504\ub85c\ud14d
p7483
aVKOSDAQ:053610
p7484
ag5
asS'058860'
p7485
(lp7486
V\ucf00\uc774\ud2f0\uc2a4
p7487
aVKRX:058860
p7488
ag34
asS'038950'
p7489
(lp7490
V\ud30c\uc778\ub514\uc9c0\ud138
p7491
aVKOSDAQ:038950
p7492
ag5
asS'088290'
p7493
(lp7494
V\uc774\uc6d0\ucef4\ud3ec\ud14d
p7495
aVKOSDAQ:088290
p7496
ag5
asS'022220'
p7497
(lp7498
V\uc560\uac15\ub9ac\uba54\ud14d
p7499
aVKOSDAQ:022220
p7500
ag5
asS'045660'
p7501
(lp7502
V\uc5d0\uc774\ud14d
p7503
aVKOSDAQ:045660
p7504
ag5
asS'054340'
p7505
(lp7506
V\uc5d4\uc54c\ucf00\uc774
p7507
aVKOSDAQ:054340
p7508
ag5
asS'072770'
p7509
(lp7510
V\ub124\uc624\ub514\uc548\ud14c\ud06c\ub180\ub85c\uc9c0
p7511
aVKOSDAQ:072770
p7512
ag5
asS'021050'
p7513
(lp7514
V\uc11c\uc6d0
p7515
aVKRX:021050
p7516
ag34
asS'185190'
p7517
(lp7518
V\uc218\ud504\ub85c
p7519
aFnan
ag294
asS'200710'
p7520
(lp7521
V\uc5d0\uc774\ub514\ud14c\ud06c\ub180\ub85c\uc9c0
p7522
aVKOSDAQ:200710
p7523
ag5
asS'069620'
p7524
(lp7525
V\ub300\uc6c5\uc81c\uc57d
p7526
aVKRX:069620
p7527
ag34
asS'013700'
p7528
(lp7529
V\uc0bc\ud658\uae4c\ubba4
p7530
aVKRX:013700
p7531
ag34
asS'066900'
p7532
(lp7533
V\ub514\uc5d0\uc774\ud53c
p7534
aVKOSDAQ:066900
p7535
ag5
asS'014990'
p7536
(lp7537
V\uc778\ub514\uc5d0\ud504
p7538
aVKRX:014990
p7539
ag34
asS'090460'
p7540
(lp7541
V\ube44\uc5d0\uc774\uce58
p7542
aVKOSDAQ:090460
p7543
ag5
asS'003520'
p7544
(lp7545
V\uc601\uc9c4\uc57d\ud488\uacf5\uc5c5
p7546
aVKRX:003520
p7547
ag34
asS'192410'
p7548
(lp7549
V\uac10\ub9c8\ub204
p7550
aVKOSDAQ:192410
p7551
ag5
asS'006840'
p7552
(lp7553
VAK\ud640\ub529\uc2a4
p7554
aVKRX:006840
p7555
ag34
asS'019180'
p7556
(lp7557
V\ud2f0\uc5d0\uc774\uce58\uc5d4
p7558
aVKRX:019180
p7559
ag34
asS'073190'
p7560
(lp7561
V\ub514\ube44\ucf00\uc774
p7562
aVKOSDAQ:073190
p7563
ag5
asS'041520'
p7564
(lp7565
V\uc774\ub77c\uc774\ucf64
p7566
aVKOSDAQ:041520
p7567
ag5
asS'006110'
p7568
(lp7569
V\uc0bc\uc544\uc54c\ubbf8\ub284
p7570
aVKRX:006110
p7571
ag34
asS'007460'
p7572
(lp7573
V\ub098\ub77c\ucf00\uc774\uc544\uc774\uc528
p7574
aVKRX:007460
p7575
ag34
asS'078890'
p7576
(lp7577
V\uac00\uc628\ubbf8\ub514\uc5b4
p7578
aVKOSDAQ:078890
p7579
ag5
asS'039440'
p7580
(lp7581
V\uc5d0\uc2a4\ud2f0\uc544\uc774
p7582
aVKOSDAQ:039440
p7583
ag5
asS'100030'
p7584
(lp7585
V\ubaa8\ubc14\uc77c\ub9ac\ub354
p7586
aVKOSDAQ:100030
p7587
ag5
asS'039840'
p7588
(lp7589
V\ub514\uc624
p7590
aVKOSDAQ:039840
p7591
ag5
asS'099220'
p7592
(lp7593
VSDN
p7594
aVKOSDAQ:099220
p7595
ag5
asS'054180'
p7596
(lp7597
V\uc911\uc559\uc624\uc158
p7598
aVKOSDAQ:054180
p7599
ag5
asS'142760'
p7600
(lp7601
V\ubc14\uc774\uc624\ub9ac\ub354\uc2a4
p7602
aFnan
ag294
asS'017390'
p7603
(lp7604
V\uc11c\uc6b8\ub3c4\uc2dc\uac00\uc2a4
p7605
aVKRX:017390
p7606
ag34
asS'000500'
p7607
(lp7608
V\uac00\uc628\uc804\uc120
p7609
aVKRX:000500
p7610
ag34
asS'217810'
p7611
(lp7612
V\uc5d4\uc5d0\uc774\uce58\uc2a4\ud3297\ud638
p7613
aVKOSDAQ:217810
p7614
ag5
asS'036690'
p7615
(lp7616
V\ucf54\ub9e5\uc2a4
p7617
aVKOSDAQ:036690
p7618
ag5
asS'204690'
p7619
(lp7620
V\ub2e4\ub9b0
p7621
aFnan
ag294
asS'003830'
p7622
(lp7623
V\ub300\ud55c\ud654\uc12c
p7624
aVKRX:003830
p7625
ag34
asS'047810'
p7626
(lp7627
V\ud55c\uad6d\ud56d\uacf5\uc6b0\uc8fc
p7628
aVKRX:047810
p7629
ag34
asS'065130'
p7630
(lp7631
V\ud0d1\uc5d4\uc9c0\ub2c8\uc5b4\ub9c1
p7632
aVKOSDAQ:065130
p7633
ag5
asS'013030'
p7634
(lp7635
V\ud558\uc774\ub85d\ucf54\ub9ac\uc544
p7636
aVKOSDAQ:013030
p7637
ag5
asS'074430'
p7638
(lp7639
V\uc544\ubbf8\ub178\ub85c\uc9c1\uc2a4
p7640
aVKOSDAQ:074430
p7641
ag5
asS'016600'
p7642
(lp7643
V\ud050\uce90\ud53c\ud0c8
p7644
aVKOSDAQ:016600
p7645
ag5
asS'001270'
p7646
(lp7647
V\ubd80\uad6d\uc99d\uad8c
p7648
aVKRX:001270
p7649
ag34
asS'017800'
p7650
(lp7651
V\ud604\ub300\uc5d8\ub9ac\ubca0\uc774\ud130
p7652
aVKRX:017800
p7653
ag34
asS'060380'
p7654
(lp7655
V\ub3d9\uc591\uc5d0\uc2a4\ud14d
p7656
aVKOSDAQ:060380
p7657
ag5
asS'038620'
p7658
(lp7659
V\uc704\uc988\ucf54\ud504
p7660
aVKOSDAQ:038620
p7661
ag5
asS'001470'
p7662
(lp7663
V\uc0bc\ubd80\ud1a0\uac74
p7664
aVKRX:001470
p7665
ag34
asS'068150'
p7666
(lp7667
V\uc5d4\ud2f0\ud53c\uc544
p7668
aVKOSDAQ:068150
p7669
ag5
asS'010600'
p7670
(lp7671
V\uc640\uc774\ube44\ub85c\ub4dc
p7672
aVKRX:010600
p7673
ag34
asS'114810'
p7674
(lp7675
V\uc544\uc774\uc6d0\uc2a4
p7676
aVKOSDAQ:114810
p7677
ag5
asS'069540'
p7678
(lp7679
V\ube5b\uacfc\uc804\uc790
p7680
aVKOSDAQ:069540
p7681
ag5
asS'217320'
p7682
(lp7683
V\uc36c\ud14c\ud06c
p7684
aFnan
ag294
asS'222810'
p7685
(lp7686
V\uad50\ubcf44\ud638\uc2a4\ud329
p7687
aVKOSDAQ:222810
p7688
ag5
asS'020120'
p7689
(lp7690
V\ub2e4\uc6b0\uc778\ud050\ube0c
p7691
aVKRX:020120
p7692
ag34
asS'114120'
p7693
(lp7694
V\ud06c\ub8e8\uc15c\ud14d
p7695
aVKOSDAQ:114120
p7696
ag5
asS'000650'
p7697
(lp7698
V\ucc9c\uc77c\uace0\uc18d
p7699
aVKRX:000650
p7700
ag34
asS'010420'
p7701
(lp7702
V\ud55c\uc194\ud53c\uc5d4\uc5d0\uc2a4
p7703
aVKRX:010420
p7704
ag34
asS'000890'
p7705
(lp7706
V\ubcf4\ud574\uc591\uc870
p7707
aVKRX:000890
p7708
ag34
asS'083570'
p7709
(lp7710
V\uc544\uc2dc\uc54410\ud638
p7711
aVKRX:083570
p7712
ag34
asS'004720'
p7713
(lp7714
V\uc6b0\ub9ac\ub4e4\uc81c\uc57d
p7715
aVKRX:004720
p7716
ag34
asS'108230'
p7717
(lp7718
V\ud1b1\ud14d
p7719
aVKOSDAQ:108230
p7720
ag5
asS'197210'
p7721
(lp7722
V\ub9ac\ub4dc
p7723
aFnan
ag294
asS'028150'
p7724
(lp7725
VGS\ud648\uc1fc\ud551
p7726
aVKOSDAQ:028150
p7727
ag5
asS'060540'
p7728
(lp7729
V\uc5d0\uc2a4\uc5d0\uc774\ud2f0
p7730
aVKOSDAQ:060540
p7731
ag5
asS'065710'
p7732
(lp7733
V\uc11c\ud638\uc804\uae30
p7734
aVKOSDAQ:065710
p7735
ag5
asS'010040'
p7736
(lp7737
V\ud55c\uad6d\ub0b4\ud654
p7738
aVKRX:010040
p7739
ag34
as.