ccopy_reg
_reconstructor
p0
(cpandas.core.frame
DataFrame
p1
c__builtin__
object
p2
Ntp3
Rp4
(dp5
S'_metadata'
p6
(lp7
sS'_typ'
p8
S'dataframe'
p9
sS'_data'
p10
g0
(cpandas.core.internals
BlockManager
p11
g2
Ntp12
Rp13
((lp14
cpandas.indexes.base
_new_Index
p15
(cpandas.indexes.base
Index
p16
(dp17
S'data'
p18
cnumpy.core.multiarray
_reconstruct
p19
(cnumpy
ndarray
p20
(I0
tp21
S'b'
p22
tp23
Rp24
(I1
(I4
tp25
cnumpy
dtype
p26
(S'O8'
p27
I0
I1
tp28
Rp29
(I3
S'|'
p30
NNNI-1
I-1
I63
tp31
bI00
(lp32
Vcode
p33
aVname
p34
aVgooglecode
p35
aVtype
p36
atp37
bsS'name'
p38
Nstp39
Rp40
ag15
(cpandas.indexes.range
RangeIndex
p41
(dp42
S'start'
p43
I0
sS'step'
p44
I1
sS'stop'
p45
I1956
sg38
Nstp46
Rp47
a(lp48
g19
(g20
(I0
tp49
g22
tp50
Rp51
(I1
(I4
I1956
tp52
g29
I00
(lp53
S'095570'
p54
aS'060310'
p55
aS'194860'
p56
aS'068400'
p57
aS'006840'
p58
aS'027410'
p59
aS'138930'
p60
aS'001460'
p61
aS'001040'
p62
aS'079160'
p63
aS'000120'
p64
aS'011150'
p65
aS'097950'
p66
aS'037560'
p67
aS'000590'
p68
aS'139130'
p69
aS'004840'
p70
aS'155660'
p71
aS'069730'
p72
aS'017940'
p73
aS'007700'
p74
aS'114090'
p75
aS'078930'
p76
aS'006360'
p77
aS'001250'
p78
aS'007070'
p79
aS'035000'
p80
aS'001500'
p81
aS'011420'
p82
aS'175330'
p83
aS'001060'
p84
aS'096760'
p85
aS'105560'
p86
aS'002550'
p87
aS'009440'
p88
aS'119650'
p89
aS'092220'
p90
aS'109070'
p91
aS'001390'
p92
aS'001940'
p93
aS'083420'
p94
aS'025000'
p95
aS'092230'
p96
aS'000040'
p97
aS'044450'
p98
aS'030210'
p99
aS'058850'
p100
aS'093050'
p101
aS'003550'
p102
aS'034220'
p103
aS'001120'
p104
aS'068870'
p105
aS'051900'
p106
aS'032640'
p107
aS'011070'
p108
aS'066570'
p109
aS'108670'
p110
aS'051910'
p111
aS'006260'
p112
aS'000680'
p113
aS'010120'
p114
aS'023150'
p115
aS'035420'
p116
aS'181710'
p117
aS'005940'
p118
aS'034310'
p119
aS'008260'
p120
aS'010060'
p121
aS'100840'
p122
aS'064960'
p123
aS'003570'
p124
aS'036530'
p125
aS'010950'
p126
aS'034120'
p127
aS'101060'
p128
aS'004060'
p129
aS'001380'
p130
aS'002360'
p131
aS'009160'
p132
aS'034730'
p133
aS'011790'
p134
aS'018670'
p135
aS'001740'
p136
aS'096770'
p137
aS'001510'
p138
aS'006120'
p139
aS'017670'
p140
aS'000660'
p141
aS'011810'
p142
aS'077970'
p143
aS'071970'
p144
aS'002710'
p145
aS'024070'
p146
aS'037270'
p147
aS'000500'
p148
aS'035250'
p149
aS'000860'
p150
aS'008020'
p151
aS'002100'
p152
aS'009450'
p153
aS'012320'
p154
aS'000050'
p155
aS'214390'
p156
aS'012610'
p157
aS'009140'
p158
aS'013580'
p159
aS'012200'
p160
aS'004200'
p161
aS'002140'
p162
aS'010130'
p163
aS'002240'
p164
aS'009810'
p165
aS'001290'
p166
aS'009290'
p167
aS'017040'
p168
aS'017900'
p169
aS'037710'
p170
aS'192530'
p171
aS'140910'
p172
aS'030610'
p173
aS'007690'
p174
aS'005320'
p175
aS'001140'
p176
aS'002720'
p177
aS'014530'
p178
aS'014280'
p179
aS'008870'
p180
aS'001570'
p181
aS'002990'
p182
aS'011780'
p183
aS'001210'
p184
aS'073240'
p185
aS'092440'
p186
aS'000270'
p187
aS'024110'
p188
aS'004540'
p189
aS'007460'
p190
aS'001260'
p191
aS'008350'
p192
aS'004270'
p193
aS'003920'
p194
aS'002070'
p195
aS'025860'
p196
aS'005720'
p197
aS'002350'
p198
aS'110570'
p199
aS'090350'
p200
aS'000320'
p201
aS'006280'
p202
aS'005250'
p203
aS'004370'
p204
aS'072710'
p205
aS'023590'
p206
aS'020120'
p207
aS'015590'
p208
aS'019680'
p209
aS'006370'
p210
aS'004130'
p211
aS'008060'
p212
aS'000490'
p213
aS'008110'
p214
aS'005750'
p215
aS'000210'
p216
aS'006570'
p217
aS'001680'
p218
aS'084690'
p219
aS'128820'
p220
aS'117580'
p221
aS'005620'
p222
aS'016710'
p223
aS'003540'
p224
aS'009190'
p225
aS'014160'
p226
aS'047040'
p227
aS'009320'
p228
aS'047050'
p229
aS'042660'
p230
aS'006800'
p231
aS'003090'
p232
aS'069620'
p233
aS'000430'
p234
aS'006340'
p235
aS'003220'
p236
aS'024890'
p237
aS'000300'
p238
aS'002880'
p239
aS'012800'
p240
aS'015230'
p241
aS'001070'
p242
aS'006650'
p243
aS'001440'
p244
aS'084010'
p245
aS'001790'
p246
aS'001130'
p247
aS'003490'
p248
aS'005880'
p249
aS'003830'
p250
aS'016090'
p251
aS'069460'
p252
aS'084870'
p253
aS'012510'
p254
aS'004830'
p255
aS'024900'
p256
aS'008000'
p257
aS'002150'
p258
aS'001620'
p259
aS'001230'
p260
aS'023450'
p261
aS'004140'
p262
aS'007590'
p263
aS'012030'
p264
aS'005960'
p265
aS'016380'
p266
aS'016610'
p267
aS'000990'
p268
aS'005830'
p269
aS'083350'
p270
aS'083360'
p271
aS'083370'
p272
aS'083380'
p273
aS'083390'
p274
aS'002210'
p275
aS'102260'
p276
aS'005190'
p277
aS'000640'
p278
aS'058730'
p279
aS'170900'
p280
aS'008040'
p281
aS'028100'
p282
aS'007340'
p283
aS'001520'
p284
aS'084670'
p285
aS'030790'
p286
aS'002900'
p287
aS'082640'
p288
aS'008970'
p289
aS'003580'
p290
aS'049770'
p291
aS'018500'
p292
aS'006040'
p293
aS'030720'
p294
aS'014820'
p295
aS'163560'
p296
aS'001530'
p297
aS'004890'
p298
aS'019300'
p299
aS'000020'
p300
aS'000150'
p301
aS'011160'
p302
aS'082740'
p303
aS'042670'
p304
aS'034020'
p305
aS'024090'
p306
aS'003160'
p307
aS'092200'
p308
aS'013570'
p309
aS'210540'
p310
aS'026890'
p311
aS'115390'
p312
aS'032350'
p313
aS'000400'
p314
aS'023530'
p315
aS'004990'
p316
aS'005300'
p317
aS'011170'
p318
aS'002270'
p319
aS'071840'
p320
aS'027740'
p321
aS'204320'
p322
aS'001080'
p323
aS'088980'
p324
aS'094800'
p325
aS'138040'
p326
aS'008560'
p327
aS'000060'
p328
aS'017180'
p329
aS'012690'
p330
aS'005360'
p331
aS'009680'
p332
aS'009580'
p333
aS'009200'
p334
aS'033920'
p335
aS'008420'
p336
aS'025560'
p337
aS'007120'
p338
aS'085620'
p339
aS'037620'
p340
aS'002840'
p341
aS'107590'
p342
aS'134380'
p343
aS'003650'
p344
aS'155900'
p345
aS'092630'
p346
aS'003610'
p347
aS'001340'
p348
aS'014580'
p349
aS'035150'
p350
aS'002410'
p351
aS'096300'
p352
aS'007210'
p353
aS'002760'
p354
aS'003850'
p355
aS'004740'
p356
aS'000890'
p357
aS'003000'
p358
aS'001270'
p359
aS'026940'
p360
aS'015350'
p361
aS'011390'
p362
aS'005030'
p363
aS'100220'
p364
aS'005180'
p365
aS'003960'
p366
aS'007160'
p367
aS'014710'
p368
aS'006090'
p369
aS'079660'
p370
aS'005090'
p371
aS'005610'
p372
aS'001470'
p373
aS'006400'
p374
aS'006660'
p375
aS'000830'
p376
aS'032830'
p377
aS'018260'
p378
aS'028050'
p379
aS'009150'
p380
aS'005930'
p381
aS'004000'
p382
aS'001360'
p383
aS'010140'
p384
aS'016360'
p385
aS'068290'
p386
aS'029780'
p387
aS'000810'
p388
aS'006110'
p389
aS'145990'
p390
aS'003230'
p391
aS'003940'
p392
aS'002170'
p393
aS'000070'
p394
aS'002810'
p395
aS'005680'
p396
aS'003720'
p397
aS'023000'
p398
aS'004380'
p399
aS'002450'
p400
aS'000520'
p401
aS'009770'
p402
aS'005500'
p403
aS'004690'
p404
aS'001880'
p405
aS'010960'
p406
aS'004450'
p407
aS'009470'
p408
aS'011230'
p409
aS'001820'
p410
aS'000390'
p411
aS'013700'
p412
aS'041650'
p413
aS'075180'
p414
aS'007540'
p415
aS'007860'
p416
aS'017390'
p417
aS'004410'
p418
aS'021050'
p419
aS'008490'
p420
aS'007610'
p421
aS'136490'
p422
aS'002820'
p423
aS'014910'
p424
aS'003080'
p425
aS'004980'
p426
aS'011300'
p427
aS'005980'
p428
aS'000180'
p429
aS'002420'
p430
aS'004360'
p431
aS'004490'
p432
aS'001430'
p433
aS'003030'
p434
aS'019440'
p435
aS'058650'
p436
aS'013000'
p437
aS'091090'
p438
aS'021820'
p439
aS'067830'
p440
aS'033530'
p441
aS'027970'
p442
aS'145210'
p443
aS'004430'
p444
aS'017550'
p445
aS'003060'
p446
aS'016590'
p447
aS'029530'
p448
aS'004970'
p449
aS'011930'
p450
aS'104120'
p451
aS'104110'
p452
aS'005390'
p453
aS'004170'
p454
aS'035510'
p455
aS'034300'
p456
aS'031430'
p457
aS'031440'
p458
aS'006880'
p459
aS'005800'
p460
aS'001720'
p461
aS'025620'
p462
aS'009270'
p463
aS'002700'
p464
aS'019170'
p465
aS'002870'
p466
aS'005450'
p467
aS'055550'
p468
aS'001770'
p469
aS'004080'
p470
aS'102280'
p471
aS'047400'
p472
aS'003410'
p473
aS'003620'
p474
aS'004770'
p475
aS'004920'
p476
aS'112610'
p477
aS'008700'
p478
aS'090430'
p479
aS'002790'
p480
aS'090370'
p481
aS'002030'
p482
aS'183190'
p483
aS'002310'
p484
aS'083570'
p485
aS'020560'
p486
aS'083580'
p487
aS'083590'
p488
aS'083600'
p489
aS'083610'
p490
aS'083620'
p491
aS'122900'
p492
aS'010780'
p493
aS'003560'
p494
aS'033660'
p495
aS'101140'
p496
aS'001780'
p497
aS'002250'
p498
aS'161000'
p499
aS'011090'
p500
aS'093240'
p501
aS'005850'
p502
aS'012750'
p503
aS'123700'
p504
aS'025530'
p505
aS'210980'
p506
aS'023960'
p507
aS'078520'
p508
aS'015260'
p509
aS'036570'
p510
aS'138250'
p511
aS'085310'
p512
aS'004250'
p513
aS'069640'
p514
aS'014440'
p515
aS'111770'
p516
aS'009970'
p517
aS'003520'
p518
aS'000670'
p519
aS'006740'
p520
aS'012280'
p521
aS'012160'
p522
aS'015360'
p523
aS'007310'
p524
aS'002630'
p525
aS'001800'
p526
aS'010600'
p527
aS'004720'
p528
aS'118000'
p529
aS'000030'
p530
aS'010050'
p531
aS'006980'
p532
aS'017370'
p533
aS'105840'
p534
aS'049800'
p535
aS'016880'
p536
aS'095720'
p537
aS'103130'
p538
aS'005820'
p539
aS'008600'
p540
aS'033270'
p541
aS'014830'
p542
aS'000910'
p543
aS'011330'
p544
aS'077500'
p545
aS'002920'
p546
aS'000700'
p547
aS'003470'
p548
aS'011690'
p549
aS'072130'
p550
aS'000220'
p551
aS'001200'
p552
aS'000100'
p553
aS'003460'
p554
aS'008730'
p555
aS'008250'
p556
aS'025820'
p557
aS'214320'
p558
aS'139480'
p559
aS'007660'
p560
aS'005950'
p561
aS'015020'
p562
aS'093230'
p563
aS'074610'
p564
aS'102460'
p565
aS'084680'
p566
aS'138440'
p567
aS'000760'
p568
aS'014990'
p569
aS'006490'
p570
aS'023800'
p571
aS'034590'
p572
aS'129260'
p573
aS'023810'
p574
aS'000230'
p575
aS'013360'
p576
aS'003120'
p577
aS'003200'
p578
aS'007110'
p579
aS'007570'
p580
aS'008500'
p581
aS'081000'
p582
aS'020760'
p583
aS'020150'
p584
aS'103590'
p585
aS'015860'
p586
aS'033240'
p587
aS'000950'
p588
aS'030000'
p589
aS'028260'
p590
aS'002620'
p591
aS'001560'
p592
aS'006220'
p593
aS'004910'
p594
aS'004700'
p595
aS'001550'
p596
aS'000480'
p597
aS'120030'
p598
aS'018470'
p599
aS'002600'
p600
aS'185750'
p601
aS'063160'
p602
aS'001630'
p603
aS'044380'
p604
aS'900050'
p605
aS'007630'
p606
aS'013870'
p607
aS'071320'
p608
aS'010580'
p609
aS'088790'
p610
aS'003780'
p611
aS'010640'
p612
aS'100250'
p613
aS'051630'
p614
aS'011000'
p615
aS'002780'
p616
aS'009310'
p617
aS'000650'
p618
aS'012600'
p619
aS'033250'
p620
aS'006380'
p621
aS'021960'
p622
aS'002380'
p623
aS'029460'
p624
aS'009070'
p625
aS'145270'
p626
aS'030200'
p627
aS'058860'
p628
aS'053210'
p629
aS'033780'
p630
aS'900140'
p631
aS'090970'
p632
aS'090980'
p633
aS'090990'
p634
aS'091000'
p635
aS'007810'
p636
aS'003690'
p637
aS'192820'
p638
aS'044820'
p639
aS'005070'
p640
aS'005420'
p641
aS'071950'
p642
aS'002020'
p643
aS'003070'
p644
aS'144620'
p645
aS'120110'
p646
aS'138490'
p647
aS'021240'
p648
aS'121550'
p649
aS'031820'
p650
aS'192400'
p651
aS'005740'
p652
aS'012170'
p653
aS'039490'
p654
aS'015890'
p655
aS'006890'
p656
aS'003240'
p657
aS'011280'
p658
aS'004100'
p659
aS'009410'
p660
aS'001420'
p661
aS'007980'
p662
aS'078000'
p663
aS'214420'
p664
aS'140890'
p665
aS'019180'
p666
aS'004870'
p667
aS'008900'
p668
aS'134790'
p669
aS'005690'
p670
aS'036580'
p671
aS'028670'
p672
aS'010820'
p673
aS'016800'
p674
aS'001020'
p675
aS'950010'
p676
aS'090080'
p677
aS'010770'
p678
aS'005490'
p679
aS'058430'
p680
aS'051310'
p681
aS'017810'
p682
aS'103140'
p683
aS'005810'
p684
aS'033180'
p685
aS'086790'
p686
aS'099340'
p687
aS'099350'
p688
aS'039130'
p689
aS'172580'
p690
aS'139200'
p691
aS'153360'
p692
aS'159650'
p693
aS'071090'
p694
aS'019490'
p695
aS'000080'
p696
aS'000140'
p697
aS'152550'
p698
aS'036460'
p699
aS'005430'
p700
aS'071050'
p701
aS'010040'
p702
aS'025540'
p703
aS'004090'
p704
aS'002200'
p705
aS'002960'
p706
aS'002000'
p707
aS'015760'
p708
aS'006200'
p709
aS'002300'
p710
aS'023350'
p711
aS'025890'
p712
aS'000970'
p713
aS'104700'
p714
aS'017960'
p715
aS'161890'
p716
aS'024720'
p717
aS'161390'
p718
aS'000240'
p719
aS'007280'
p720
aS'168490'
p721
aS'010100'
p722
aS'047810'
p723
aS'123690'
p724
aS'003350'
p725
aS'011500'
p726
aS'002390'
p727
aS'014790'
p728
aS'060980'
p729
aS'053690'
p730
aS'042700'
p731
aS'008930'
p732
aS'128940'
p733
aS'009240'
p734
aS'020000'
p735
aS'003680'
p736
aS'105630'
p737
aS'016450'
p738
aS'009180'
p739
aS'007190'
p740
aS'213500'
p741
aS'014680'
p742
aS'004710'
p743
aS'010420'
p744
aS'004150'
p745
aS'025750'
p746
aS'004960'
p747
aS'011700'
p748
aS'001750'
p749
aS'018880'
p750
aS'009420'
p751
aS'014130'
p752
aS'003300'
p753
aS'200880'
p754
aS'002220'
p755
aS'051600'
p756
aS'052690'
p757
aS'130660'
p758
aS'002320'
p759
aS'097230'
p760
aS'003480'
p761
aS'180640'
p762
aS'117930'
p763
aS'005110'
p764
aS'009460'
p765
aS'000880'
p766
aS'027390'
p767
aS'088350'
p768
aS'000370'
p769
aS'009830'
p770
aS'012450'
p771
aS'003530'
p772
aS'025850'
p773
aS'015540'
p774
aS'089470'
p775
aS'000720'
p776
aS'005440'
p777
aS'086280'
p778
aS'064350'
p779
aS'079430'
p780
aS'012330'
p781
aS'010620'
p782
aS'069960'
p783
aS'004560'
p784
aS'012630'
p785
aS'011200'
p786
aS'006390'
p787
aS'004310'
p788
aS'126560'
p789
aS'017800'
p790
aS'011210'
p791
aS'005380'
p792
aS'004020'
p793
aS'011760'
p794
aS'009540'
p795
aS'003450'
p796
aS'011720'
p797
aS'001450'
p798
aS'057050'
p799
aS'003010'
p800
aS'008770'
p801
aS'002460'
p802
aS'013520'
p803
aS'006060'
p804
aS'010690'
p805
aS'133820'
p806
aS'010660'
p807
aS'000850'
p808
aS'016580'
p809
aS'032560'
p810
aS'004800'
p811
aS'094280'
p812
aS'093370'
p813
aS'081660'
p814
aS'005870'
p815
aS'079980'
p816
aS'005010'
p817
aS'069260'
p818
aS'000540'
p819
aS'003280'
p820
aS'054620'
p821
aS'090470'
p822
aS'032040'
p823
aS'130960'
p824
aS'035760'
p825
aS'051500'
p826
aS'058820'
p827
aS'023460'
p828
aS'065770'
p829
aS'068790'
p830
aS'037370'
p831
aS'079190'
p832
aS'083450'
p833
aS'028150'
p834
aS'053870'
p835
aS'078150'
p836
aS'036640'
p837
aS'204840'
p838
aS'095340'
p839
aS'099520'
p840
aS'067290'
p841
aS'035900'
p842
aS'024120'
p843
aS'021320'
p844
aS'036670'
p845
aS'068060'
p846
aS'151860'
p847
aS'046440'
p848
aS'035600'
p849
aS'060720'
p850
aS'083470'
p851
aS'122450'
p852
aS'058400'
p853
aS'114450'
p854
aS'036030'
p855
aS'043610'
p856
aS'060370'
p857
aS'079950'
p858
aS'159910'
p859
aS'086960'
p860
aS'065150'
p861
aS'160550'
p862
aS'030190'
p863
aS'036490'
p864
aS'024940'
p865
aS'091340'
p866
aS'950110'
p867
aS'019550'
p868
aS'046140'
p869
aS'099220'
p870
aS'040610'
p871
aS'049470'
p872
aS'052300'
p873
aS'090730'
p874
aS'207930'
p875
aS'219550'
p876
aS'057500'
p877
aS'178920'
p878
aS'066270'
p879
aS'048550'
p880
aS'051980'
p881
aS'036540'
p882
aS'032540'
p883
aS'048770'
p884
aS'057030'
p885
aS'040300'
p886
aS'051390'
p887
aS'052220'
p888
aS'079940'
p889
aS'078890'
p890
aS'030270'
p891
aS'192410'
p892
aS'024840'
p893
aS'094480'
p894
aS'063080'
p895
aS'039240'
p896
aS'053950'
p897
aS'011040'
p898
aS'139050'
p899
aS'024910'
p900
aS'089890'
p901
aS'049720'
p902
aS'014570'
p903
aS'098460'
p904
aS'206660'
p905
aS'219580'
p906
aS'215000'
p907
aS'121440'
p908
aS'014200'
p909
aS'026910'
p910
aS'090150'
p911
aS'208710'
p912
aS'222810'
p913
aS'223040'
p914
aS'053270'
p915
aS'066620'
p916
aS'043650'
p917
aS'006050'
p918
aS'060480'
p919
aS'078130'
p920
aS'019010'
p921
aS'900070'
p922
aS'053260'
p923
aS'058370'
p924
aS'130500'
p925
aS'036190'
p926
aS'049080'
p927
aS'035460'
p928
aS'187790'
p929
aS'151910'
p930
aS'121600'
p931
aS'039860'
p932
aS'091970'
p933
aS'051490'
p934
aS'089600'
p935
aS'138610'
p936
aS'130580'
p937
aS'036800'
p938
aS'091590'
p939
aS'168330'
p940
aS'072770'
p941
aS'095660'
p942
aS'104200'
p943
aS'042420'
p944
aS'037340'
p945
aS'085910'
p946
aS'092730'
p947
aS'101400'
p948
aS'153460'
p949
aS'007390'
p950
aS'033640'
p951
aS'087730'
p952
aS'073070'
p953
aS'089140'
p954
aS'065170'
p955
aS'139670'
p956
aS'137940'
p957
aS'092600'
p958
aS'041140'
p959
aS'031390'
p960
aS'142280'
p961
aS'054050'
p962
aS'040160'
p963
aS'069140'
p964
aS'126870'
p965
aS'060260'
p966
aS'012340'
p967
aS'900100'
p968
aS'085670'
p969
aS'053290'
p970
aS'119860'
p971
aS'064260'
p972
aS'093640'
p973
aS'039560'
p974
aS'032190'
p975
aS'068240'
p976
aS'035720'
p977
aS'012860'
p978
aS'020400'
p979
aS'008830'
p980
aS'048470'
p981
aS'004780'
p982
aS'017650'
p983
aS'007720'
p984
aS'078140'
p985
aS'036480'
p986
aS'025440'
p987
aS'027830'
p988
aS'104040'
p989
aS'217270'
p990
aS'020180'
p991
aS'045390'
p992
aS'108380'
p993
aS'006580'
p994
aS'215480'
p995
aS'204440'
p996
aS'215580'
p997
aS'048910'
p998
aS'005710'
p999
aS'120240'
p1000
aS'003310'
p1001
aS'078600'
p1002
aS'065690'
p1003
aS'096350'
p1004
aS'140520'
p1005
aS'131220'
p1006
aS'010170'
p1007
aS'054670'
p1008
aS'023910'
p1009
aS'021040'
p1010
aS'067080'
p1011
aS'213420'
p1012
aS'077360'
p1013
aS'090410'
p1014
aS'194480'
p1015
aS'017680'
p1016
aS'067990'
p1017
aS'100130'
p1018
aS'005160'
p1019
aS'075970'
p1020
aS'086450'
p1021
aS'099410'
p1022
aS'045890'
p1023
aS'207760'
p1024
aS'026960'
p1025
aS'033500'
p1026
aS'025950'
p1027
aS'088130'
p1028
aS'041930'
p1029
aS'038500'
p1030
aS'060380'
p1031
aS'079960'
p1032
aS'104460'
p1033
aS'088910'
p1034
aS'094170'
p1035
aS'013120'
p1036
aS'109860'
p1037
aS'032960'
p1038
aS'023790'
p1039
aS'005290'
p1040
aS'025900'
p1041
aS'078590'
p1042
aS'030350'
p1043
aS'073190'
p1044
aS'066670'
p1045
aS'109740'
p1046
aS'090710'
p1047
aS'131030'
p1048
aS'196490'
p1049
aS'066900'
p1050
aS'127120'
p1051
aS'092070'
p1052
aS'101000'
p1053
aS'134580'
p1054
aS'039840'
p1055
aS'108860'
p1056
aS'079810'
p1057
aS'113810'
p1058
aS'043360'
p1059
aS'106520'
p1060
aS'068930'
p1061
aS'033130'
p1062
aS'033310'
p1063
aS'105740'
p1064
aS'187220'
p1065
aS'131180'
p1066
aS'042510'
p1067
aS'050120'
p1068
aS'171120'
p1069
aS'171010'
p1070
aS'084650'
p1071
aS'141080'
p1072
aS'060300'
p1073
aS'184230'
p1074
aS'038390'
p1075
aS'047440'
p1076
aS'026040'
p1077
aS'090360'
p1078
aS'016170'
p1079
aS'067730'
p1080
aS'071280'
p1081
aS'043710'
p1082
aS'109960'
p1083
aS'038060'
p1084
aS'082800'
p1085
aS'085370'
p1086
aS'060240'
p1087
aS'042940'
p1088
aS'058470'
p1089
aS'039980'
p1090
aS'012700'
p1091
aS'038340'
p1092
aS'131100'
p1093
aS'014470'
p1094
aS'042500'
p1095
aS'098120'
p1096
aS'035480'
p1097
aS'038290'
p1098
aS'005990'
p1099
aS'093520'
p1100
aS'141070'
p1101
aS'072870'
p1102
aS'215200'
p1103
aS'041920'
p1104
aS'086900'
p1105
aS'078160'
p1106
aS'065650'
p1107
aS'140410'
p1108
aS'059210'
p1109
aS'096640'
p1110
aS'149940'
p1111
aS'080160'
p1112
aS'100030'
p1113
aS'101330'
p1114
aS'033200'
p1115
aS'006920'
p1116
aS'001810'
p1117
aS'161570'
p1118
aS'095500'
p1119
aS'215750'
p1120
aS'222420'
p1121
aS'049950'
p1122
aS'059090'
p1123
aS'214180'
p1124
aS'018700'
p1125
aS'035620'
p1126
aS'064520'
p1127
aS'053030'
p1128
aS'084990'
p1129
aS'064550'
p1130
aS'052260'
p1131
aS'038460'
p1132
aS'086040'
p1133
aS'043150'
p1134
aS'046310'
p1135
aS'066110'
p1136
aS'036620'
p1137
aS'019660'
p1138
aS'177350'
p1139
aS'014100'
p1140
aS'006910'
p1141
aS'026260'
p1142
aS'025270'
p1143
aS'008470'
p1144
aS'100120'
p1145
aS'064480'
p1146
aS'033560'
p1147
aS'200780'
p1148
aS'052900'
p1149
aS'141000'
p1150
aS'045970'
p1151
aS'090460'
p1152
aS'083650'
p1153
aS'086670'
p1154
aS'082920'
p1155
aS'054220'
p1156
aS'042370'
p1157
aS'032850'
p1158
aS'093190'
p1159
aS'065450'
p1160
aS'069540'
p1161
aS'072950'
p1162
aS'143240'
p1163
aS'123260'
p1164
aS'016100'
p1165
aS'100090'
p1166
aS'122350'
p1167
aS'014970'
p1168
aS'158380'
p1169
aS'018310'
p1170
aS'053700'
p1171
aS'009620'
p1172
aS'023600'
p1173
aS'111870'
p1174
aS'009300'
p1175
aS'054540'
p1176
aS'065570'
p1177
aS'082660'
p1178
aS'073640'
p1179
aS'032280'
p1180
aS'002290'
p1181
aS'037460'
p1182
aS'032750'
p1183
aS'054090'
p1184
aS'000250'
p1185
aS'024950'
p1186
aS'017480'
p1187
aS'046390'
p1188
aS'027580'
p1189
aS'091580'
p1190
aS'089980'
p1191
aS'042600'
p1192
aS'038070'
p1193
aS'006730'
p1194
aS'079650'
p1195
aS'100660'
p1196
aS'046890'
p1197
aS'036120'
p1198
aS'063170'
p1199
aS'027040'
p1200
aS'018680'
p1201
aS'093920'
p1202
aS'189860'
p1203
aS'122690'
p1204
aS'011370'
p1205
aS'065710'
p1206
aS'033790'
p1207
aS'035890'
p1208
aS'003100'
p1209
aS'123420'
p1210
aS'014620'
p1211
aS'037350'
p1212
aS'081580'
p1213
aS'045300'
p1214
aS'015750'
p1215
aS'080470'
p1216
aS'043260'
p1217
aS'053060'
p1218
aS'017510'
p1219
aS'214310'
p1220
aS'011560'
p1221
aS'096690'
p1222
aS'100700'
p1223
aS'024830'
p1224
aS'036630'
p1225
aS'039310'
p1226
aS'080440'
p1227
aS'067770'
p1228
aS'053450'
p1229
aS'158310'
p1230
aS'049180'
p1231
aS'068270'
p1232
aS'068760'
p1233
aS'053110'
p1234
aS'052190'
p1235
aS'032680'
p1236
aS'054920'
p1237
aS'066910'
p1238
aS'043100'
p1239
aS'070300'
p1240
aS'154040'
p1241
aS'035610'
p1242
aS'036830'
p1243
aS'039230'
p1244
aS'086980'
p1245
aS'084180'
p1246
aS'094840'
p1247
aS'192440'
p1248
aS'099440'
p1249
aS'115570'
p1250
aS'032860'
p1251
aS'087220'
p1252
aS'013810'
p1253
aS'039670'
p1254
aS'049830'
p1255
aS'111610'
p1256
aS'020710'
p1257
aS'033170'
p1258
aS'025320'
p1259
aS'131090'
p1260
aS'001000'
p1261
aS'025870'
p1262
aS'065350'
p1263
aS'086830'
p1264
aS'017000'
p1265
aS'012790'
p1266
aS'138070'
p1267
aS'203650'
p1268
aS'056700'
p1269
aS'187270'
p1270
aS'066430'
p1271
aS'007820'
p1272
aS'108320'
p1273
aS'222800'
p1274
aS'036710'
p1275
aS'160980'
p1276
aS'010280'
p1277
aS'051170'
p1278
aS'037760'
p1279
aS'136510'
p1280
aS'099320'
p1281
aS'049960'
p1282
aS'050890'
p1283
aS'099830'
p1284
aS'066790'
p1285
aS'086200'
p1286
aS'021880'
p1287
aS'115530'
p1288
aS'115480'
p1289
aS'096530'
p1290
aS'900120'
p1291
aS'101240'
p1292
aS'060590'
p1293
aS'036170'
p1294
aS'013990'
p1295
aS'123860'
p1296
aS'050320'
p1297
aS'058220'
p1298
aS'052710'
p1299
aS'074430'
p1300
aS'092040'
p1301
aS'083930'
p1302
aS'149950'
p1303
aS'036010'
p1304
aS'050860'
p1305
aS'067390'
p1306
aS'127710'
p1307
aS'143160'
p1308
aS'054800'
p1309
aS'078780'
p1310
aS'060570'
p1311
aS'099190'
p1312
aS'214430'
p1313
aS'040910'
p1314
aS'068940'
p1315
aS'052860'
p1316
aS'069920'
p1317
aS'038880'
p1318
aS'101390'
p1319
aS'114810'
p1320
aS'031310'
p1321
aS'059100'
p1322
aS'052460'
p1323
aS'119830'
p1324
aS'124500'
p1325
aS'032080'
p1326
aS'059120'
p1327
aS'056730'
p1328
aS'023890'
p1329
aS'067160'
p1330
aS'001540'
p1331
aS'053800'
p1332
aS'131370'
p1333
aS'096610'
p1334
aS'061040'
p1335
aS'196170'
p1336
aS'123750'
p1337
aS'085810'
p1338
aS'117670'
p1339
aS'022220'
p1340
aS'052790'
p1341
aS'131400'
p1342
aS'030960'
p1343
aS'102120'
p1344
aS'067630'
p1345
aS'019990'
p1346
aS'035290'
p1347
aS'025980'
p1348
aS'041440'
p1349
aS'038680'
p1350
aS'121890'
p1351
aS'097780'
p1352
aS'042110'
p1353
aS'065420'
p1354
aS'103230'
p1355
aS'900080'
p1356
aS'101490'
p1357
aS'095910'
p1358
aS'031330'
p1359
aS'060540'
p1360
aS'112240'
p1361
aS'056190'
p1362
aS'080000'
p1363
aS'160600'
p1364
aS'041510'
p1365
aS'096630'
p1366
aS'069510'
p1367
aS'041910'
p1368
aS'039440'
p1369
aS'098660'
p1370
aS'052020'
p1371
aS'050760'
p1372
aS'058610'
p1373
aS'043340'
p1374
aS'054630'
p1375
aS'200710'
p1376
aS'031860'
p1377
aS'003800'
p1378
aS'088800'
p1379
aS'138360'
p1380
aS'028300'
p1381
aS'044780'
p1382
aS'071670'
p1383
aS'045660'
p1384
aS'224110'
p1385
aS'021080'
p1386
aS'089530'
p1387
aS'073570'
p1388
aS'043580'
p1389
aS'038870'
p1390
aS'086520'
p1391
aS'038110'
p1392
aS'073540'
p1393
aS'036810'
p1394
aS'173940'
p1395
aS'065160'
p1396
aS'054940'
p1397
aS'950130'
p1398
aS'205100'
p1399
aS'067570'
p1400
aS'054340'
p1401
aS'095300'
p1402
aS'207720'
p1403
aS'206640'
p1404
aS'198440'
p1405
aS'215790'
p1406
aS'217810'
p1407
aS'218410'
p1408
aS'069410'
p1409
aS'068150'
p1410
aS'048830'
p1411
aS'096870'
p1412
aS'061970'
p1413
aS'138690'
p1414
aS'208140'
p1415
aS'220260'
p1416
aS'066970'
p1417
aS'073110'
p1418
aS'083310'
p1419
aS'037950'
p1420
aS'170920'
p1421
aS'058630'
p1422
aS'019590'
p1423
aS'097520'
p1424
aS'009780'
p1425
aS'123040'
p1426
aS'074150'
p1427
aS'032790'
p1428
aS'033160'
p1429
aS'050540'
p1430
aS'090740'
p1431
aS'193250'
p1432
aS'007530'
p1433
aS'143540'
p1434
aS'036180'
p1435
aS'036560'
p1436
aS'036000'
p1437
aS'053280'
p1438
aS'045060'
p1439
aS'080520'
p1440
aS'039830'
p1441
aS'046120'
p1442
aS'014940'
p1443
aS'065500'
p1444
aS'010470'
p1445
aS'053980'
p1446
aS'052420'
p1447
aS'039200'
p1448
aS'031510'
p1449
aS'048260'
p1450
aS'138080'
p1451
aS'080580'
p1452
aS'067170'
p1453
aS'049480'
p1454
aS'057540'
p1455
aS'057680'
p1456
aS'082210'
p1457
aS'109080'
p1458
aS'052770'
p1459
aS'122990'
p1460
aS'067900'
p1461
aS'155650'
p1462
aS'019210'
p1463
aS'122870'
p1464
aS'079000'
p1465
aS'900180'
p1466
aS'089230'
p1467
aS'114630'
p1468
aS'032820'
p1469
aS'041190'
p1470
aS'115440'
p1471
aS'046970'
p1472
aS'215360'
p1473
aS'072470'
p1474
aS'153490'
p1475
aS'082850'
p1476
aS'037400'
p1477
aS'101170'
p1478
aS'011080'
p1479
aS'194610'
p1480
aS'066590'
p1481
aS'046940'
p1482
aS'052270'
p1483
aS'065680'
p1484
aS'018620'
p1485
aS'032940'
p1486
aS'030530'
p1487
aS'074600'
p1488
aS'104830'
p1489
aS'014190'
p1490
aS'012620'
p1491
aS'008370'
p1492
aS'008290'
p1493
aS'101160'
p1494
aS'095270'
p1495
aS'900130'
p1496
aS'036260'
p1497
aS'065950'
p1498
aS'114190'
p1499
aS'076080'
p1500
aS'196700'
p1501
aS'069080'
p1502
aS'039790'
p1503
aS'044340'
p1504
aS'043220'
p1505
aS'112040'
p1506
aS'038620'
p1507
aS'036090'
p1508
aS'136540'
p1509
aS'097800'
p1510
aS'192390'
p1511
aS'044480'
p1512
aS'036200'
p1513
aS'018000'
p1514
aS'011320'
p1515
aS'086390'
p1516
aS'048430'
p1517
aS'089850'
p1518
aS'032620'
p1519
aS'078070'
p1520
aS'024800'
p1521
aS'054930'
p1522
aS'069330'
p1523
aS'049520'
p1524
aS'204620'
p1525
aS'219960'
p1526
aS'036500'
p1527
aS'195990'
p1528
aS'023410'
p1529
aS'056080'
p1530
aS'215090'
p1531
aS'084370'
p1532
aS'178780'
p1533
aS'044960'
p1534
aS'039020'
p1535
aS'060230'
p1536
aS'067920'
p1537
aS'073490'
p1538
aS'080420'
p1539
aS'088390'
p1540
aS'053350'
p1541
aS'033110'
p1542
aS'041520'
p1543
aS'054210'
p1544
aS'065440'
p1545
aS'115610'
p1546
aS'217600'
p1547
aS'078020'
p1548
aS'080010'
p1549
aS'086890'
p1550
aS'047560'
p1551
aS'900110'
p1552
aS'067010'
p1553
aS'102710'
p1554
aS'094190'
p1555
aS'123570'
p1556
aS'095190'
p1557
aS'091120'
p1558
aS'039030'
p1559
aS'088290'
p1560
aS'033600'
p1561
aS'035810'
p1562
aS'090850'
p1563
aS'058530'
p1564
aS'092130'
p1565
aS'016250'
p1566
aS'096040'
p1567
aS'134060'
p1568
aS'001840'
p1569
aS'024810'
p1570
aS'041830'
p1571
aS'060150'
p1572
aS'033230'
p1573
aS'037330'
p1574
aS'083640'
p1575
aS'049070'
p1576
aS'119610'
p1577
aS'017250'
p1578
aS'108790'
p1579
aS'035080'
p1580
aS'051370'
p1581
aS'023430'
p1582
aS'064290'
p1583
aS'150840'
p1584
aS'048530'
p1585
aS'115310'
p1586
aS'039290'
p1587
aS'036220'
p1588
aS'041020'
p1589
aS'071200'
p1590
aS'101930'
p1591
aS'078940'
p1592
aS'068330'
p1593
aS'058450'
p1594
aS'019540'
p1595
aS'094820'
p1596
aS'049550'
p1597
aS'043910'
p1598
aS'049630'
p1599
aS'065530'
p1600
aS'040420'
p1601
aS'045510'
p1602
aS'065620'
p1603
aS'095700'
p1604
aS'187420'
p1605
aS'123330'
p1606
aS'159580'
p1607
aS'147830'
p1608
aS'033100'
p1609
aS'019570'
p1610
aS'079370'
p1611
aS'054950'
p1612
aS'137950'
p1613
aS'033320'
p1614
aS'126880'
p1615
aS'033050'
p1616
aS'094970'
p1617
aS'058420'
p1618
aS'036420'
p1619
aS'089790'
p1620
aS'052670'
p1621
aS'023440'
p1622
aS'038010'
p1623
aS'080220'
p1624
aS'083660'
p1625
aS'082270'
p1626
aS'041590'
p1627
aS'044060'
p1628
aS'034940'
p1629
aS'101730'
p1630
aS'067000'
p1631
aS'033340'
p1632
aS'036930'
p1633
aS'072020'
p1634
aS'000440'
p1635
aS'054180'
p1636
aS'155960'
p1637
aS'114570'
p1638
aS'051160'
p1639
aS'053050'
p1640
aS'119850'
p1641
aS'065060'
p1642
aS'018290'
p1643
aS'115450'
p1644
aS'018120'
p1645
aS'109820'
p1646
aS'086060'
p1647
aS'036890'
p1648
aS'007370'
p1649
aS'196450'
p1650
aS'085660'
p1651
aS'900040'
p1652
aS'900090'
p1653
aS'094850'
p1654
aS'004650'
p1655
aS'111820'
p1656
aS'096240'
p1657
aS'013720'
p1658
aS'047820'
p1659
aS'094360'
p1660
aS'016920'
p1661
aS'071850'
p1662
aS'066410'
p1663
aS'050110'
p1664
aS'078340'
p1665
aS'044180'
p1666
aS'063440'
p1667
aS'029480'
p1668
aS'043290'
p1669
aS'203690'
p1670
aS'205500'
p1671
aS'208350'
p1672
aS'208640'
p1673
aS'214270'
p1674
aS'222390'
p1675
aS'192250'
p1676
aS'115500'
p1677
aS'089150'
p1678
aS'025880'
p1679
aS'093320'
p1680
aS'065940'
p1681
aS'073010'
p1682
aS'105330'
p1683
aS'039420'
p1684
aS'053810'
p1685
aS'083550'
p1686
aS'032500'
p1687
aS'122800'
p1688
aS'204650'
p1689
aS'214150'
p1690
aS'220630'
p1691
aS'064820'
p1692
aS'024880'
p1693
aS'042040'
p1694
aS'054410'
p1695
aS'089010'
p1696
aS'052400'
p1697
aS'094860'
p1698
aS'046070'
p1699
aS'047770'
p1700
aS'080530'
p1701
aS'078650'
p1702
aS'104540'
p1703
aS'027050'
p1704
aS'101670'
p1705
aS'123410'
p1706
aS'036690'
p1707
aS'049430'
p1708
aS'041960'
p1709
aS'009730'
p1710
aS'069110'
p1711
aS'048870'
p1712
aS'166480'
p1713
aS'038530'
p1714
aS'029960'
p1715
aS'102940'
p1716
aS'056000'
p1717
aS'033290'
p1718
aS'056360'
p1719
aS'121850'
p1720
aS'015710'
p1721
aS'052330'
p1722
aS'126600'
p1723
aS'200130'
p1724
aS'060280'
p1725
aS'040350'
p1726
aS'051780'
p1727
aS'065560'
p1728
aS'182360'
p1729
aS'066310'
p1730
aS'016600'
p1731
aS'067280'
p1732
aS'043590'
p1733
aS'114120'
p1734
aS'083790'
p1735
aS'045520'
p1736
aS'218710'
p1737
aS'054780'
p1738
aS'019770'
p1739
aS'065130'
p1740
aS'023160'
p1741
aS'053620'
p1742
aS'072520'
p1743
aS'044490'
p1744
aS'191420'
p1745
aS'123100'
p1746
aS'182690'
p1747
aS'066700'
p1748
aS'095610'
p1749
aS'131970'
p1750
aS'089030'
p1751
aS'038540'
p1752
aS'054450'
p1753
aS'091440'
p1754
aS'200230'
p1755
aS'051360'
p1756
aS'045340'
p1757
aS'057880'
p1758
aS'108230'
p1759
aS'079970'
p1760
aS'052290'
p1761
aS'105550'
p1762
aS'026150'
p1763
aS'121800'
p1764
aS'033830'
p1765
aS'064760'
p1766
aS'131290'
p1767
aS'062860'
p1768
aS'104480'
p1769
aS'081150'
p1770
aS'130740'
p1771
aS'084730'
p1772
aS'046210'
p1773
aS'034230'
p1774
aS'033540'
p1775
aS'043200'
p1776
aS'214450'
p1777
aS'177830'
p1778
aS'037070'
p1779
aS'150900'
p1780
aS'047310'
p1781
aS'170790'
p1782
aS'049120'
p1783
aS'038950'
p1784
aS'106240'
p1785
aS'131760'
p1786
aS'028040'
p1787
aS'091700'
p1788
aS'194510'
p1789
aS'032800'
p1790
aS'043090'
p1791
aS'027710'
p1792
aS'068050'
p1793
aS'060900'
p1794
aS'087010'
p1795
aS'043370'
p1796
aS'119500'
p1797
aS'016670'
p1798
aS'022100'
p1799
aS'009520'
p1800
aS'003670'
p1801
aS'189690'
p1802
aS'078860'
p1803
aS'141020'
p1804
aS'032980'
p1805
aS'005670'
p1806
aS'094940'
p1807
aS'007330'
p1808
aS'093380'
p1809
aS'023900'
p1810
aS'035200'
p1811
aS'053610'
p1812
aS'053160'
p1813
aS'060910'
p1814
aS'075130'
p1815
aS'023770'
p1816
aS'065270'
p1817
aS'032580'
p1818
aS'051380'
p1819
aS'131390'
p1820
aS'024850'
p1821
aS'031980'
p1822
aS'002230'
p1823
aS'137400'
p1824
aS'082390'
p1825
aS'128660'
p1826
aS'006140'
p1827
aS'087600'
p1828
aS'064800'
p1829
aS'067310'
p1830
aS'208370'
p1831
aS'208870'
p1832
aS'215100'
p1833
aS'218150'
p1834
aS'136480'
p1835
aS'024660'
p1836
aS'149980'
p1837
aS'013030'
p1838
aS'126700'
p1839
aS'200470'
p1840
aS'106080'
p1841
aS'066980'
p1842
aS'205470'
p1843
aS'217500'
p1844
aS'106190'
p1845
aS'066130'
p1846
aS'206400'
p1847
aS'004590'
p1848
aS'039340'
p1849
aS'034950'
p1850
aS'060250'
p1851
aS'025550'
p1852
aS'017890'
p1853
aS'033430'
p1854
aS'063570'
p1855
aS'041460'
p1856
aS'101680'
p1857
aS'039740'
p1858
aS'053300'
p1859
aS'025770'
p1860
aS'023760'
p1861
aS'054040'
p1862
aS'021650'
p1863
aS'053590'
p1864
aS'034830'
p1865
aS'037230'
p1866
aS'030520'
p1867
aS'052600'
p1868
aS'092460'
p1869
aS'047080'
p1870
aS'081970'
p1871
aS'099660'
p1872
aS'070590'
p1873
aS'042520'
p1874
aS'078350'
p1875
aS'045100'
p1876
aS'064090'
p1877
aS'046110'
p1878
aS'024740'
p1879
aS'005860'
p1880
aS'123840'
p1881
aS'007770'
p1882
aS'061460'
p1883
aS'079170'
p1884
aS'077280'
p1885
aS'002680'
p1886
aS'217620'
p1887
aS'215380'
p1888
aS'214680'
p1889
aS'219860'
p1890
aS'102210'
p1891
aS'034810'
p1892
aS'076610'
p1893
aS'008800'
p1894
aS'054300'
p1895
aS'170030'
p1896
aS'221950'
p1897
aS'204630'
p1898
aS'048410'
p1899
aS'204760'
p1900
aS'026180'
p1901
aS'039010'
p1902
aS'092300'
p1903
aS'053660'
p1904
aS'060560'
p1905
aS'064240'
p1906
aS'039610'
p1907
aS'126640'
p1908
aS'086250'
p1909
aS'061250'
p1910
aS'134780'
p1911
aS'097870'
p1912
aS'050090'
p1913
aS'115160'
p1914
aS'028080'
p1915
aS'200670'
p1916
aS'065510'
p1917
aS'084110'
p1918
aS'024060'
p1919
aS'010240'
p1920
aS'189980'
p1921
aS'037440'
p1922
aS'076340'
p1923
aS'223220'
p1924
aS'186230'
p1925
aS'165270'
p1926
aS'214610'
p1927
aS'192240'
p1928
aS'086220'
p1929
aS'063840'
p1930
aS'204690'
p1931
aS'178600'
p1932
aS'114920'
p1933
aS'199150'
p1934
aS'183410'
p1935
aS'176750'
p1936
aS'220110'
p1937
aS'197140'
p1938
aS'189700'
p1939
aS'200350'
p1940
aS'197210'
p1941
aS'127160'
p1942
aS'142760'
p1943
aS'216400'
p1944
aS'126340'
p1945
aS'156170'
p1946
aS'215050'
p1947
aS'110660'
p1948
aS'135270'
p1949
aS'085980'
p1950
aS'210610'
p1951
aS'222520'
p1952
aS'185190'
p1953
aS'217320'
p1954
aS'144630'
p1955
aS'103660'
p1956
aS'189330'
p1957
aS'189540'
p1958
aS'154030'
p1959
aS'185490'
p1960
aS'149010'
p1961
aS'148250'
p1962
aS'208890'
p1963
aS'158300'
p1964
aS'086460'
p1965
aS'203400'
p1966
aS'064850'
p1967
aS'092870'
p1968
aS'224760'
p1969
aS'183490'
p1970
aS'156100'
p1971
aS'183350'
p1972
aS'180400'
p1973
aS'122640'
p1974
aS'179720'
p1975
aS'123010'
p1976
aS'216280'
p1977
aS'140660'
p1978
aS'203450'
p1979
aS'121060'
p1980
aS'091270'
p1981
aS'084440'
p1982
aS'221800'
p1983
aS'210120'
p1984
aS'101360'
p1985
aS'063760'
p1986
aS'185280'
p1987
aS'224090'
p1988
aS'225220'
p1989
aS'219750'
p1990
aS'140290'
p1991
aS'189350'
p1992
aS'136660'
p1993
aS'116100'
p1994
aS'151750'
p1995
aS'199800'
p1996
aS'217880'
p1997
aS'202960'
p1998
aS'220100'
p1999
aS'082220'
p2000
aS'222670'
p2001
aS'150440'
p2002
aS'144740'
p2003
aS'179440'
p2004
aS'103650'
p2005
aS'198940'
p2006
aS'107640'
p2007
aS'220180'
p2008
aS'204990'
p2009
aVAJ\ub124\ud2b8\uc6cd\uc2a4
p2010
aV3S
p2011
aVSY\uc774\ub178\ubca0\uc774\uc158
p2012
aVAJ\ub80c\ud130\uce74
p2013
aVAK\ud640\ub529\uc2a4
p2014
aVBGF\ub9ac\ud14c\uc77c
p2015
aVBNK\uae08\uc735\uc9c0\uc8fc
p2016
aVBYC
p2017
aVCJ
p2018
aVCJ CGV
p2019
aVCJ\ub300\ud55c\ud1b5\uc6b4
p2020
aVCJ\uc528\ud478\ub4dc
p2021
aVCJ\uc81c\uc77c\uc81c\ub2f9
p2022
aVCJ\ud5ec\ub85c\ube44\uc804
p2023
aVCS\ud640\ub529\uc2a4
p2024
aVDGB\uae08\uc735\uc9c0\uc8fc
p2025
aVDRB\ub3d9\uc77c
p2026
aVDSR
p2027
aVDSR\uc81c\uac15
p2028
aVE1
p2029
aVF&F
p2030
aVGKL
p2031
aVGS
p2032
aVGS\uac74\uc124
p2033
aVGS\uae00\ub85c\ubc8c
p2034
aVGS\ub9ac\ud14c\uc77c
p2035
aVG\u2161R
p2036
aVHMC\ud22c\uc790\uc99d\uad8c
p2037
aVIB\uc6d4\ub4dc\uc640\uc774\ub4dc
p2038
aVJB\uae08\uc735\uc9c0\uc8fc
p2039
aVJW\uc911\uc678\uc81c\uc57d
p2040
aVJW\ud640\ub529\uc2a4
p2041
aVKB\uae08\uc735
p2042
aVKB\uc190\ud574\ubcf4\ud5d8
p2043
aVKC\uadf8\ub9b0\ud640\ub529\uc2a4
p2044
aVKC\ucf54\ud2b8\ub810
p2045
aVKEC
p2046
aVKGP
p2047
aVKG\ucf00\ubbf8\uce7c
p2048
aVKISCO\ud640\ub529\uc2a4
p2049
aVKPX\uadf8\ub9b0\ucf00\ubbf8\uce7c
p2050
aVKPX\ucf00\ubbf8\uce7c
p2051
aVKPX\ud640\ub529\uc2a4
p2052
aVKR\ubaa8\ud130\uc2a4
p2053
aVKSS\ud574\uc6b4
p2054
aVKTB\ud22c\uc790\uc99d\uad8c
p2055
aVKTcs
p2056
aVLF
p2057
aVLG
p2058
aVLG\ub514\uc2a4\ud50c\ub808\uc774
p2059
aVLG\uc0c1\uc0ac
p2060
aVLG\uc0dd\uba85\uacfc\ud559
p2061
aVLG\uc0dd\ud65c\uac74\uac15
p2062
aVLG\uc720\ud50c\ub7ec\uc2a4
p2063
aVLG\uc774\ub178\ud14d
p2064
aVLG\uc804\uc790
p2065
aVLG\ud558\uc6b0\uc2dc\uc2a4
p2066
aVLG\ud654\ud559
p2067
aVLS
p2068
aVLS\ub124\ud2b8\uc6cd\uc2a4
p2069
aVLS\uc0b0\uc804
p2070
aVMH\uc5d0\ud0c4\uc62c
p2071
aVNAVER
p2072
aVNHN\uc5d4\ud130\ud14c\uc778\uba3c\ud2b8
p2073
aVNH\ud22c\uc790\uc99d\uad8c
p2074
aVNICE
p2075
aVNI\uc2a4\ud2f8
p2076
aVOCI
p2077
aVS&TC
p2078
aVS&T\ubaa8\ud2f0\ube0c
p2079
aVS&T\uc911\uacf5\uc5c5
p2080
aVS&T\ud640\ub529\uc2a4
p2081
aVS-Oil
p2082
aVSBS
p2083
aVSBS\ubbf8\ub514\uc5b4\ud640\ub529\uc2a4
p2084
aVSG\uc138\uacc4\ubb3c\uc0b0
p2085
aVSG\ucda9\ub0a8\ubc29\uc801
p2086
aVSH\uc5d0\ub108\uc9c0\ud654\ud559
p2087
aVSIMPAC
p2088
aVSK
p2089
aVSKC
p2090
aVSK\uac00\uc2a4
p2091
aVSK\ub124\ud2b8\uc6cd\uc2a4
p2092
aVSK\uc774\ub178\ubca0\uc774\uc158
p2093
aVSK\uc99d\uad8c
p2094
aVSK\ucf00\ubbf8\uce7c
p2095
aVSK\ud154\ub808\ucf64
p2096
aVSK\ud558\uc774\ub2c9\uc2a4
p2097
aVSTX
p2098
aVSTX\uc5d4\uc9c4
p2099
aVSTX\uc911\uacf5\uc5c5
p2100
aVTCC\ub3d9\uc591
p2101
aVWISCOM
p2102
aVYG PLUS
p2103
aV\uac00\uc628\uc804\uc120
p2104
aV\uac15\uc6d0\ub79c\ub4dc
p2105
aV\uac74\uc124\ud654\ud559\uacf5\uc5c5
p2106
aV\uacbd\ub0a8\uc5d0\ub108\uc9c0
p2107
aV\uacbd\ub18d
p2108
aV\uacbd\ub3d9\ub098\ube44\uc5d4
p2109
aV\uacbd\ub3d9\ub3c4\uc2dc\uac00\uc2a4
p2110
aV\uacbd\ubc29
p2111
aV\uacbd\ubcf4\uc81c\uc57d
p2112
aV\uacbd\uc778\uc591\ud589
p2113
aV\uacbd\uc778\uc804\uc790
p2114
aV\uacc4\ub8e1\uac74\uc124\uc0b0\uc5c5
p2115
aV\uacc4\uc591\uc804\uae30
p2116
aV\uace0\ub824\uac1c\ubc1c
p2117
aV\uace0\ub824\uc0b0\uc5c5
p2118
aV\uace0\ub824\uc544\uc5f0
p2119
aV\uace0\ub824\uc81c\uac15
p2120
aV\uace0\ub824\ud3ec\ub9ac\uba38
p2121
aV\uace8\ub4e0\ube0c\ub9bf\uc9c0\uc99d\uad8c
p2122
aV\uad11\ub3d9\uc81c\uc57d
p2123
aV\uad11\uba85\uc804\uae30
p2124
aV\uad11\uc804\uc790
p2125
aV\uad11\uc8fc\uc2e0\uc138\uacc4
p2126
aV\uad11\uc8fc\uc740\ud589
p2127
aV\uad11\ud76c\ub9ac\uce20
p2128
aV\uad50\ubcf4\uc99d\uad8c
p2129
aV\uad6d\ub3c4\ud654\ud559
p2130
aV\uad6d\ub3d9
p2131
aV\uad6d\ubcf4
p2132
aV\uad6d\uc81c\uc57d\ud488\uacf5\uc5c5
p2133
aV\uadf9\ub3d9\uc720\ud654
p2134
aV\uae08\uac15\uacf5\uc5c5
p2135
aV\uae08\ube44
p2136
aV\uae08\uc591
p2137
aV\uae08\ud638\uc0b0\uc5c5
p2138
aV\uae08\ud638\uc11d\uc720\ud654\ud559
p2139
aV\uae08\ud638\uc804\uae30
p2140
aV\uae08\ud638\ud0c0\uc774\uc5b4
p2141
aV\uae30\uc2e0\uc815\uae30
p2142
aV\uae30\uc544\uc790\ub3d9\ucc28
p2143
aV\uae30\uc5c5\uc740\ud589
p2144
aV\uae68\ub057\ud55c\ub098\ub77c
p2145
aV\ub098\ub77c\ucf00\uc774\uc544\uc774\uc528
p2146
aV\ub0a8\uad11\ud1a0\uac74
p2147
aV\ub0a8\uc120\uc54c\ubbf8\ub284
p2148
aV\ub0a8\uc131
p2149
aV\ub0a8\uc591\uc720\uc5c5
p2150
aV\ub0a8\uc601\ube44\ube44\uc548
p2151
aV\ub0a8\ud574\ud654\ud559
p2152
aV\ub125\uc13c
p2153
aV\ub125\uc13c\ud0c0\uc774\uc5b4
p2154
aV\ub125\uc194\ub860
p2155
aV\ub178\ub8e8\ud398\uc778\ud2b8
p2156
aV\ub178\ub8e8\ud640\ub529\uc2a4
p2157
aV\ub179\uc2ed\uc790
p2158
aV\ub179\uc2ed\uc790\ud640\ub529\uc2a4
p2159
aV\ub18d\uc2ec
p2160
aV\ub18d\uc2ec\ud640\ub529\uc2a4
p2161
aV\ub2e4\uc6b0\uae30\uc220
p2162
aV\ub2e4\uc6b0\uc778\ud050\ube0c
p2163
aV\ub300\uacbd\uae30\uacc4\uae30\uc220
p2164
aV\ub300\uad50
p2165
aV\ub300\uad6c\ubc31\ud654\uc810
p2166
aV\ub300\ub355GDS
p2167
aV\ub300\ub355\uc804\uc790
p2168
aV\ub300\ub3d9\uacf5\uc5c5
p2169
aV\ub300\ub3d9\uc804\uc790
p2170
aV\ub300\ub9bc\ube44\uc564\ucf54
p2171
aV\ub300\ub9bc\uc0b0\uc5c5
p2172
aV\ub300\ub9bc\ud1b5\uc0c1
p2173
aV\ub300\uc0c1
p2174
aV\ub300\uc0c1\ud640\ub529\uc2a4
p2175
aV\ub300\uc131\uc0b0\uc5c5
p2176
aV\ub300\uc131\uc5d0\ub108\uc9c0
p2177
aV\ub300\uc131\ud569\ub3d9\uc9c0\uc8fc
p2178
aV\ub300\uc131\ud640\ub529\uc2a4
p2179
aV\ub300\uc2e0\uc99d\uad8c
p2180
aV\ub300\uc591\uae08\uc18d
p2181
aV\ub300\uc601\ud3ec\uc7a5
p2182
aV\ub300\uc6b0\uac74\uc124
p2183
aV\ub300\uc6b0\ubd80\ud488
p2184
aV\ub300\uc6b0\uc778\ud130\ub0b4\uc154\ub110
p2185
aV\ub300\uc6b0\uc870\uc120\ud574\uc591
p2186
aV\ub300\uc6b0\uc99d\uad8c
p2187
aV\ub300\uc6c5
p2188
aV\ub300\uc6c5\uc81c\uc57d
p2189
aV\ub300\uc6d0\uac15\uc5c5
p2190
aV\ub300\uc6d0\uc804\uc120
p2191
aV\ub300\uc6d0\uc81c\uc57d
p2192
aV\ub300\uc6d0\ud654\uc131
p2193
aV\ub300\uc720\uc2e0\uc18c\uc7ac
p2194
aV\ub300\uc720\uc5d0\uc774\ud14d
p2195
aV\ub300\ucc3d
p2196
aV\ub300\ucc3d\ub2e8\uc870
p2197
aV\ub300\ud55c\ubc29\uc9c1
p2198
aV\ub300\ud55c\uc720\ud654
p2199
aV\ub300\ud55c\uc804\uc120
p2200
aV\ub300\ud55c\uc81c\uac15
p2201
aV\ub300\ud55c\uc81c\ub2f9
p2202
aV\ub300\ud55c\uc81c\ubd84
p2203
aV\ub300\ud55c\ud56d\uacf5
p2204
aV\ub300\ud55c\ud574\uc6b4
p2205
aV\ub300\ud55c\ud654\uc12c
p2206
aV\ub300\ud604
p2207
aV\ub300\ud638\uc5d0\uc774\uc5d8
p2208
aV\ub354\ubca0\uc774\uc9c1\ud558\uc6b0\uc2a4
p2209
aV\ub354\uc874\ube44\uc988\uc628
p2210
aV\ub355\uc131
p2211
aV\ub355\uc591\uc0b0\uc5c5
p2212
aV\ub3c4\ub808\uc774\ucf00\ubbf8\uce7c
p2213
aV\ub3c4\ud654\uc5d4\uc9c0\ub2c8\uc5b4\ub9c1
p2214
aV\ub3d9\uad6d\uc2e4\uc5c5
p2215
aV\ub3d9\uad6d\uc81c\uac15
p2216
aV\ub3d9\ub0a8\ud569\uc131
p2217
aV\ub3d9\ubc29
p2218
aV\ub3d9\ubc29\uc544\uadf8\ub85c
p2219
aV\ub3d9\ubd80
p2220
aV\ub3d9\ubd80\uac74\uc124
p2221
aV\ub3d9\ubd80\uc81c\ucca0
p2222
aV\ub3d9\ubd80\uc99d\uad8c
p2223
aV\ub3d9\ubd80\ud558\uc774\ud14d
p2224
aV\ub3d9\ubd80\ud654\uc7ac\ud574\uc0c1\ubcf4\ud5d8
p2225
aV\ub3d9\ubd81\uc54410\ud638\uc120\ubc15\ud22c\uc790
p2226
aV\ub3d9\ubd81\uc54411\ud638\uc120\ubc15\ud22c\uc790
p2227
aV\ub3d9\ubd81\uc54412\ud638\uc120\ubc15\ud22c\uc790
p2228
aV\ub3d9\ubd81\uc54413\ud638\uc120\ubc15\ud22c\uc790
p2229
aV\ub3d9\ubd81\uc54414\ud638\uc120\ubc15\ud22c\uc790
p2230
aV\ub3d9\uc131\uc81c\uc57d
p2231
aV\ub3d9\uc131\ucf54\ud37c\ub808\uc774\uc158
p2232
aV\ub3d9\uc131\ud654\ud559
p2233
aV\ub3d9\uc544\uc3d8\uc2dc\uc624\ud640\ub529\uc2a4
p2234
aV\ub3d9\uc544\uc5d0\uc2a4\ud14d
p2235
aV\ub3d9\uc544\uc5d0\uc2a4\ud2f0
p2236
aV\ub3d9\uc544\uc6d0
p2237
aV\ub3d9\uc544\uc9c0\uc9c8
p2238
aV\ub3d9\uc544\ud0c0\uc774\uc5b4\uacf5\uc5c5
p2239
aV\ub3d9\uc591
p2240
aV\ub3d9\uc591\uace0\uc18d
p2241
aV\ub3d9\uc591\ub124\ud2b8\uc6cd\uc2a4
p2242
aV\ub3d9\uc591\ubb3c\uc0b0\uae30\uc5c5
p2243
aV\ub3d9\uc591\uc0dd\uba85
p2244
aV\ub3d9\uc591\ucca0\uad00
p2245
aV\ub3d9\uc6d0
p2246
aV\ub3d9\uc6d0F&B
p2247
aV\ub3d9\uc6d0\uae08\uc18d
p2248
aV\ub3d9\uc6d0\uc0b0\uc5c5
p2249
aV\ub3d9\uc6d0\uc218\uc0b0
p2250
aV\ub3d9\uc6d0\uc2dc\uc2a4\ud15c\uc988
p2251
aV\ub3d9\uc77c\uace0\ubb34\ubca8\ud2b8
p2252
aV\ub3d9\uc77c\ubc29\uc9c1
p2253
aV\ub3d9\uc77c\uc0b0\uc5c5
p2254
aV\ub3d9\uc77c\uc81c\uc9c0
p2255
aV\ub3d9\ud654\uc57d\ud488
p2256
aV\ub450\uc0b0
p2257
aV\ub450\uc0b0\uac74\uc124
p2258
aV\ub450\uc0b0\uc5d4\uc9c4
p2259
aV\ub450\uc0b0\uc778\ud504\ub77c\ucf54\uc5b4
p2260
aV\ub450\uc0b0\uc911\uacf5\uc5c5
p2261
aV\ub514\uc528\uc5e0
p2262
aV\ub514\uc544\uc774
p2263
aV\ub514\uc544\uc774\uc528
p2264
aV\ub514\uc640\uc774
p2265
aV\ub514\uc640\uc774\ud30c\uc6cc
p2266
aV\ub514\ud53c\uc528
p2267
aV\ub77d\uc564\ub77d
p2268
aV\ub86f\ub370\uad00\uad11\uac1c\ubc1c
p2269
aV\ub86f\ub370\uc190\ud574\ubcf4\ud5d8
p2270
aV\ub86f\ub370\uc1fc\ud551
p2271
aV\ub86f\ub370\uc81c\uacfc
p2272
aV\ub86f\ub370\uce60\uc131\uc74c\ub8cc
p2273
aV\ub86f\ub370\ucf00\ubbf8\uce7c
p2274
aV\ub86f\ub370\ud478\ub4dc
p2275
aV\ub86f\ub370\ud558\uc774\ub9c8\ud2b8
p2276
aV\ub9c8\ub2c8\ucee4
p2277
aV\ub9cc\ub3c4
p2278
aV\ub9cc\ud638\uc81c\uac15
p2279
aV\ub9e5\ucffc\ub9ac\uc778\ud504\ub77c
p2280
aV\ub9f5\uc2a4\ub9ac\uc5bc\ud2f01
p2281
aV\uba54\ub9ac\uce20\uae08\uc735\uc9c0\uc8fc
p2282
aV\uba54\ub9ac\uce20\uc885\uae08\uc99d\uad8c
p2283
aV\uba54\ub9ac\uce20\ud654\uc7ac
p2284
aV\uba85\ubb38\uc81c\uc57d
p2285
aV\ubaa8\ub098\ub9ac\uc790
p2286
aV\ubaa8\ub098\ubbf8
p2287
aV\ubaa8\ud1a0\ub2c9
p2288
aV\ubb34\ub9bcP&P
p2289
aV\ubb34\ub9bc\ud398\uc774\ud37c
p2290
aV\ubb34\ud559
p2291
aV\ubb38\ubc30\ucca0\uac15
p2292
aV\ubbf8\ub798\uc0b0\uc5c5
p2293
aV\ubbf8\ub798\uc544\uc774\uc564\uc9c0
p2294
aV\ubbf8\ub798\uc5d0\uc14b\uc0dd\uba85
p2295
aV\ubbf8\ub798\uc5d0\uc14b\uc99d\uad8c
p2296
aV\ubbf8\uc6d0\uc0c1\uc0ac
p2297
aV\ubbf8\uc6d0\uc5d0\uc2a4\uc528
p2298
aV\ubbf8\uc6d0\ud654\ud559
p2299
aV\ubbf8\ucc3d\uc11d\uc720\uacf5\uc5c5
p2300
aV\ubc14\ub2e4\ub85c19\ud638
p2301
aV\ubc14\ub2e4\ub85c3\ud638
p2302
aV\ubc29\ub9bc
p2303
aV\ubc31\uad11\uc0b0\uc5c5
p2304
aV\ubc31\uad11\uc18c\uc7ac
p2305
aV\ubc31\uc0b0
p2306
aV\ubc94\uc591\uac74\uc601
p2307
aV\ubca0\ud2b8\ub0a8\uac1c\ubc1c1
p2308
aV\ubcbd\uc0b0
p2309
aV\ubcf4\ub77d
p2310
aV\ubcf4\ub839\uc81c\uc57d
p2311
aV\ubcf4\ub8e8\ub124\uc624\uac00\uad6c
p2312
aV\ubcf4\ud574\uc591\uc870
p2313
aV\ubd80\uad11\uc57d\ud488
p2314
aV\ubd80\uad6d\uc99d\uad8c
p2315
aV\ubd80\uad6d\ucca0\uac15
p2316
aV\ubd80\uc0b0\ub3c4\uc2dc\uac00\uc2a4
p2317
aV\ubd80\uc0b0\uc0b0\uc5c5
p2318
aV\ubd80\uc0b0\uc8fc\uacf5
p2319
aV\ube44\uc0c1\uad50\uc721
p2320
aV\ube59\uadf8\ub808
p2321
aV\uc0ac\uc870\ub300\ub9bc
p2322
aV\uc0ac\uc870\uc0b0\uc5c5
p2323
aV\uc0ac\uc870\uc528\ud478\ub4dc
p2324
aV\uc0ac\uc870\uc624\uc591
p2325
aV\uc0ac\uc870\ud574\ud45c
p2326
aV\uc0bc\uad11\uae00\ub77c\uc2a4
p2327
aV\uc0bc\ub9bd\uc2dd\ud488
p2328
aV\uc0bc\ubd80\ud1a0\uac74
p2329
aV\uc0bc\uc131SDI
p2330
aV\uc0bc\uc131\uacf5\uc870
p2331
aV\uc0bc\uc131\ubb3c\uc0b0
p2332
aV\uc0bc\uc131\uc0dd\uba85
p2333
aV\uc0bc\uc131\uc5d0\uc2a4\ub514\uc5d0\uc2a4
p2334
aV\uc0bc\uc131\uc5d4\uc9c0\ub2c8\uc5b4\ub9c1
p2335
aV\uc0bc\uc131\uc804\uae30
p2336
aV\uc0bc\uc131\uc804\uc790
p2337
aV\uc0bc\uc131\uc815\ubc00\ud654\ud559
p2338
aV\uc0bc\uc131\uc81c\uc57d
p2339
aV\uc0bc\uc131\uc911\uacf5\uc5c5
p2340
aV\uc0bc\uc131\uc99d\uad8c
p2341
aV\uc0bc\uc131\ucd9c\ud310\uc0ac
p2342
aV\uc0bc\uc131\uce74\ub4dc
p2343
aV\uc0bc\uc131\ud654\uc7ac\ud574\uc0c1\ubcf4\ud5d8
p2344
aV\uc0bc\uc544\uc54c\ubbf8\ub284
p2345
aV\uc0bc\uc591\uc0ac
p2346
aV\uc0bc\uc591\uc2dd\ud488
p2347
aV\uc0bc\uc591\uc81c\ub125\uc2a4
p2348
aV\uc0bc\uc591\ud1b5\uc0c1
p2349
aV\uc0bc\uc591\ud640\ub529\uc2a4
p2350
aV\uc0bc\uc601\ubb34\uc5ed
p2351
aV\uc0bc\uc601\uc804\uc790\uacf5\uc5c5
p2352
aV\uc0bc\uc601\ud654\ud559\uacf5\uc5c5
p2353
aV\uc0bc\uc6d0\uac15\uc7ac
p2354
aV\uc0bc\uc775THK
p2355
aV\uc0bc\uc775\uc545\uae30
p2356
aV\uc0bc\uc77c\uc81c\uc57d
p2357
aV\uc0bc\uc815\ud384\ud504
p2358
aV\uc0bc\uc9c4\uc81c\uc57d
p2359
aV\uc0bc\ucc9c\ub9ac
p2360
aV\uc0bc\ud638
p2361
aV\uc0bc\ud638\uac1c\ubc1c
p2362
aV\uc0bc\ud654\uc655\uad00
p2363
aV\uc0bc\ud654\uc804\uae30
p2364
aV\uc0bc\ud654\uc804\uc790\uacf5\uc5c5
p2365
aV\uc0bc\ud654\ucf58\ub374\uc11c\uacf5\uc5c5
p2366
aV\uc0bc\ud654\ud398\uc778\ud2b8\uacf5\uc5c5
p2367
aV\uc0bc\ud658\uae4c\ubba4
p2368
aV\uc0c1\uc2e0\ube0c\ub808\uc774\ud06c
p2369
aV\uc0c8\ub860\uc624\ud1a0\ubaa8\ud2f0\ube0c
p2370
aV\uc0d8\ud45c\uc2dd\ud488
p2371
aV\uc11c\uc5f0
p2372
aV\uc11c\uc6b8\ub3c4\uc2dc\uac00\uc2a4
p2373
aV\uc11c\uc6b8\uc2dd\ud488\uacf5\uc5c5
p2374
aV\uc11c\uc6d0
p2375
aV\uc11c\ud765
p2376
aV\uc120\ub3c4\uc804\uae30
p2377
aV\uc120\uc9c4
p2378
aV\uc120\ucc3d\uc0b0\uc5c5
p2379
aV\uc131\ubb38\uc804\uc790
p2380
aV\uc131\ubcf4\ud654\ud559
p2381
aV\uc131\uc2e0\uc591\ud68c
p2382
aV\uc131\uc548
p2383
aV\uc131\uc9c0\uac74\uc124
p2384
aV\uc131\ucc3d\uae30\uc5c5\uc9c0\uc8fc
p2385
aV\uc138\uae30\uc0c1\uc0ac
p2386
aV\uc138\ubc29
p2387
aV\uc138\ubc29\uc804\uc9c0
p2388
aV\uc138\uc544\ubca0\uc2a4\ud2f8
p2389
aV\uc138\uc544\uc81c\uac15
p2390
aV\uc138\uc544\ud2b9\uc218\uac15
p2391
aV\uc138\uc544\ud640\ub529\uc2a4
p2392
aV\uc138\uc6b0\uae00\ub85c\ubc8c
p2393
aV\uc138\uc6d0\uc140\ub860\ud14d
p2394
aV\uc138\uc6d0\uc815\uacf5
p2395
aV\uc138\uc774\ube0c\uc874I&C
p2396
aV\uc138\uc885\uacf5\uc5c5
p2397
aV\uc138\ud558
p2398
aV\uc138\ud654\uc544\uc774\uc5e0\uc528
p2399
aV\uc1a1\uc6d0\uc0b0\uc5c5
p2400
aV\uc218\uc0b0\uc911\uacf5\uc5c5
p2401
aV\uc288\ub12c\uc0dd\uba85\uacfc\ud559
p2402
aV\uc2e0\ub300\uc591\uc81c\uc9c0
p2403
aV\uc2e0\ub3c4\ub9ac\ucf54
p2404
aV\uc2e0\ub77c\uad50\uc5ed
p2405
aV\uc2e0\uc131\uc194\ub77c\uc5d0\ub108\uc9c0
p2406
aV\uc2e0\uc131\uc5d0\ud504\uc5d0\uc774
p2407
aV\uc2e0\uc131\uc774\uc5d4\uc9c0
p2408
aV\uc2e0\uc131\ud1b5\uc0c1
p2409
aV\uc2e0\uc138\uacc4
p2410
aV\uc2e0\uc138\uacc4I&C
p2411
aV\uc2e0\uc138\uacc4\uac74\uc124
p2412
aV\uc2e0\uc138\uacc4\uc778\ud130\ub0b4\uc154\ub0a0
p2413
aV\uc2e0\uc138\uacc4\ud478\ub4dc
p2414
aV\uc2e0\uc1a1\ud640\ub529\uc2a4
p2415
aV\uc2e0\uc601\uc640\ucf54\ub8e8
p2416
aV\uc2e0\uc601\uc99d\uad8c
p2417
aV\uc2e0\uc6b0
p2418
aV\uc2e0\uc6d0
p2419
aV\uc2e0\uc77c\uc0b0\uc5c5
p2420
aV\uc2e0\ud48d\uc81c\uc57d
p2421
aV\uc2e0\ud48d\uc81c\uc9c0
p2422
aV\uc2e0\ud55c
p2423
aV\uc2e0\ud55c\uc9c0\uc8fc
p2424
aV\uc2e0\ud654\uc2e4\uc5c5
p2425
aV\uc2e0\ud765
p2426
aV\uc30d\ubc29\uc6b8
p2427
aV\uc30d\uc6a9\uba38\ud2f0\ub9ac\uc5bc
p2428
aV\uc30d\uc6a9\uc591\ud68c\uacf5\uc5c5
p2429
aV\uc30d\uc6a9\uc790\ub3d9\ucc28
p2430
aV\uc368\ub2c8\uc804\uc790
p2431
aV\uc528\uc544\uc774\ud14c\ud06c
p2432
aV\uc528\uc5d0\uc2a4\uc708\ub4dc
p2433
aV\uc544\ub0a8\uc804\uc790
p2434
aV\uc544\ubaa8\ub808\ud37c\uc2dc\ud53d
p2435
aV\uc544\ubaa8\ub808\ud37c\uc2dc\ud53d\uadf8\ub8f9
p2436
aV\uc544\ube44\uc2a4\ud0c0
p2437
aV\uc544\uc138\uc544
p2438
aV\uc544\uc138\uc544\uc2dc\uba58\ud2b8
p2439
aV\uc544\uc138\uc544\uc81c\uc9c0
p2440
aV\uc544\uc2dc\uc54410\ud638
p2441
aV\uc544\uc2dc\uc544\ub098\ud56d\uacf5
p2442
aV\uc544\uc2dc\uc544\ud37c\uc2dc\ud53d11\ud638
p2443
aV\uc544\uc2dc\uc544\ud37c\uc2dc\ud53d12\ud638
p2444
aV\uc544\uc2dc\uc544\ud37c\uc2dc\ud53d13\ud638
p2445
aV\uc544\uc2dc\uc544\ud37c\uc2dc\ud53d14\ud638
p2446
aV\uc544\uc2dc\uc544\ud37c\uc2dc\ud53d15\ud638
p2447
aV\uc544\uc774\ub9c8\ucf13\ucf54\ub9ac\uc544
p2448
aV\uc544\uc774\uc5d0\uc2a4\ub3d9\uc11c
p2449
aV\uc544\uc774\uc5d0\uc774\uce58\ud050
p2450
aV\uc544\uc8fc\uce90\ud53c\ud0c8
p2451
aV\uc544\ud2f0\uc2a4
p2452
aV\uc54c\ub8e8\ucf54
p2453
aV\uc54c\ubcf4\uc820\ucf54\ub9ac\uc544
p2454
aV\uc560\uacbd\uc720\ud654
p2455
aV\uc5d0\ub125\uc2a4
p2456
aV\uc5d0\ub9ac\ud2b8\ubca0\uc774\uc9c1
p2457
aV\uc5d0\uc2a4\uc5d8
p2458
aV\uc5d0\uc2a4\uc6d0
p2459
aV\uc5d0\uc2a4\uc81c\uc774\uc5e0
p2460
aV\uc5d0\uc2a4\uc81c\uc774\uc5e0\ud640\ub529\uc2a4
p2461
aV\uc5d0\uc2a4\ucf00\uc774\ub514\uc564\ub514
p2462
aV\uc5d0\uc4f0\uc528\uc5d4\uc9c0\ub2c8\uc5b4\ub9c1
p2463
aV\uc5d0\uc774\ube14\uc528\uc5d4\uc528
p2464
aV\uc5d0\uc774\uc5d4\ud53c
p2465
aV\uc5d4\uc528\uc18c\ud504\ud2b8
p2466
aV\uc5d4\uc5d0\uc2a4\uc1fc\ud551
p2467
aV\uc5d4\ucf00\uc774
p2468
aV\uc5d4\ud53c\uc528
p2469
aV\uc5e0\ucf00\uc774\ud2b8\ub80c\ub4dc
p2470
aV\uc601\ubcf4\ud654\ud559
p2471
aV\uc601\uc6d0\ubb34\uc5ed
p2472
aV\uc601\uc6d0\ubb34\uc5ed\ud640\ub529\uc2a4
p2473
aV\uc601\uc9c4\uc57d\ud488\uacf5\uc5c5
p2474
aV\uc601\ud48d
p2475
aV\uc601\ud48d\uc81c\uc9c0
p2476
aV\uc601\ud654\uae08\uc18d
p2477
aV\uc601\ud765\ucca0\uac15
p2478
aV\uc608\uc2a4\ucf54
p2479
aV\uc624\ub69c\uae30
p2480
aV\uc624\ub9ac\uc5d4\ud2b8\ubc14\uc774\uc624
p2481
aV\uc624\ub9ac\uc628
p2482
aV\uc640\uc774\ube44\ub85c\ub4dc
p2483
aV\uc6b0\ub9ac\ub4e4\uc81c\uc57d
p2484
aV\uc6b0\ub9ac\ub4e4\ud734\ube0c\ub808\uc778
p2485
aV\uc6b0\ub9ac\uc740\ud589
p2486
aV\uc6b0\ub9ac\uc885\uae08
p2487
aV\uc6b0\uc131\uc0ac\ub8cc
p2488
aV\uc6b0\uc2e0\uc2dc\uc2a4\ud15c
p2489
aV\uc6b0\uc9c4
p2490
aV\uc6b0\uc9c4\ud50c\ub77c\uc784
p2491
aV\uc6c5\uc9c4
p2492
aV\uc6c5\uc9c4\uc53d\ud06c\ube45
p2493
aV\uc6c5\uc9c4\uc5d0\ub108\uc9c0
p2494
aV\uc6d0\ub9bc
p2495
aV\uc70c\ube44\uc2a4
p2496
aV\uc720\ub098\uc774\ud2f0\ub4dc
p2497
aV\uc720\ub2c8\ub4dc
p2498
aV\uc720\ub2c8\uc628
p2499
aV\uc720\ub2c8\ucf10
p2500
aV\uc720\ub2c8\ud018\uc2a4\ud2b8
p2501
aV\uc720\uc131\uae30\uc5c5
p2502
aV\uc720\uc218\ud640\ub529\uc2a4
p2503
aV\uc720\uc548\ud0c0\uc99d\uad8c
p2504
aV\uc720\uc591\ub514\uc564\uc720
p2505
aV\uc720\uc5d4\uc824
p2506
aV\uc720\uc720\uc81c\uc57d
p2507
aV\uc720\uc9c4\uc99d\uad8c
p2508
aV\uc720\ud55c\uc591\ud589
p2509
aV\uc720\ud654\uc99d\uad8c
p2510
aV\uc728\ucd0c\ud654\ud559
p2511
aV\uc774\uac74\uc0b0\uc5c5
p2512
aV\uc774\uad6c\uc0b0\uc5c5
p2513
aV\uc774\ub178\uc158
p2514
aV\uc774\ub9c8\ud2b8
p2515
aV\uc774\uc218\ud398\ud0c0\uc2dc\uc2a4
p2516
aV\uc774\uc218\ud654\ud559
p2517
aV\uc774\uc2a4\ud0c0\ucf54
p2518
aV\uc774\uc544\uc774\ub514
p2519
aV\uc774\uc5d4\uc4f0\ub9ac
p2520
aV\uc774\uc5f0\uc81c\uc57d
p2521
aV\uc774\uc6d4\ub4dc
p2522
aV\uc774\ucf54\ub9ac\uc544\ub9ac\uce20
p2523
aV\uc774\ud654\uc0b0\uc5c5
p2524
aV\uc778\ub514\uc5d0\ud504
p2525
aV\uc778\uc2a4\ucf54\ube44
p2526
aV\uc778\uc9c0\ucee8\ud2b8\ub864\uc2a4
p2527
aV\uc778\ucc9c\ub3c4\uc2dc\uac00\uc2a4
p2528
aV\uc778\ud130\uc9c0\uc2a4
p2529
aV\uc778\ud329
p2530
aV\uc77c\ub3d9\uc81c\uc57d
p2531
aV\uc77c\uc131\uac74\uc124
p2532
aV\uc77c\uc131\uc2e0\uc57d
p2533
aV\uc77c\uc2e0\ubc29\uc9c1
p2534
aV\uc77c\uc2e0\uc11d\uc7ac
p2535
aV\uc77c\uc591\uc57d\ud488
p2536
aV\uc77c\uc815\uc2e4\uc5c5
p2537
aV\uc77c\uc9c4\ub2e4\uc774\uc544
p2538
aV\uc77c\uc9c4\ub514\uc2a4\ud50c
p2539
aV\uc77c\uc9c4\uba38\ud2f0\ub9ac\uc5bc\uc988
p2540
aV\uc77c\uc9c4\uc804\uae30
p2541
aV\uc77c\uc9c4\ud640\ub529\uc2a4
p2542
aV\uc790\ud654\uc804\uc790
p2543
aV\uc804\ubc29
p2544
aV\uc81c\uc77c\uae30\ud68d
p2545
aV\uc81c\uc77c\ubaa8\uc9c1
p2546
aV\uc81c\uc77c\uc57d\ud488
p2547
aV\uc81c\uc77c\uc5f0\ub9c8
p2548
aV\uc81c\uc8fc\uc740\ud589
p2549
aV\uc870\uad11\ud398\uc778\ud2b8
p2550
aV\uc870\uad11\ud53c\ud601
p2551
aV\uc870\ube44
p2552
aV\uc870\uc120\ub0b4\ud654
p2553
aV\uc870\uc120\uc120\uc7ac
p2554
aV\uc870\uc77c\uc54c\ubbf8\ub284
p2555
aV\uc870\ud765
p2556
aV\uc885\uadfc\ub2f9
p2557
aV\uc885\uadfc\ub2f9\ubc14\uc774\uc624
p2558
aV\uc885\uadfc\ub2f9\ud640\ub529\uc2a4
p2559
aV\uc8fc\uc5f0\ud14c\ud06c
p2560
aV\uc911\uad6d\uc6d0\uc591\uc790\uc6d0
p2561
aV\uc9c0\uc5d0\uc2a4\uc778\uc2a4\ud2b8\ub8e8
p2562
aV\uc9c0\uc5e0\ube44\ucf54\ub9ac\uc544
p2563
aV\uc9c0\uc5ed\ub09c\ubc29\uacf5\uc0ac
p2564
aV\uc9c0\ucf54
p2565
aV\uc9c4\ub3c4
p2566
aV\uc9c4\uc591\uc0b0\uc5c5
p2567
aV\uc9c4\uc591\ud3f4\ub9ac\uc6b0\ub808\ud0c4
p2568
aV\uc9c4\uc591\ud640\ub529\uc2a4
p2569
aV\uc9c4\uc591\ud654\ud559
p2570
aV\uc9c4\uc6d0\uc0dd\uba85\uacfc\ud559
p2571
aV\uc9c4\ud765\uae30\uc5c5
p2572
aV\ucc38\uc5d4\uc9c0\ub2c8\uc5b4\ub9c1
p2573
aV\ucc9c\uc77c\uace0\uc18d
p2574
aV\uccad\ud638\ucef4\ub137
p2575
aV\uccb4\uc2dc\uc2a4
p2576
aV\uce74\ud504\ub85c
p2577
aV\ucf00\uc774\ube44\uce90\ud53c\ud0c8
p2578
aV\ucf00\uc774\uc528\uc528
p2579
aV\ucf00\uc774\uc528\ud14d
p2580
aV\ucf00\uc774\uc528\ud2f0\uc2dc
p2581
aV\ucf00\uc774\ud0d1\ub9ac\uce20
p2582
aV\ucf00\uc774\ud2f0
p2583
aV\ucf00\uc774\ud2f0\uc2a4
p2584
aV\ucf00\uc774\ud2f0\uc2a4\uce74\uc774\ub77c\uc774\ud504
p2585
aV\ucf00\uc774\ud2f0\uc564\uc9c0
p2586
aV\ucf54\ub77c\uc624\ud640\ub529\uc2a4
p2587
aV\ucf54\ub9ac\uc54401\ud638
p2588
aV\ucf54\ub9ac\uc54402\ud638
p2589
aV\ucf54\ub9ac\uc54403\ud638
p2590
aV\ucf54\ub9ac\uc54404\ud638
p2591
aV\ucf54\ub9ac\uc544\uc368\ud0a4\ud2b8
p2592
aV\ucf54\ub9ac\uc548\ub9ac
p2593
aV\ucf54\uc2a4\ub9e5\uc2a4
p2594
aV\ucf54\uc2a4\ub9e5\uc2a4\ube44\ud2f0\uc544\uc774
p2595
aV\ucf54\uc2a4\ubaa8\uc2e0\uc18c\uc7ac
p2596
aV\ucf54\uc2a4\ubaa8\ud654\ud559
p2597
aV\ucf54\uc544\uc2a4
p2598
aV\ucf54\uc624\ub871
p2599
aV\ucf54\uc624\ub871\uae00\ub85c\ubc8c
p2600
aV\ucf54\uc624\ub871\uba38\ud2f0\ub9ac\uc5bc
p2601
aV\ucf54\uc624\ub871\uc778\ub354
p2602
aV\ucf54\uc624\ub871\ud50c\ub77c\uc2a4\ud2f1
p2603
aV\ucf54\uc6e8\uc774
p2604
aV\ucf54\ud06c\ub81915\ud638
p2605
aV\ucf64\ud14d\uc2dc\uc2a4\ud15c
p2606
aV\ucfe0\ucfe0\uc804\uc790
p2607
aV\ud06c\ub77c\uc6b4\uc81c\uacfc
p2608
aV\ud0a4\uc2a4\ud1a4\uae00\ub85c\ubc8c
p2609
aV\ud0a4\uc6c0\uc99d\uad8c
p2610
aV\ud0dc\uacbd\uc0b0\uc5c5
p2611
aV\ud0dc\uacbd\ud654\ud559
p2612
aV\ud0dc\uad11\uc0b0\uc5c5
p2613
aV\ud0dc\ub9bc\ud3ec\uc7a5\uacf5\uc5c5
p2614
aV\ud0dc\uc591\uae08\uc18d\uacf5\uc5c5
p2615
aV\ud0dc\uc601\uac74\uc124
p2616
aV\ud0dc\uc6d0\ubb3c\uc0b0
p2617
aV\ud0dc\ud3c9\uc591\ubb3c\uc0b0
p2618
aV\ud154\ucf54\uc6e8\uc5b4
p2619
aV\ud1a0\ub2c8\ubaa8\ub9ac
p2620
aV\ud2b8\ub7ec\uc2a4\uc81c7\ud638
p2621
aV\ud2f0\uc5d0\uc774\uce58\uc5d4
p2622
aV\ud2f0\uc6e8\uc774\ud640\ub529\uc2a4
p2623
aV\ud2f0\uc774\uc528\ucf54
p2624
aV\ud300\uc2a4
p2625
aV\ud30c\ubbf8\uc140
p2626
aV\ud31c\uc2a4\ucf54
p2627
aV\ud32c\uc624\uc158
p2628
aV\ud37c\uc2a4\ud14d
p2629
aV\ud37c\uc2dc\uc2a4
p2630
aV\ud398\uc774\ud37c\ucf54\ub9ac\uc544
p2631
aV\ud3c9\uc0b0\ucc28\uc5c5
p2632
aV\ud3c9\ud654\uc0b0\uc5c5
p2633
aV\ud3c9\ud654\ud640\ub529\uc2a4
p2634
aV\ud3ec\uc2a4\ucf54
p2635
aV\ud3ec\uc2a4\ucf54\uac15\ud310
p2636
aV\ud3ec\uc2a4\ucf54\ud50c\ub79c\ud14d
p2637
aV\ud480\ubb34\uc6d0
p2638
aV\ud48d\uc0b0
p2639
aV\ud48d\uc0b0\ud640\ub529\uc2a4
p2640
aV\ud544\ub8e9\uc2a4
p2641
aV\ud558\ub098\uae08\uc735\uc9c0\uc8fc
p2642
aV\ud558\ub098\ub2c8\ucf081\ud638
p2643
aV\ud558\ub098\ub2c8\ucf082\ud638
p2644
aV\ud558\ub098\ud22c\uc5b4
p2645
aV\ud558\uc774\uace8\ub4dc12\ud638
p2646
aV\ud558\uc774\uace8\ub4dc2\ud638
p2647
aV\ud558\uc774\uace8\ub4dc3\ud638
p2648
aV\ud558\uc774\uace8\ub4dc8\ud638
p2649
aV\ud558\uc774\uc2a4\ud2f8
p2650
aV\ud558\uc774\ud2b8\ub860\uc528\uc2a4\ud15c\uc988
p2651
aV\ud558\uc774\ud2b8\uc9c4\ub85c
p2652
aV\ud558\uc774\ud2b8\uc9c4\ub85c\ud640\ub529\uc2a4
p2653
aV\ud55c\uad6dANKOR\uc720\uc804
p2654
aV\ud55c\uad6d\uac00\uc2a4\uacf5\uc0ac
p2655
aV\ud55c\uad6d\uacf5\ud56d
p2656
aV\ud55c\uad6d\uae08\uc735\uc9c0\uc8fc
p2657
aV\ud55c\uad6d\ub0b4\ud654
p2658
aV\ud55c\uad6d\ub2e8\uc790\uacf5\uc5c5
p2659
aV\ud55c\uad6d\uc11d\uc720\uacf5\uc5c5
p2660
aV\ud55c\uad6d\uc218\ucd9c\ud3ec\uc7a5\uacf5\uc5c5
p2661
aV\ud55c\uad6d\uc258\uc11d\uc720
p2662
aV\ud55c\uad6d\uc720\ub9ac\uacf5\uc5c5
p2663
aV\ud55c\uad6d\uc804\ub825\uacf5\uc0ac
p2664
aV\ud55c\uad6d\uc804\uc790\ud640\ub529\uc2a4
p2665
aV\ud55c\uad6d\uc81c\uc9c0
p2666
aV\ud55c\uad6d\uc885\ud569\uae30\uc220
p2667
aV\ud55c\uad6d\uc8fc\uac15
p2668
aV\ud55c\uad6d\uc8fc\ucca0\uad00\uacf5\uc5c5
p2669
aV\ud55c\uad6d\ucca0\uac15
p2670
aV\ud55c\uad6d\uce74\ubcf8
p2671
aV\ud55c\uad6d\ucf5c\ub9c8
p2672
aV\ud55c\uad6d\ucf5c\ub9c8\ud640\ub529\uc2a4
p2673
aV\ud55c\uad6d\ud0c0\uc774\uc5b4
p2674
aV\ud55c\uad6d\ud0c0\uc774\uc5b4\uc6d4\ub4dc\uc640\uc774\ub4dc
p2675
aV\ud55c\uad6d\ud2b9\uc218\ud615\uac15
p2676
aV\ud55c\uad6d\ud328\ub7ec\ub7a0
p2677
aV\ud55c\uad6d\ud504\ub79c\uc9c0\uacf5\uc5c5
p2678
aV\ud55c\uad6d\ud56d\uacf5\uc6b0\uc8fc
p2679
aV\ud55c\uad6d\ud654\uc7a5\ud488
p2680
aV\ud55c\uad6d\ud654\uc7a5\ud488\uc81c\uc870
p2681
aV\ud55c\ub18d\ud654\uc131
p2682
aV\ud55c\ub3c5
p2683
aV\ud55c\ub77c
p2684
aV\ud55c\ub77c\ud640\ub529\uc2a4
p2685
aV\ud55c\ubbf8\uae00\ub85c\ubc8c
p2686
aV\ud55c\ubbf8\ubc18\ub3c4\uccb4
p2687
aV\ud55c\ubbf8\uc0ac\uc774\uc5b8\uc2a4
p2688
aV\ud55c\ubbf8\uc57d\ud488
p2689
aV\ud55c\uc0d8
p2690
aV\ud55c\uc12c
p2691
aV\ud55c\uc131\uae30\uc5c5
p2692
aV\ud55c\uc138\uc2e4\uc5c5
p2693
aV\ud55c\uc138\uc608\uc2a424\ud640\ub529\uc2a4
p2694
aV\ud55c\uc194\ub85c\uc9c0\uc2a4\ud2f1\uc2a4
p2695
aV\ud55c\uc194\uc544\ud2b8\uc6d0\uc81c\uc9c0
p2696
aV\ud55c\uc194\uc81c\uc9c0
p2697
aV\ud55c\uc194\ucf00\ubbf8\uce7c
p2698
aV\ud55c\uc194\ud14c\ud06c\ub2c9\uc2a4
p2699
aV\ud55c\uc194\ud53c\uc5d4\uc5d0\uc2a4
p2700
aV\ud55c\uc194\ud640\ub529\uc2a4
p2701
aV\ud55c\uc194\ud648\ub370\ucf54
p2702
aV\ud55c\uc2e0\uacf5\uc601
p2703
aV\ud55c\uc2e0\uae30\uacc4\uacf5\uc5c5
p2704
aV\ud55c\uc591\uc99d\uad8c
p2705
aV\ud55c\uc628\uc2dc\uc2a4\ud15c
p2706
aV\ud55c\uc62c\ubc14\uc774\uc624\ud30c\ub9c8
p2707
aV\ud55c\uc775\uc2a4\ud504\ub808\uc2a4
p2708
aV\ud55c\uc77c\uc2dc\uba58\ud2b8
p2709
aV\ud55c\uc77c\uc774\ud654
p2710
aV\ud55c\uc77c\ucca0\uac15
p2711
aV\ud55c\uc804KPS
p2712
aV\ud55c\uc804\uae30\uc220
p2713
aV\ud55c\uc804\uc0b0\uc5c5
p2714
aV\ud55c\uc9c4
p2715
aV\ud55c\uc9c4\uc911\uacf5\uc5c5
p2716
aV\ud55c\uc9c4\uc911\uacf5\uc5c5\ud640\ub529\uc2a4
p2717
aV\ud55c\uc9c4\uce7c
p2718
aV\ud55c\uc9c4\ud574\uc6b4
p2719
aV\ud55c\ucc3d
p2720
aV\ud55c\ucc3d\uc81c\uc9c0
p2721
aV\ud55c\ud654
p2722
aV\ud55c\ud654\uac24\ub7ec\ub9ac\uc544\ud0c0\uc784\uc6d4\ub4dc
p2723
aV\ud55c\ud654\uc0dd\uba85
p2724
aV\ud55c\ud654\uc190\ud574\ubcf4\ud5d8
p2725
aV\ud55c\ud654\ucf00\ubbf8\uce7c
p2726
aV\ud55c\ud654\ud14c\ud06c\uc708
p2727
aV\ud55c\ud654\ud22c\uc790\uc99d\uad8c
p2728
aV\ud55c\ud654\ud654\uc778\ucf00\ubbf8\uce7c
p2729
aV\ud56b\ud14d
p2730
aV\ud604\ub300EP
p2731
aV\ud604\ub300\uac74\uc124
p2732
aV\ud604\ub300\uadf8\ub9b0\ud478\ub4dc
p2733
aV\ud604\ub300\uae00\ub85c\ube44\uc2a4
p2734
aV\ud604\ub300\ub85c\ud15c
p2735
aV\ud604\ub300\ub9ac\ubc14\ud2b8
p2736
aV\ud604\ub300\ubaa8\ube44\uc2a4
p2737
aV\ud604\ub300\ubbf8\ud3ec\uc870\uc120
p2738
aV\ud604\ub300\ubc31\ud654\uc810
p2739
aV\ud604\ub300\ube44\uc564\uc9c0\uc2a4\ud2f8
p2740
aV\ud604\ub300\uc0b0\uc5c5\uac1c\ubc1c
p2741
aV\ud604\ub300\uc0c1\uc120
p2742
aV\ud604\ub300\uc2dc\uba58\ud2b8
p2743
aV\ud604\ub300\uc57d\ud488
p2744
aV\ud604\ub300\uc5d0\uc774\uce58\uc528\uc5d4
p2745
aV\ud604\ub300\uc5d8\ub9ac\ubca0\uc774\ud130
p2746
aV\ud604\ub300\uc704\uc544
p2747
aV\ud604\ub300\uc790\ub3d9\ucc28
p2748
aV\ud604\ub300\uc81c\ucca0
p2749
aV\ud604\ub300\uc885\ud569\uc0c1\uc0ac
p2750
aV\ud604\ub300\uc911\uacf5\uc5c5
p2751
aV\ud604\ub300\uc99d\uad8c
p2752
aV\ud604\ub300\ud398\uc778\ud2b8
p2753
aV\ud604\ub300\ud574\uc0c1
p2754
aV\ud604\ub300\ud648\uc1fc\ud551
p2755
aV\ud61c\uc778
p2756
aV\ud638\ud154\uc2e0\ub77c
p2757
aV\ud654\uc131\uc0b0\uc5c5
p2758
aV\ud654\uc2b9\uc54c\uc564\uc5d0\uc774
p2759
aV\ud654\uc2b9\uc778\ub354\uc2a4\ud2b8\ub9ac
p2760
aV\ud654\uc2e0
p2761
aV\ud654\uc778\ubca0\uc2a4\ud2f8
p2762
aV\ud654\ucc9c\uae30\uacc4
p2763
aV\ud654\ucc9c\uae30\uacf5
p2764
aV\ud658\uc778\uc81c\uc57d
p2765
aV\ud669\uae08\uc5d0\uc2a4\ud2f0
p2766
aV\ud6a8\uc131
p2767
aV\ud6a8\uc131 ITX
p2768
aV\ud6c4\uc131
p2769
aV\ud720\ub77c\ucf54\ub9ac\uc544
p2770
aV\ud734\ub2c8\ub4dc\ud14c\ud06c\ub180\ub7ec\uc9c0\uc2a4
p2771
aV\ud734\ube44\uc2a4
p2772
aV\ud734\uc2a4\ud2f8
p2773
aV\ud734\ucf10\uc2a4
p2774
aV\ud765\uad6d\ud654\uc7ac
p2775
aV\ud765\uc544\ud574\uc6b4
p2776
aVAP\uc2dc\uc2a4\ud15c
p2777
aVAST\uc82f\ud14d
p2778
aVC&S\uc790\uc0b0\uad00\ub9ac
p2779
aVCJ E&M
p2780
aVCJ\uc624\uc1fc\ud551
p2781
aVCJ\ud504\ub808\uc2dc\uc6e8\uc774
p2782
aVCMG\uc81c\uc57d
p2783
aVCNH
p2784
aVCS
p2785
aVDMS
p2786
aVEG
p2787
aVEMW
p2788
aVGST
p2789
aVGS\ud648\uc1fc\ud551
p2790
aVGT&T
p2791
aVHB\ud14c\ud06c\ub180\ub7ec\uc9c0
p2792
aVHRS
p2793
aVIBKS\uc81c2\ud638\uc2a4\ud329
p2794
aVISC
p2795
aVITX\uc2dc\ud050\ub9ac\ud2f0
p2796
aVJW\uc911\uc678\uc2e0\uc57d
p2797
aVJYP Ent.
p2798
aVKB\uc624\ud1a0\uc2dc\uc2a4
p2799
aVKCC\uac74\uc124
p2800
aVKCI
p2801
aVKCW
p2802
aVKG ETS
p2803
aVKG\ubaa8\ube4c\ub9ac\uc5b8\uc2a4
p2804
aVKG\uc774\ub2c8\uc2dc\uc2a4
p2805
aVKH\ubc14\ud14d
p2806
aVKJ\ud504\ub9ac\ud14d
p2807
aVKMH
p2808
aVKNN
p2809
aVKPX\uc0dd\uba85\uacfc\ud559
p2810
aVKTH
p2811
aVKT\ubba4\uc9c1
p2812
aVKT\uc11c\ube0c\ub9c8\ub9b0
p2813
aVLIG\uc778\ubca0\ub2c8\uc544
p2814
aVMBK
p2815
aVMDS\ud14c\ud06c
p2816
aVMPK
p2817
aVNEW
p2818
aVNICE\ud3c9\uac00\uc815\ubcf4
p2819
aVOCI\uba38\ud2f0\ub9ac\uc5bc\uc988
p2820
aVPN\ud48d\ub144
p2821
aVS&K\ud3f4\ub9ac\ud14d
p2822
aVSBI\uc561\uc2dc\uc988
p2823
aVSBI\uc778\ubca0\uc2a4\ud2b8\uba3c\ud2b8
p2824
aVSBS\ucf58\ud150\uce20\ud5c8\ube0c
p2825
aVSDN
p2826
aVSG&G
p2827
aVSGA
p2828
aVSH \ud640\ub529\uc2a4
p2829
aVSIMPAC METALLOY
p2830
aVSK1\ud638\uc2a4\ud329
p2831
aVSK2\ud638\uc2a4\ud329
p2832
aVSKC \uc194\ubbf9\uc2a4
p2833
aVSKC\ucf54\uc624\ub871PI
p2834
aVSK\ucef4\uc988
p2835
aVSM C&C
p2836
aVSNH
p2837
aVSTS\ubc18\ub3c4\uccb4
p2838
aVTJ\ubbf8\ub514\uc5b4
p2839
aVTPC
p2840
aVYBM\uc2dc\uc0ac\ub2f7\ucef4
p2841
aVYTN
p2842
aVYW
p2843
aViMBC
p2844
aV\uac00\ube44\uc544
p2845
aV\uac00\uc628\ubbf8\ub514\uc5b4
p2846
aV\uac00\ud76c
p2847
aV\uac10\ub9c8\ub204
p2848
aV\uac11\uc744\uba54\ud0c8
p2849
aV\uac24\ub7ed\uc2dc\uc544\ucef4\uc988
p2850
aV\uac8c\uc784\ube4c
p2851
aV\uacbd\ub0a8\uc2a4\ud2f8
p2852
aV\uacbd\ub0a8\uc81c\uc57d
p2853
aV\uacbd\ub3d9\uc81c\uc57d
p2854
aV\uacbd\ubd09
p2855
aV\uacbd\ucc3d\uc0b0\uc5c5
p2856
aV\uace0\ub824\ubc18\ub3c4\uccb4
p2857
aV\uace0\ub824\uc2e0\uc6a9\uc815\ubcf4
p2858
aV\uace0\ub824\uc81c\uc57d
p2859
aV\uace0\uc601
p2860
aV\uace8\ub4e0\ube0c\ub9bf\uc9c0\uc81c2\ud638\uc2a4\ud329
p2861
aV\uace8\ub4e0\ube0c\ub9bf\uc9c0\uc81c3\ud638\uc2a4\ud329
p2862
aV\uace8\ud504\uc874
p2863
aV\uace8\ud504\uc874\uc720\uc6d0\ud640\ub529\uc2a4
p2864
aV\uad11\ub9bc
p2865
aV\uad11\uc9c4\uc2e4\uc5c5
p2866
aV\uad11\uc9c4\uc708\ud14d
p2867
aV\uad50\ubcf43\ud638\uc2a4\ud329
p2868
aV\uad50\ubcf44\ud638\uc2a4\ud329
p2869
aV\uad50\ubcf45\ud638\uc2a4\ud329
p2870
aV\uad6c\uc601\ud14c\ud06c
p2871
aV\uad6d\ubcf4\ub514\uc790\uc778
p2872
aV\uad6d\uc21c\ub2f9
p2873
aV\uad6d\uc601\uc9c0\uc564\uc5e0
p2874
aV\uad6d\uc77c\uc2e0\ub3d9
p2875
aV\uad6d\uc77c\uc81c\uc9c0
p2876
aV\uadf8\ub79c\ub4dc\ubc31\ud654\uc810
p2877
aV\uae00\ub85c\ubc8c\uc5d0\uc2a4\uc5e0
p2878
aV\uae08\uac15\ucca0\uac15
p2879
aV\uae08\uc131\ud14c\ud06c
p2880
aV\uae08\ud638\uc5d4\ud2f0
p2881
aV\uae08\ud654\ud53c\uc5d0\uc2a4\uc2dc
p2882
aV\uae30\uac00\ub808\uc778
p2883
aV\uae30\uc0b0\ud154\ub808\ucf64
p2884
aV\ub098\ub178
p2885
aV\ub098\ub178\uc2a4
p2886
aV\ub098\ub178\uc2e0\uc18c\uc7ac
p2887
aV\ub098\ub178\uc5d4\ud14d
p2888
aV\ub098\ub178\ucea0\ud14d
p2889
aV\ub098\ub77c\uc5e0\uc564\ub514
p2890
aV\ub098\uc2a4\ubbf8\ub514\uc5b4
p2891
aV\ub098\uc774\ubca1
p2892
aV\ub098\uc774\uc2a4\ub514\uc564\ube44
p2893
aV\ub098\uc774\uc2a4\uc815\ubcf4\ud1b5\uc2e0
p2894
aV\ub0a8\ud654\ud1a0\uac74
p2895
aV\ub0b4\uce04\ub7f4\uc5d4\ub3c4\ud14d
p2896
aV\ub124\uc624\ub514\uc548\ud14c\ud06c\ub180\ub85c\uc9c0
p2897
aV\ub124\uc624\uc704\uc988\uac8c\uc784\uc988
p2898
aV\ub124\uc624\uc704\uc988\uc778\ud130\ub137
p2899
aV\ub124\uc624\uc704\uc988\ud640\ub529\uc2a4
p2900
aV\ub124\uc624\uc774\ub179\uc2a4\uc5d4\ubaa8\ud06c\uc2a4
p2901
aV\ub124\uc624\ud2f0\uc2a4
p2902
aV\ub124\uc624\ud31c
p2903
aV\ub124\uc624\ud53c\ub378\ub9ac\ud2f0
p2904
aV\ub124\uc774\ube14\ucee4\ubba4\ub2c8\ucf00\uc774\uc158\uc988
p2905
aV\ub124\uc774\ucc98\uc140
p2906
aV\ub124\ud328\uc2a4
p2907
aV\ub124\ud328\uc2a4\uc2e0\uc18c\uc7ac
p2908
aV\ub125\uc13c\ud14c\ud06c
p2909
aV\ub125\uc2a4\ud134
p2910
aV\ub125\uc2a4\ud2b8BT
p2911
aV\ub125\uc2a4\ud2b8\ub9ac\ubc0d
p2912
aV\ub125\uc2a4\ud2b8\uc544\uc774
p2913
aV\ub125\uc2a4\ud2b8\uce69
p2914
aV\ub125\uc2a8\uc9c0\ud2f0
p2915
aV\ub179\uc2ed\uc790\uc140
p2916
aV\ub179\uc2ed\uc790\uc5e0\uc5d0\uc2a4
p2917
aV\ub18d\uc6b0\ubc14\uc774\uc624
p2918
aV\ub204\ub9ac\ud154\ub808\ucf64
p2919
aV\ub204\ub9ac\ud50c\ub79c
p2920
aV\ub274\ub85c\uc2a4
p2921
aV\ub274\ubcf4\ud14d
p2922
aV\ub274\uc778\ud14d
p2923
aV\ub274\ud504\ub77c\uc774\ub4dc
p2924
aV\ub274\ud504\ub809\uc2a4
p2925
aV\ub2a5\ub960\uad50\uc721
p2926
aV\ub2e4\ub098\uc640
p2927
aV\ub2e4\ub0a0
p2928
aV\ub2e4\ubbc8\uba40\ud2f0\ubbf8\ub514\uc5b4
p2929
aV\ub2e4\uc0b0\ub124\ud2b8\uc6cd\uc2a4
p2930
aV\ub2e4\uc6b0\ub370\uc774\ud0c0
p2931
aV\ub2e4\uc6d0\uc2dc\uc2a4
p2932
aV\ub2e4\uc74c\uce74\uce74\uc624
p2933
aV\ub300\ub3d9
p2934
aV\ub300\ub3d9\uae08\uc18d
p2935
aV\ub300\ub3d9\uae30\uc5b4
p2936
aV\ub300\ub3d9\uc2a4\ud2f8
p2937
aV\ub300\ub959\uc81c\uad00
p2938
aV\ub300\ub9bc\uc81c\uc9c0
p2939
aV\ub300\uba85\ucf54\ud37c\ub808\uc774\uc158
p2940
aV\ub300\ubd09\uc5d8\uc5d0\uc2a4
p2941
aV\ub300\uc131\ubbf8\uc0dd\ubb3c
p2942
aV\ub300\uc131\uc5d8\ud14d
p2943
aV\ub300\uc131\ucc3d\ud22c
p2944
aV\ub300\uc131\ud30c\uc778\ud14d
p2945
aV\ub300\uc2e0\ubc38\ub7f0\uc2a4\uc81c1\ud638\uc2a4\ud329
p2946
aV\ub300\uc2e0\uc815\ubcf4\ud1b5\uc2e0
p2947
aV\ub300\uc544\ud2f0\uc544\uc774
p2948
aV\ub300\uc591\uc804\uae30\uacf5\uc5c5
p2949
aV\ub300\uc591\uc81c\uc9c0
p2950
aV\ub300\uc6b0SBI\uc2a4\ud3291\ud638
p2951
aV\ub300\uc6b0\uc2a4\ud3292\ud638
p2952
aV\ub300\uc6b0\uc2a4\ud3293\ud638
p2953
aV\ub300\uc6d0\ubbf8\ub514\uc5b4
p2954
aV\ub300\uc6d0\uc0b0\uc5c5
p2955
aV\ub300\uc815\ud654\uae08
p2956
aV\ub300\uc8fc\uc0b0\uc5c5
p2957
aV\ub300\uc8fc\uc804\uc790\uc7ac\ub8cc
p2958
aV\ub300\uc9c4\ub514\uc5e0\ud53c
p2959
aV\ub300\ucc3d\uc194\ub8e8\uc158
p2960
aV\ub300\ucc3d\uc2a4\ud2f8
p2961
aV\ub300\ud55c\uacfc\ud559
p2962
aV\ub300\ud55c\uad11\ud1b5\uc2e0
p2963
aV\ub300\ud55c\ub274\ud31c
p2964
aV\ub300\ud55c\uc57d\ud488
p2965
aV\ub300\ud638\ud53c\uc564\uc528
p2966
aV\ub300\ud654\uc81c\uc57d
p2967
aV\ub355\uc0b0\ub124\uc624\ub8e9\uc2a4
p2968
aV\ub355\uc0b0\ud558\uc774\uba54\ud0c8
p2969
aV\ub355\uc2e0\ud558\uc6b0\uc9d5
p2970
aV\ub370\ube0c\uc2dc\uc2a4\ud130\uc988
p2971
aV\ub370\ucf54\uc564\uc774
p2972
aV\ub3c4\uc774\uce58\ubaa8\ud130\uc2a4
p2973
aV\ub3d9\uad6dS&C
p2974
aV\ub3d9\uad6d\uc0b0\uc5c5
p2975
aV\ub3d9\uad6d\uc54c\uc564\uc5d0\uc2a4
p2976
aV\ub3d9\uad6d\uc81c\uc57d
p2977
aV\ub3d9\ubc29\uc120\uae30
p2978
aV\ub3d9\ubd80\ub77c\uc774\ud14d
p2979
aV\ub3d9\ubd80\uc2a4\ud3292\ud638
p2980
aV\ub3d9\uc11c
p2981
aV\ub3d9\uc131\ud654\uc778\ud14d
p2982
aV\ub3d9\uc2e0\uac74\uc124
p2983
aV\ub3d9\uc544\uc5d8\ud14d
p2984
aV\ub3d9\uc544\ud654\uc131
p2985
aV\ub3d9\uc591\uc2dc\uba58\ud2b8
p2986
aV\ub3d9\uc591\uc5d0\uc2a4\ud14d
p2987
aV\ub3d9\uc591\uc774\uc5d4\ud53c
p2988
aV\ub3d9\uc591\ud53c\uc5d4\uc5d0\ud504
p2989
aV\ub3d9\uc6b0
p2990
aV\ub3d9\uc6b4\uc544\ub098\ud14d
p2991
aV\ub3d9\uc6d0\uac1c\ubc1c
p2992
aV\ub3d9\uc77c\uae08\uc18d
p2993
aV\ub3d9\uc77c\uae30\uc5f0
p2994
aV\ub3d9\uc77c\ucca0\uac15
p2995
aV\ub3d9\uc9c4\uc384\ubbf8\ucf10
p2996
aV\ub3d9\ud654\uae30\uc5c5
p2997
aV\ub450\uc62c\uc0b0\uc5c5
p2998
aV\ub4dc\ub798\uace4\ud50c\ub77c\uc774
p2999
aV\ub514\ube44\ucf00\uc774
p3000
aV\ub514\uc2a4\ud50c\ub808\uc774\ud14d
p3001
aV\ub514\uc5d0\uc2a4\ucf00\uc774
p3002
aV\ub514\uc5d0\uc2a4\ud2f0\ub85c\ubd07
p3003
aV\ub514\uc5d0\uc774\uce58\ud53c\ucf54\ub9ac\uc544
p3004
aV\ub514\uc5d0\uc774\ud14c\ud06c\ub180\ub85c\uc9c0
p3005
aV\ub514\uc5d0\uc774\ud53c
p3006
aV\ub514\uc5d4\uc5d0\uc774\ub9c1\ud06c
p3007
aV\ub514\uc5d4\uc5d0\ud504
p3008
aV\ub514\uc5e0\uc528
p3009
aV\ub514\uc5e0\ud2f0
p3010
aV\ub514\uc624
p3011
aV\ub514\uc624\ud14d
p3012
aV\ub514\uc774\uc5d4\ud2f0
p3013
aV\ub514\uc820\uc2a4
p3014
aV\ub514\uc9c0\uc544\uc774
p3015
aV\ub514\uc9c0\ud0c8\uc635\ud2f1
p3016
aV\ub514\uc9c0\ud138\ub300\uc131
p3017
aV\ub514\uc9c0\ud2c0\uc870\uc120
p3018
aV\ub514\ucf00\uc774\ub514\uc564\uc544\uc774
p3019
aV\ub514\ucf00\uc774\ub77d
p3020
aV\ub514\ud2f0\uc564\uc528
p3021
aV\ub51c\ub9ac
p3022
aV\ub77c\uc628\uc2dc\ud050\uc5b4
p3023
aV\ub77c\uc774\ube0c\ud50c\ub809\uc2a4
p3024
aV\ub77c\uc774\uc628\ucf10\ud14d
p3025
aV\ub7a8\ud14c\ud06c\ub180\ub7ec\uc9c0
p3026
aV\ub7a9\uc9c0\ub178\ubbf9\uc2a4
p3027
aV\ub808\uace0\ucf10\ubc14\uc774\uc624
p3028
aV\ub808\ub4dc\ub85c\ubc84
p3029
aV\ub808\ub4dc\ube44\uc528
p3030
aV\ub808\ub4dc\ucea1\ud22c\uc5b4
p3031
aV\ub808\uc774\uc820
p3032
aV\ub85c\ub9cc\uc190
p3033
aV\ub85c\ubcf4\uc2a4\ud0c0
p3034
aV\ub85c\uc5d4
p3035
aV\ub85c\uc9c0\uc2dc\uc2a4
p3036
aV\ub85c\uccb4\uc2dc\uc2a4\ud15c\uc988
p3037
aV\ub85c\ucf13\ubaa8\ubc14\uc77c
p3038
aV\ub85c\ucf54\uc870\uc774
p3039
aV\ub8e8\uba58\uc2a4
p3040
aV\ub8e8\ubbf8\ub9c8\uc774\ud06c\ub85c
p3041
aV\ub8e8\ud2b8\ub85c\ub2c9
p3042
aV\ub8fd\ud22c\ucf54\ub9ac\uc544
p3043
aV\ub974\ub124\ucf54
p3044
aV\ub9ac\ub178\uacf5\uc5c5
p3045
aV\ub9ac\ub178\uc2a4
p3046
aV\ub9ac\ub4dc\ucf54\ud504
p3047
aV\ub9ac\uc820
p3048
aV\ub9ac\ucf10
p3049
aV\ub9ac\ud648\ucfe0\uccb8
p3050
aV\ub9c1\ub124\ud2b8
p3051
aV\ub9c8\uc774\ud06c\ub85c\ucee8\ud14d\uc194
p3052
aV\ub9c8\uc81c\uc2a4\ud0c0
p3053
aV\ub9c8\ud06c\ub85c\uc820
p3054
aV\ub9e4\uc77c\uc720\uc5c5
p3055
aV\ub9e4\ucee4\uc2a4
p3056
aV\ub9e5\uc2a4\ub85c\ud14d
p3057
aV\uba54\uac00\uc2a4\ud130\ub514
p3058
aV\uba54\uac00\uc2a4\ud130\ub514\uad50\uc721
p3059
aV\uba54\ub514\uc544\ub098
p3060
aV\uba54\ub514\ud1a1\uc2a4
p3061
aV\uba54\ub514\ud3ec\uc2a4\ud2b8
p3062
aV\uba54\ub514\ud504\ub860
p3063
aV\uba54\uc9c0\uc628
p3064
aV\uba54\ud0c0\ubc14\uc774\uc624\uba54\ub4dc
p3065
aV\uba5c\ud30c\uc2a4
p3066
aV\ubaa8\ub2e4\uc815\ubcf4\ud1b5\uc2e0
p3067
aV\ubaa8\ub450\ud22c\uc5b4
p3068
aV\ubaa8\ubc14\uc77c\ub9ac\ub354
p3069
aV\ubaa8\ubca0\uc774\uc2a4
p3070
aV\ubaa8\uc544\ud14d
p3071
aV\ubaa8\ud5e8\uc988
p3072
aV\ubb34\ub9bcSP
p3073
aV\ubbf8\ub3d9\uc804\uc790\ud1b5\uc2e0
p3074
aV\ubbf8\ub798\ub098\ub178\ud14d
p3075
aV\ubbf8\ub798\uc5d0\uc14b\uc81c3\ud638\uc2a4\ud329
p3076
aV\ubbf8\ub798\uc5d0\uc14b\uc81c4\ud638\uc2a4\ud329
p3077
aV\ubbf8\ub798\ucef4\ud37c\ub2c8
p3078
aV\ubbf8\ucf54
p3079
aV\ubbfc\uc564\uc9c0
p3080
aV\ubc14\ub978\uc190
p3081
aV\ubc14\ub978\uc190\uc774\uc564\uc5d0\uc774
p3082
aV\ubc14\ub978\uc804\uc790
p3083
aV\ubc14\uc774\ub125\uc2a4
p3084
aV\ubc14\uc774\ub85c\uba54\ub4dc
p3085
aV\ubc14\uc774\uc624\ub2c8\uc544
p3086
aV\ubc14\uc774\uc624\ub79c\ub4dc
p3087
aV\ubc14\uc774\uc624\uc2a4\ub9c8\ud2b8
p3088
aV\ubc14\uc774\uc624\ud1a1\uc2a4\ud14d
p3089
aV\ubc14\ud14d
p3090
aV\ubc31\uae08T&A
p3091
aV\ubc31\uc0b0OPC
p3092
aV\ubc84\ucd94\uc5bc\ud14d
p3093
aV\ubca0\ub9ac\ud0c0\uc2a4
p3094
aV\ubca0\uc140
p3095
aV\ubcf4\ub839\uba54\ub514\uc559\uc2a4
p3096
aV\ubcf4\uc131\ud30c\uc6cc\ud14d
p3097
aV\ubcf4\ud0c0\ubc14\uc774\uc624
p3098
aV\ubd80\uc0b0\ubc29\uc9c1
p3099
aV\ubd80\uc2a4\ud0c0
p3100
aV\ubdf0\uc6cd\uc2a4
p3101
aV\ube0c\ub9ac\uc9c0\ud14d
p3102
aV\ube14\ub8e8\ucf64
p3103
aV\ube44\uc528\uc6d4\ub4dc\uc81c\uc57d
p3104
aV\ube44\uc544\uc774\uc774\uc5e0\ud2f0
p3105
aV\ube44\uc544\ud2b8\ub860
p3106
aV\ube44\uc5d0\uc2a4\uc774
p3107
aV\ube44\uc5d0\uc774\uce58
p3108
aV\ube44\uc5d0\uc774\uce58\uc544\uc774
p3109
aV\ube44\uc5e0\ud2f0
p3110
aV\ube44\uce20\ub85c\uc140
p3111
aV\ube44\uce20\ub85c\uc2dc\uc2a4
p3112
aV\ube44\uce20\ub85c\ud14c\ud06c
p3113
aV\ube44\ud2b8\ucef4\ud4e8\ud130
p3114
aV\ube45\uc194\ub860
p3115
aV\ube45\ud14d
p3116
aV\ube5b\uacfc\uc804\uc790
p3117
aV\ube5b\uc0d8\uc804\uc790
p3118
aV\uc0ac\ub78c\uc778\uc5d0\uc774\uce58\uc54c
p3119
aV\uc0ac\ud30c\uc774\uc5b4\ud14c\ud06c\ub180\ub85c\uc9c0
p3120
aV\uc0b0\uc131\uc568\uc5d4\uc5d0\uc2a4
p3121
aV\uc0bc\uac15\uc5e0\uc564\ud2f0
p3122
aV\uc0bc\uae30\uc624\ud1a0\ubaa8\ud2f0\ube0c
p3123
aV\uc0bc\ub96d\ubb3c\uc0b0
p3124
aV\uc0bc\ubaa9\uac15\uc5c5
p3125
aV\uc0bc\ubaa9\uc5d0\uc2a4\ud3fc
p3126
aV\uc0bc\ubcf4\ubaa8\ud130\uc2a4
p3127
aV\uc0bc\ubcf4\uc0b0\uc5c5
p3128
aV\uc0bc\ubcf4\ud310\uc9c0
p3129
aV\uc0bc\ubcf8\uc815\ubc00\uc804\uc790
p3130
aV\uc0bc\uc544\uc81c\uc57d
p3131
aV\uc0bc\uc601\uc5e0\ud14d
p3132
aV\uc0bc\uc601\uc774\uc5d4\uc528
p3133
aV\uc0bc\uc6b0\uc5e0\uc2a4
p3134
aV\uc0bc\uc6d0\ud14c\ud06c
p3135
aV\uc0bc\uc77c
p3136
aV\uc0bc\uc77c\uae30\uc5c5\uacf5\uc0ac
p3137
aV\uc0bc\uc9c0\uc804\uc790
p3138
aV\uc0bc\uc9c4
p3139
aV\uc0bc\uc9c4\uc5d8\uc564\ub514
p3140
aV\uc0bc\ucc9c\ub2f9\uc81c\uc57d
p3141
aV\uc0bc\ucc9c\ub9ac\uc790\uc804\uac70
p3142
aV\uc0bc\ud604\ucca0\uac15
p3143
aV\uc0bc\ud654\ub124\ud2b8\uc6cd\uc2a4
p3144
aV\uc0c1\ubcf4
p3145
aV\uc0c1\uc2e0\uc774\ub514\ud53c
p3146
aV\uc0c1\uc544\ud504\ub860\ud14c\ud06c
p3147
aV\uc0c8\ub85c\ub2c9\uc2a4
p3148
aV\uc11c\ub9b0\ubc14\uc774\uc624
p3149
aV\uc11c\ubd80T&D
p3150
aV\uc11c\uc0b0
p3151
aV\uc11c\uc554\uae30\uacc4\uacf5\uc5c5
p3152
aV\uc11c\uc6b8\ubc18\ub3c4\uccb4
p3153
aV\uc11c\uc6b8\uc2e0\uc6a9\ud3c9\uac00
p3154
aV\uc11c\uc6b8\uc625\uc158
p3155
aV\uc11c\uc6b8\uc804\uc790\ud1b5\uc2e0
p3156
aV\uc11c\uc6b8\uc81c\uc57d
p3157
aV\uc11c\uc6d0\uc778\ud14d
p3158
aV\uc11c\uc804\uae30\uc804
p3159
aV\uc11c\uc9c4\uc624\ud1a0\ubaa8\ud2f0\ube0c
p3160
aV\uc11c\ud55c
p3161
aV\uc11c\ud638\uc804\uae30
p3162
aV\uc11c\ud654\uc815\ubcf4\ud1b5\uc2e0
p3163
aV\uc11c\ud76c\uac74\uc124
p3164
aV\uc120\uad11
p3165
aV\uc120\ub370\uc774\ud1a0\uc988
p3166
aV\uc131\uad11\ubca4\ub4dc
p3167
aV\uc131\ub3c4\uc774\uc5d4\uc9c0
p3168
aV\uc131\uc6b0\uc804\uc790
p3169
aV\uc131\uc6b0\ud14c\ud06c\ub860
p3170
aV\uc131\uc6b0\ud558\uc774\ud14d
p3171
aV\uc131\ucc3d\uc624\ud1a0\ud14d
p3172
aV\uc131\ud638\uc804\uc790
p3173
aV\uc138\ub3d9
p3174
aV\uc138\uba85\uc804\uae30
p3175
aV\uc138\ubbf8\ucf58\ub77c\uc774\ud2b8
p3176
aV\uc138\ubcf4\uc5e0\uc774\uc528
p3177
aV\uc138\uc6b0\ud14c\ud06c
p3178
aV\uc138\uc6b4\uba54\ub514\uce7c
p3179
aV\uc138\uc6d0\ubb3c\uc0b0
p3180
aV\uc138\uc885\ud154\ub808\ucf64
p3181
aV\uc138\uc911
p3182
aV\uc138\uc9c4\uc804\uc790
p3183
aV\uc138\uc9c4\ud2f0\uc5d0\uc2a4
p3184
aV\uc138\ucf54\ub2c9\uc2a4
p3185
aV\uc138\ud638\ub85c\ubcf4\ud2b8
p3186
aV\uc140\ub8e8\uba54\ub4dc
p3187
aV\uc140\ud2b8\ub9ac\uc628
p3188
aV\uc140\ud2b8\ub9ac\uc628\uc81c\uc57d
p3189
aV\uc18c\ub9ac\ubc14\ub2e4
p3190
aV\uc18c\ud504\ud2b8\ub9e5\uc2a4
p3191
aV\uc18c\ud504\ud2b8\uc13c
p3192
aV\uc18c\ud504\ud2b8\ud3ec\ub7fc
p3193
aV\uc190\uc624\uacf5
p3194
aV\uc194\uace0\ubc14\uc774\uc624
p3195
aV\uc194\ub77c\uc2dc\uc544
p3196
aV\uc194\ub8e8\uc5d0\ud0c0
p3197
aV\uc194\ubcf8
p3198
aV\uc194\ube0c\ub808\uc778
p3199
aV\uc194\ube0c\ub808\uc778\uc774\uc5d4\uc9c0
p3200
aV\uc1fc\ubc15\uc2a4
p3201
aV\uc218\uc131
p3202
aV\uc288\ud504\ub9ac\ub9c8
p3203
aV\uc288\ud53c\uac90\ucf54\ub9ac\uc544
p3204
aV\uc2a4\ub9e5
p3205
aV\uc2a4\ud0c0\ud50c\ub809\uc2a4
p3206
aV\uc2a4\ud2f8\uc564\ub9ac\uc18c\uc2dc\uc988
p3207
aV\uc2a4\ud2f8\ud50c\ub77c\uc6cc
p3208
aV\uc2a4\ud398\ucf54
p3209
aV\uc2a4\ud3ec\uce20\uc11c\uc6b8
p3210
aV\uc2b9\uc77c
p3211
aV\uc2b9\ud654\ud504\ub9ac\ud14d
p3212
aV\uc2dc\uacf5\ud14c\ud06c
p3213
aV\uc2dc\uadf8\ub124\ud2f1\uc2a4
p3214
aV\uc2dc\ub178\ud399\uc2a4
p3215
aV\uc2dc\ud050\ube0c
p3216
aV\uc2e0\ub77c\uc12c\uc720
p3217
aV\uc2e0\ub77c\uc5d0\uc2a4\uc9c0
p3218
aV\uc2e0\uc131\ub378\ud0c0\ud14c\ud06c
p3219
aV\uc2e0\uc591
p3220
aV\uc2e0\uc6d0\uc885\ud569\uac1c\ubc1c
p3221
aV\uc2e0\uc77c\uc81c\uc57d
p3222
aV\uc2e0\uc9c4\uc5d0\uc2a4\uc5e0
p3223
aV\uc2e0\ud55c\uc81c2\ud638SPAC
p3224
aV\uc2e0\ud654\uc778\ud130\ud14d
p3225
aV\uc2e0\ud654\ucf58\ud14d
p3226
aV\uc2e0\ud6c4
p3227
aV\uc2e0\ud765\uae30\uacc4
p3228
aV\uc2e4\ub9ac\ucf58\uc6cd\uc2a4
p3229
aV\uc2ec\ud14d
p3230
aV\uc2ec\ud14d\ud640\ub529\uc2a4
p3231
aV\uc2f8\uc774\ub9e5\uc2a4
p3232
aV\uc30d\uc6a9\uc815\ubcf4\ud1b5\uc2e0
p3233
aV\uc36c\ucf54\uc5b4
p3234
aV\uc384\ub2c8\ud2b8
p3235
aV\uc384\ubbf8\uc2dc\uc2a4\ucf54
p3236
aV\uc384\ud2b8\ub809\uc544\uc774
p3237
aV\uc38c\ubc14\uc774\uc624\ud14d
p3238
aV\uc3e0\ub9ac\ub4dc
p3239
aV\uc528\uadf8\ub110\uc5d4\ud130\ud14c\uc778\uba3c\ud2b8\uadf8\ub8f9
p3240
aV\uc528\uc528\uc5d0\uc2a4
p3241
aV\uc528\uc564\ube44\ud14d
p3242
aV\uc528\uc5d1\uc2a4\uc528\uc885\ud569\uce90\ud53c\ud0c8
p3243
aV\uc528\uc5d4\ud50c\ub7ec\uc2a4
p3244
aV\uc528\uc720\uba54\ub514\uce7c
p3245
aV\uc528\uc820
p3246
aV\uc528\ucf00\uc774\uc5d0\uc774\uce58
p3247
aV\uc528\ud050\ube0c
p3248
aV\uc528\ud2f0\uc528\ubc14\uc774\uc624
p3249
aV\uc528\ud2f0\uc5d8
p3250
aV\uc544\uac00\ubc29\ucef4\ud37c\ub2c8
p3251
aV\uc544\ub098\ud328\uc2a4
p3252
aV\uc544\ub0a8\uc815\ubcf4\uae30\uc220
p3253
aV\uc544\ub9ac\uc628
p3254
aV\uc544\ubaa8\ud14d
p3255
aV\uc544\ubbf8\ub178\ub85c\uc9c1\uc2a4
p3256
aV\uc544\ubbf8\ucf54\uc820
p3257
aV\uc544\ubc14\ucf54
p3258
aV\uc544\ubc14\ud14d
p3259
aV\uc544\ube44\ucf54\uc804\uc790
p3260
aV\uc544\uc138\uc544\ud14d
p3261
aV\uc544\uc2a4\ud2b8
p3262
aV\uc544\uc2dc\uc544\uacbd\uc81c
p3263
aV\uc544\uc774\ub514\uc2a4
p3264
aV\uc544\uc774\ub514\uc2a4\ud640\ub529\uc2a4
p3265
aV\uc544\uc774\ub514\uc5d0\uc2a4
p3266
aV\uc544\uc774\ub9ac\ubc84
p3267
aV\uc544\uc774\uc13c\uc2a4
p3268
aV\uc544\uc774\uc4f0\ub9ac\uc2dc\uc2a4\ud15c
p3269
aV\uc544\uc774\uc528\ub514
p3270
aV\uc544\uc774\uc528\ucf00\uc774
p3271
aV\uc544\uc774\uc564\uc528
p3272
aV\uc544\uc774\uc5d0\uc2a4\uc774\ucee4\uba38\uc2a4
p3273
aV\uc544\uc774\uc5d0\uc774
p3274
aV\uc544\uc774\uc5e0
p3275
aV\uc544\uc774\uc6d0\uc2a4
p3276
aV\uc544\uc774\uc988\ube44\uc804
p3277
aV\uc544\uc774\ucef4\ud3ec\ub10c\ud2b8
p3278
aV\uc544\uc774\ud06c\ub798\ud504\ud2b8
p3279
aV\uc544\uc774\ud14d\ubc18\ub3c4\uccb4
p3280
aV\uc544\uc774\ud2f0\uc13c
p3281
aV\uc544\uc988\ud14dWB
p3282
aV\uc544\uc9c4\uc5d1\uc2a4\ud14d
p3283
aV\uc544\ud050\ud53d\uc2a4
p3284
aV\uc544\ud2b8\ub77c\uc2a4BX
p3285
aV\uc544\ud504\ub9ac\uce74TV
p3286
aV\uc548\uad6d\uc57d\ud488
p3287
aV\uc548\ub7a9
p3288
aV\uc54c\uc11c\ud3ec\ud2b8
p3289
aV\uc54c\uc5d0\ud504\uc138\ubbf8
p3290
aV\uc54c\uc5d0\ud504\ud14d
p3291
aV\uc54c\ud14c\uc624\uc820
p3292
aV\uc54c\ud1a4\uc2a4\ud3ec\uce20
p3293
aV\uc54c\ud2f0\uce90\uc2a4\ud2b8
p3294
aV\uc54c\ud30c\uce69\uc2a4
p3295
aV\uc560\uac15\ub9ac\uba54\ud14d
p3296
aV\uc561\ud1a0\uc988\uc18c\ud504\ud2b8
p3297
aV\uc561\ud2b8
p3298
aV\uc591\uc9c0\uc0ac
p3299
aV\uc5b4\ubcf4\ube0c\ubc18\ub3c4\uccb4
p3300
aV\uc5d0\ub108\uc9c0\uc194\ub8e8\uc158
p3301
aV\uc5d0\ub108\ud1a0\ud06c
p3302
aV\uc5d0\ub4c0\ubc15\uc2a4
p3303
aV\uc5d0\uba38\uc2a8\ud37c\uc2dc\ud53d
p3304
aV\uc5d0\ubc84\ub2e4\uc784
p3305
aV\uc5d0\uc2a4\ub137
p3306
aV\uc5d0\uc2a4\ub514\uc2dc\uc2a4\ud15c
p3307
aV\uc5d0\uc2a4\ub9e5
p3308
aV\uc5d0\uc2a4\uc528\ub514
p3309
aV\uc5d0\uc2a4\uc544\uc774\ub9ac\uc18c\uc2a4
p3310
aV\uc5d0\uc2a4\uc564\ub354\ube14\ub958
p3311
aV\uc5d0\uc2a4\uc564\uc528\uc5d4\uc9c4\uadf8\ub8f9
p3312
aV\uc5d0\uc2a4\uc564\uc5d0\uc2a4\ud14d
p3313
aV\uc5d0\uc2a4\uc5d0\ub108\uc9c0
p3314
aV\uc5d0\uc2a4\uc5d0\uc774\uc5e0\ud2f0
p3315
aV\uc5d0\uc2a4\uc5d0\uc774\ud2f0
p3316
aV\uc5d0\uc2a4\uc5d0\ud504\uc528
p3317
aV\uc5d0\uc2a4\uc5d0\ud504\uc5d0\uc774
p3318
aV\uc5d0\uc2a4\uc5d4\uc720
p3319
aV\uc5d0\uc2a4\uc5d4\ud14d
p3320
aV\uc5d0\uc2a4\uc5e0
p3321
aV\uc5d0\uc2a4\ucf54\ub125
p3322
aV\uc5d0\uc2a4\ud14d
p3323
aV\uc5d0\uc2a4\ud14d\ud30c\ub9c8
p3324
aV\uc5d0\uc2a4\ud2f0\uc544\uc774
p3325
aV\uc5d0\uc2a4\ud2f0\uc624
p3326
aV\uc5d0\uc2a4\ud2f0\ud050\ube0c
p3327
aV\uc5d0\uc2a4\ud3f4\ub9ac\ud14d
p3328
aV\uc5d0\uc2a4\ud53c\uc9c0
p3329
aV\uc5d0\uc388\ud14c\ud06c
p3330
aV\uc5d0\uc774\ub514\uce69\uc2a4
p3331
aV\uc5d0\uc774\ub514\ud14c\ud06c\ub180\ub85c\uc9c0
p3332
aV\uc5d0\uc774\ubaa8\uc158
p3333
aV\uc5d0\uc774\uc2a4\uce68\ub300
p3334
aV\uc5d0\uc774\uc2a4\ud14c\ud06c
p3335
aV\uc5d0\uc774\uc528\ud2f0
p3336
aV\uc5d0\uc774\uce58\uc5d8\ube44
p3337
aV\uc5d0\uc774\uce58\ucf00\uc774
p3338
aV\uc5d0\uc774\ud14c\ud06c\uc194\ub8e8\uc158
p3339
aV\uc5d0\uc774\ud14d
p3340
aV\uc5d0\uc774\ud14d\ud2f0\uc564
p3341
aV\uc5d0\uc774\ud2f0\ub118\uc778\ubca0\uc2a4\ud2b8
p3342
aV\uc5d0\uc774\ud2f0\uc138\ubbf8\ucf58
p3343
aV\uc5d0\uc774\ud2f0\ud14c\ud06c\ub180\ub7ec\uc9c0
p3344
aV\uc5d0\uc784\ud558\uc774
p3345
aV\uc5d0\ucf54\uc5d0\ub108\uc9c0
p3346
aV\uc5d0\ucf54\ud504\ub85c
p3347
aV\uc5d0\ucf54\ud50c\ub77c\uc2a4\ud2f1
p3348
aV\uc5d0\ud504\uc54c\ud14d
p3349
aV\uc5d0\ud504\uc5d0\uc2a4\ud2f0
p3350
aV\uc5d0\ud504\uc5d4\uc528\uc5d4\ud130
p3351
aV\uc5d0\ud504\ud2f0\uc774\uc564\uc774
p3352
aV\uc5d1\uc0ac\uc774\uc5d4\uc528
p3353
aV\uc5d1\uc138\uc2a4\ubc14\uc774\uc624
p3354
aV\uc5d1\uc148
p3355
aV\uc5d4\ube0c\uc774\uc5d0\uc774\uce58\ucf54\ub9ac\uc544
p3356
aV\uc5d4\uc54c\ucf00\uc774
p3357
aV\uc5d4\uc5d0\uc2a4\ube0c\uc774
p3358
aV\uc5d4\uc5d0\uc774\uce58SL\uc2a4\ud329
p3359
aV\uc5d4\uc5d0\uc774\uce58\uc2a4\ud3292\ud638
p3360
aV\uc5d4\uc5d0\uc774\uce58\uc2a4\ud3293\ud638
p3361
aV\uc5d4\uc5d0\uc774\uce58\uc2a4\ud3295\ud638
p3362
aV\uc5d4\uc5d0\uc774\uce58\uc2a4\ud3297\ud638
p3363
aV\uc5d4\uc5d0\uc774\uce58\uc2a4\ud3298\ud638
p3364
aV\uc5d4\ud154\uc2a4
p3365
aV\uc5d4\ud2f0\ud53c\uc544
p3366
aV\uc5d4\ud53c\ucf00\uc774
p3367
aV\uc5d8\ub514\ud2f0
p3368
aV\uc5d8\ube44\uc138\ubbf8\ucf58
p3369
aV\uc5d8\uc544\uc774\uc5d0\uc2a4
p3370
aV\uc5d8\uc544\uc774\uc9c0\uc2a4\ud329 2\ud638
p3371
aV\uc5d8\uc544\uc774\uc9c0\uc774\uc5d0\uc2a4\uc2a4\ud329
p3372
aV\uc5d8\uc564\uc5d0\ud504
p3373
aV\uc5d8\uc5e0\uc5d0\uc2a4
p3374
aV\uc5d8\uc624\ud2f0\ubca0\ud060
p3375
aV\uc5d8\ucef4\ud14d
p3376
aV\uc5d8\ud2f0\uc528
p3377
aV\uc5e0\uac8c\uc784
p3378
aV\uc5e0\ubca4\ucc98\ud22c\uc790
p3379
aV\uc5e0\uc528\ub125\uc2a4
p3380
aV\uc5e0\uc5d0\uc2a4\uc528
p3381
aV\uc5e0\uc5d0\uc2a4\uc624\ud1a0\ud14d
p3382
aV\uc5e0\uc81c\uc774\ube44
p3383
aV\uc5e0\uc820
p3384
aV\uc5e0\ucf00\uc774\uc804\uc790
p3385
aV\uc5e0\ud53c\uc528
p3386
aV\uc5f0\uc774\uc815\ubcf4\ud1b5\uc2e0
p3387
aV\uc601\ubc31\uc528\uc5e0
p3388
aV\uc601\uc2e0\uae08\uc18d
p3389
aV\uc601\uc6b0\ub514\uc5d0\uc2a4\ud53c
p3390
aV\uc601\uc778\ud504\ub7f0\ud2f0\uc5b4
p3391
aV\uc601\ud48d\uc815\ubc00
p3392
aV\uc608\ub9bc\ub2f9
p3393
aV\uc608\uc2a424
p3394
aV\uc624\uacf5
p3395
aV\uc624\ub514\ud14d
p3396
aV\uc624\ub85c\ub77c
p3397
aV\uc624\ub974\ube44\ud14d
p3398
aV\uc624\ub9ac\uc5d4\ud0c8\uc815\uacf5
p3399
aV\uc624\ub9ac\uc5d4\ud2b8\uc815\uacf5
p3400
aV\uc624\ub9ac\ucf64
p3401
aV\uc624\uc0c1\uc790\uc774\uc5d8
p3402
aV\uc624\uc131\uc5d8\uc5d0\uc2a4\ud2f0
p3403
aV\uc624\uc2a4\ucf54\ud14d
p3404
aV\uc624\uc2a4\ud15c
p3405
aV\uc624\uc2a4\ud15c\uc784\ud50c\ub780\ud2b8
p3406
aV\uc624\uc774\uc194\ub8e8\uc158
p3407
aV\uc624\ud0a8\uc2a4\uc804\uc790
p3408
aV\uc624\ud14d
p3409
aV\uc624\ud508\ubca0\uc774\uc2a4
p3410
aV\uc634\ub2c8\uc2dc\uc2a4\ud15c
p3411
aV\uc634\ub2c8\ud154
p3412
aV\uc635\ud2b8\ub860\ud14d
p3413
aV\uc635\ud2f0\uc2dc\uc2a4
p3414
aV\uc640\uc774\ub514\uc628\ub77c\uc778
p3415
aV\uc640\uc774\uc194
p3416
aV\uc640\uc774\uc5d4\ud14d
p3417
aV\uc640\uc774\uc5e0\uc528
p3418
aV\uc640\uc774\uc9c0-\uc6d0
p3419
aV\uc640\uc774\uc9c0\uc5d4\ud130\ud14c\uc778\uba3c\ud2b8
p3420
aV\uc640\ud1a0\uc2a4\ucf54\ub9ac\uc544
p3421
aV\uc644\ub9ac
p3422
aV\uc6a9\ud604BM
p3423
aV\uc6b0\ub178\uc564\ucef4\ud37c\ub2c8
p3424
aV\uc6b0\ub9ac\uae30\uc220
p3425
aV\uc6b0\ub9ac\uae30\uc220\ud22c\uc790
p3426
aV\uc6b0\ub9ac\ub137
p3427
aV\uc6b0\ub9ac\ub85c
p3428
aV\uc6b0\ub9ac\uc0b0\uc5c5
p3429
aV\uc6b0\ub9ac\uc0b0\uc5c5\ud640\ub529\uc2a4
p3430
aV\uc6b0\ub9ac\uc774\uc564\uc5d8
p3431
aV\uc6b0\ub9ac\uc774\ud2f0\uc544\uc774
p3432
aV\uc6b0\ub9ac\uc870\uba85
p3433
aV\uc6b0\ub9bc\uae30\uacc4
p3434
aV\uc6b0\uc131I&C
p3435
aV\uc6b0\uc131\uc544\uc774\ube44
p3436
aV\uc6b0\uc218AMS
p3437
aV\uc6b0\uc6d0\uac1c\ubc1c
p3438
aV\uc6b0\uc804\uc564\ud55c\ub2e8
p3439
aV\uc6b0\uc8fc\uc77c\ub809\ud2b8\ub85c
p3440
aV\uc6b0\uc9c4\ube44\uc564\uc9c0
p3441
aV\uc6d0\uc775
p3442
aV\uc6d0\uc775IPS
p3443
aV\uc6d0\uc775QnC
p3444
aV\uc6d0\uc775\uba38\ud2b8\ub9ac\uc5bc\uc988
p3445
aV\uc6d0\uc775\ud050\ube0c
p3446
aV\uc6d0\uc77c\ud2b9\uac15
p3447
aV\uc6d0\ud48d
p3448
aV\uc6d0\ud48d\ubb3c\uc0b0
p3449
aV\uc6d4\ub371\uc2a4
p3450
aV\uc6e8\uc774\ube0c\uc77c\ub809\ud2b8\ub85c
p3451
aV\uc6e8\uc774\ud3ec\ud2b8
p3452
aV\uc6f0\uba54\uc774\ub4dc\uc608\ub2f9
p3453
aV\uc6f0\ud06c\ub860
p3454
aV\uc6f0\ud06c\ub860\uac15\uc6d0
p3455
aV\uc6f0\ud06c\ub860\ud55c\ud14d
p3456
aV\uc6f9\uc2a4
p3457
aV\uc6f9\uc820
p3458
aV\uc704\ub178\ubc14
p3459
aV\uc704\ub2c9\uc2a4
p3460
aV\uc704\ub4dc\uc708\ub124\ud2b8\uc6cd
p3461
aV\uc704\uba54\uc774\ub4dc
p3462
aV\uc704\uc988\ucf54\ud504
p3463
aV\uc704\uc9c0\ud2b8
p3464
aV\uc708\uc2a4
p3465
aV\uc708\ud329
p3466
aV\uc708\ud558\uc774\ud14d
p3467
aV\uc720\ub2c8\ub354\uc2a4
p3468
aV\uc720\ub2c8\uc148
p3469
aV\uc720\ub2c8\uc2a8
p3470
aV\uc720\ub2c8\ud06c
p3471
aV\uc720\ub2c8\ud14c\uc2a4\ud2b8
p3472
aV\uc720\ub77c\ud14c\ud06c
p3473
aV\uc720\ube44\ubca8\ub85d\uc2a4
p3474
aV\uc720\ube44\ucf00\uc5b4
p3475
aV\uc720\ube44\ucffc\uc2a4
p3476
aV\uc720\uc131\ud2f0\uc5d4\uc5d0\uc2a4
p3477
aV\uc720\uc2e0
p3478
aV\uc720\uc544\uc774\ub514
p3479
aV\uc720\uc544\uc774\uc5d8
p3480
aV\uc720\uc548\ud0c0\uc81c1\ud638\uc2a4\ud329
p3481
aV\uc720\uc548\ud0c0\uc81c2\ud638\uc2a4\ud329
p3482
aV\uc720\uc6d0\ucef4\ud14d
p3483
aV\uc720\uc9c0\uc778\ud2b8
p3484
aV\uc720\uc9c4\uae30\uc5c5
p3485
aV\uc720\uc9c4\ub85c\ubd07
p3486
aV\uc720\uc9c4\uc5d0\uc774\uc528\ud53c\uc528\uc2a4\ud3292\ud638
p3487
aV\uc720\uc9c4\ud14c\ud06c
p3488
aV\uc720\ud14c\ud06c
p3489
aV\uc774-\uae00 \ubcb3
p3490
aV\uc774\uac74\ucc3d\ud638
p3491
aV\uc774\uadf8\uc7ad\uc2a4
p3492
aV\uc774\uae00\ub8e8\uc2dc\ud050\ub9ac\ud2f0
p3493
aV\uc774\ub178\uc640\uc774\uc5b4\ub9ac\uc2a4
p3494
aV\uc774\ub178\uce69
p3495
aV\uc774\ub179\uc2a4
p3496
aV\uc774\ub2c8\ud14d
p3497
aV\uc774\ub514
p3498
aV\uc774\ub77c\uc774\ucf64
p3499
aV\uc774\ub79c\ud14d
p3500
aV\uc774\ub8e8\uc628
p3501
aV\uc774\ubbf8\uc9c0\uc2a4
p3502
aV\uc774\ubca0\uc2a4\ud2b8\uc2a4\ud3292\ud638
p3503
aV\uc774\ubca0\uc2a4\ud2b8\ud22c\uc790\uc99d\uad8c
p3504
aV\uc774\uc0c1\ub124\ud2b8\uc6cd\uc2a4
p3505
aV\uc774\uc218\uc571\uc9c0\uc2a4
p3506
aV\uc774\uc2a4\ud2b8\uc18c\ud504\ud2b8
p3507
aV\uc774\uc2a4\ud2b8\uc544\uc2dc\uc544\ud640\ub529\uc2a4
p3508
aV\uc774\uc528\uc5d0\uc2a4
p3509
aV\uc774\uc5d4\uc5d0\ud504\ud14c\ud06c\ub180\ub85c\uc9c0
p3510
aV\uc774\uc5d8\ucf00\uc774
p3511
aV\uc774\uc5e0\ub137
p3512
aV\uc774\uc5e0\ucf54\ub9ac\uc544
p3513
aV\uc774\uc5e0\ud14d
p3514
aV\uc774\uc624\ud14c\ud06c\ub2c9\uc2a4
p3515
aV\uc774\uc6d0\ucef4\ud3ec\ud14d
p3516
aV\uc774\uc820\ud14d
p3517
aV\uc774\uc9c0\ubc14\uc774\uc624
p3518
aV\uc774\uc9c0\uc6f0\ud398\uc5b4
p3519
aV\uc774\ud050\uc2a4\uc564\uc790\ub8e8
p3520
aV\uc774\ud06c\ub808\ub354\ube14
p3521
aV\uc774\ud14c\ud06c\uac74\uc124
p3522
aV\uc774\ud2b8\ub860
p3523
aV\uc774\ud4e8\uccd0
p3524
aV\uc774\ud654\uacf5\uc601
p3525
aV\uc774\ud654\uc804\uae30
p3526
aV\uc778\ubc14\ub514
p3527
aV\uc778\uc120\uc774\uc5d4\ud2f0
p3528
aV\uc778\uc131\uc815\ubcf4
p3529
aV\uc778\uc9c0\ub514\uc2a4\ud50c\ub808
p3530
aV\uc778\ucf58
p3531
aV\uc778\ud0d1\uc2a4
p3532
aV\uc778\ud130\ub85c\uc870
p3533
aV\uc778\ud130\uc5e0
p3534
aV\uc778\ud130\ud30c\ud06c
p3535
aV\uc778\ud130\ud30c\ud06c\ud640\ub529\uc2a4
p3536
aV\uc778\ud130\ud50c\ub809\uc2a4
p3537
aV\uc778\ud14c\uadf8\ub808\uc774\ud2f0\ub4dc\uc5d0\ub108\uc9c0
p3538
aV\uc778\ud14d\ud50c\ub7ec\uc2a4
p3539
aV\uc778\ud2b8\ub85c\uba54\ub515
p3540
aV\uc778\ud2b8\ub860\ubc14\uc774\uc624
p3541
aV\uc778\ud3ec\ubc14\uc778
p3542
aV\uc778\ud3ec\ubc45\ud06c
p3543
aV\uc778\ud3ec\ud53c\uc544
p3544
aV\uc778\ud504\ub77c\uc6e8\uc5b4
p3545
aV\uc778\ud53c\ub2c8\ud2b8\ud5ec\uc2a4\ucf00\uc5b4
p3546
aV\uc778\ud654\uc815\uacf5
p3547
aV\uc77c\uacbd\uc0b0\uc5c5\uac1c\ubc1c
p3548
aV\uc77c\uc2e0\ubc14\uc774\uc624
p3549
aV\uc77c\uc57c
p3550
aV\uc77c\uc9c0\ud14c\ud06c
p3551
aV\uc77c\uc9c4\ud30c\uc6cc
p3552
aV\uc789\ud06c\ud14c\ud06c
p3553
aV\uc790\uc5f0\uacfc\ud658\uacbd
p3554
aV\uc7ac\uc601\uc194\ub8e8\ud14d
p3555
aV\uc804\ud30c\uae30\uc9c0\uad6d
p3556
aV\uc815\uc0c1\uc81c\uc774\uc5d8\uc5d0\uc2a4
p3557
aV\uc815\uc6d0\uc5d4\uc2dc\uc2a4
p3558
aV\uc81c\ub099\uc2a4
p3559
aV\uc81c\ub125\uc2e0
p3560
aV\uc81c\ub178\ud3ec\ucee4\uc2a4
p3561
aV\uc81c\ub2c9
p3562
aV\uc81c\ub85c\ud22c\uc138\ube10
p3563
aV\uc81c\ub8e1\uc0b0\uc5c5
p3564
aV\uc81c\ub8e1\uc804\uae30
p3565
aV\uc81c\ubbf8\ub2c8\ud22c\uc790
p3566
aV\uc81c\uc6b0\uc2a4
p3567
aV\uc81c\uc774\ube0c\uc774\uc5e0
p3568
aV\uc81c\uc774\uc528\ucf00\ubbf8\uce7c
p3569
aV\uc81c\uc774\uc528\ud604\uc2dc\uc2a4\ud15c
p3570
aV\uc81c\uc774\uc5d4\ucf00\uc774\ud788\ud130
p3571
aV\uc81c\uc774\uc5e0\uc544\uc774
p3572
aV\uc81c\uc774\uc5e0\ud2f0
p3573
aV\uc81c\uc774\uc6e8\uc774
p3574
aV\uc81c\uc774\ucf58\ud150\ud2b8\ub9ac
p3575
aV\uc81c\uc774\ud2f0
p3576
aV\uc81c\uc77c\ubc14\uc774\uc624
p3577
aV\uc81c\uc77c\uc81c\uac15
p3578
aV\uc81c\uc77c\ud14c\ud06c\ub178\uc2a4
p3579
aV\uc81c\uc8fc\ubc18\ub3c4\uccb4
p3580
aV\uc820\ud2b8\ub85c
p3581
aV\uc82c\ubc31\uc2a4
p3582
aV\uc82c\ubc31\uc2a4\ud14c\ud06c\ub180\ub7ec\uc9c0
p3583
aV\uc870\uad11ILI
p3584
aV\uc870\uc544\uc81c\uc57d
p3585
aV\uc870\uc774\ub9e5\uc2a4
p3586
aV\uc870\uc774\uc2dc\ud2f0
p3587
aV\uc88b\uc740\uc0ac\ub78c\ub4e4
p3588
aV\uc8fc\uc131\uc5d4\uc9c0\ub2c8\uc5b4\ub9c1
p3589
aV\uc911\uc559\ubc31\uc2e0
p3590
aV\uc911\uc559\uc5d0\ub108\ube44\uc2a4
p3591
aV\uc911\uc559\uc624\uc158
p3592
aV\uc9c0\ub514
p3593
aV\uc9c0\uc2a4\ub9c8\ud2b8\uae00\ub85c\ubc8c
p3594
aV\uc9c0\uc5b4\uc18c\ud504\ud2b8
p3595
aV\uc9c0\uc5d0\uc2a4\uc774
p3596
aV\uc9c0\uc5d4\uc528\uc5d0\ub108\uc9c0
p3597
aV\uc9c0\uc5d4\ucf54
p3598
aV\uc9c0\uc5e0\ud53c
p3599
aV\uc9c0\ud2b8\ub9ac\ube44\uc564\ud2f0
p3600
aV\uc9c4\ub85c\ubc1c\ud6a8
p3601
aV\uc9c4\ub9e4\ud2b8\ub9ad\uc2a4
p3602
aV\uc9c4\ubc14\uc774\uc624\ud14d
p3603
aV\uc9c4\uc131\ud2f0\uc774\uc528
p3604
aV\uc9c4\uc591\uc81c\uc57d
p3605
aV\ucc28\ub514\uc624\uc2a4\ud14d
p3606
aV\ucc28\ubc14\uc774\uc624\ud14d
p3607
aV\ucc28\uc774\ub098\uadf8\ub808\uc774\ud2b8
p3608
aV\ucc28\uc774\ub098\ud558\uc624\ub780
p3609
aV\ucc38\uc88b\uc740\ub808\uc838
p3610
aV\ucc3d\ud574\uc5d0\ud0c4\uc62c
p3611
aV\ucc98\uc74c\uc564\uc528
p3612
aV\uccad\ub2f4\ub7ec\ub2dd
p3613
aV\uccad\ubcf4\uc0b0\uc5c5
p3614
aV\ucd08\ub85d\ubc40
p3615
aV\uce69\uc2a4\uc564\ubbf8\ub514\uc5b4
p3616
aV\uce74\uc2a4
p3617
aV\uce90\uc2a4\ud14d\ucf54\ub9ac\uc544
p3618
aV\uce94\ub4e4\ubbf8\ub514\uc5b4
p3619
aV\ucea0\uc2dc\uc2a4
p3620
aV\ucef4\ud22c\uc2a4
p3621
aV\ucf00\uc774\ub514\uac74\uc124
p3622
aV\ucf00\uc774\ub514\ubbf8\ub514\uc5b4
p3623
aV\ucf00\uc774\ub514\uc528
p3624
aV\ucf00\uc774\ub9e5
p3625
aV\ucf00\uc774\ube44\uc81c3\ud638\uc2a4\ud329
p3626
aV\ucf00\uc774\ube44\uc81c4\ud638\uc2a4\ud329
p3627
aV\ucf00\uc774\ube44\uc81c5\ud638\uc2a4\ud329
p3628
aV\ucf00\uc774\ube44\uc81c6\ud638\uc2a4\ud329
p3629
aV\ucf00\uc774\ube44\uc81c7\ud638\uc2a4\ud329
p3630
aV\ucf00\uc774\ube44\uc81c8\ud638\uc2a4\ud329
p3631
aV\ucf00\uc774\uc0ac\uc778
p3632
aV\ucf00\uc774\uc528\uc5d0\uc2a4
p3633
aV\ucf00\uc774\uc528\ud2f0
p3634
aV\ucf00\uc774\uc528\ud53c\ub4dc
p3635
aV\ucf00\uc774\uc544\uc774\uc5d4\uc5d1\uc2a4
p3636
aV\ucf00\uc774\uc5d0\uc2a4\uc528\ube44
p3637
aV\ucf00\uc774\uc5d0\uc2a4\ud53c
p3638
aV\ucf00\uc774\uc5d4\ub354\ube14\uc720
p3639
aV\ucf00\uc774\uc5d8\ub137
p3640
aV\ucf00\uc774\uc5d8\ud2f0
p3641
aV\ucf00\uc774\uc5e0
p3642
aV\ucf00\uc774\uc5e0\ub354\ube14\uc720
p3643
aV\ucf00\uc774\ud2f0\ub864
p3644
aV\ucf00\uc774\ud2f0\ube44\uc2a4\ud3291\ud638
p3645
aV\ucf00\uc774\ud2f0\ube44\uc2a4\ud3292\ud638
p3646
aV\ucf00\uc774\ud2f0\ube44\uc2a4\ud3293\ud638
p3647
aV\ucf00\uc774\ud504
p3648
aV\ucf00\uc774\ud53c\uc5d0\ud504
p3649
aV\ucf00\uc774\ud53c\uc5e0\ud14c\ud06c
p3650
aV\ucf00\uc774\ud53c\ud2f0
p3651
aV\ucf10\ud2b8\ub85c\ub2c9\uc2a4
p3652
aV\ucf54\ub098\uc544\uc774
p3653
aV\ucf54\ub2c9\uae00\ub85c\ub9ac
p3654
aV\ucf54\ub2e4\ucf54
p3655
aV\ucf54\ub370\uc988\ucef4\ubc14\uc778
p3656
aV\ucf54\ub514\uc5d0\uc2a4
p3657
aV\ucf54\ub80c
p3658
aV\ucf54\ub80c\ud14d
p3659
aV\ucf54\ub9ac\uc544\ub098
p3660
aV\ucf54\ub9ac\uc544\uc5d0\uc2a4\uc774
p3661
aV\ucf54\ub9ac\uc544\uc5d0\ud504\ud2f0
p3662
aV\ucf54\ub9e5\uc2a4
p3663
aV\ucf54\uba54\ub860
p3664
aV\ucf54\ubbf8\ud31c
p3665
aV\ucf54\uc13c
p3666
aV\ucf54\uc2a4\uc628
p3667
aV\ucf54\uc544\ub85c\uc9c1
p3668
aV\ucf54\uc544\uc2a4\ud15c
p3669
aV\ucf54\uc544\ud06c\ub85c\uc2a4
p3670
aV\ucf54\uc5d4\ud14d
p3671
aV\ucf54\uc624\ub871\uc0dd\uba85\uacfc\ud559
p3672
aV\ucf54\uc6d0
p3673
aV\ucf54\uc6f0\ud328\uc158
p3674
aV\ucf54\uc704\ubc84
p3675
aV\ucf54\uc774\uc988
p3676
aV\ucf54\ucf64
p3677
aV\ucf54\ud14d
p3678
aV\ucf54\ud504\ub77c
p3679
aV\ucf5c\ub9c8\ube44\uc564\uc5d0\uc774\uce58
p3680
aV\ud050\ub809\uc18c
p3681
aV\ud050\ub85c\ucef4
p3682
aV\ud050\ub85c\ud640\ub529\uc2a4
p3683
aV\ud050\ube0c\uc2a4
p3684
aV\ud050\ube0c\uc5d4\ud130
p3685
aV\ud050\uc5d0\uc2a4\uc544\uc774
p3686
aV\ud050\uce90\ud53c\ud0c8
p3687
aV\ud06c\ub808\ub4c0
p3688
aV\ud06c\ub85c\ubc14\ud558\uc774\ud14d
p3689
aV\ud06c\ub8e8\uc15c\ud14d
p3690
aV\ud06c\ub9ac\uc2a4\ud0c8
p3691
aV\ud06c\ub9b0\uc564\uc0ac\uc774\uc5b8\uc2a4
p3692
aV\ud0a4\uc6c0\uc2a4\ud3293\ud638
p3693
aV\ud0a4\uc774\uc2a4\ud2b8
p3694
aV\ud0d1\uae08\uc18d
p3695
aV\ud0d1\uc5d4\uc9c0\ub2c8\uc5b4\ub9c1
p3696
aV\ud0dc\uad11
p3697
aV\ud0dc\uc591
p3698
aV\ud0dc\uc591\uae30\uc804
p3699
aV\ud0dc\uc6c5
p3700
aV\ud14c\uace0\uc0ac\uc774\uc5b8\uc2a4
p3701
aV\ud14c\ub77c\uc138\ubbf8\ucf58
p3702
aV\ud14c\ub77c\uc148
p3703
aV\ud14c\ub77c\uc820\uc774\ud14d\uc2a4
p3704
aV\ud14c\uc2a4
p3705
aV\ud14c\uc2a4\ub098
p3706
aV\ud14c\ud06c\uc719
p3707
aV\ud14d\uc140\ub124\ud2b8\ucef4
p3708
aV\ud154\ub808\uce69\uc2a4
p3709
aV\ud154\ub808\ud544\ub4dc
p3710
aV\ud154\ucf58
p3711
aV\ud1a0\ube44\uc2a4
p3712
aV\ud1a0\ud0c8\uc18c\ud504\ud2b8
p3713
aV\ud1a0\ud544\ub4dc
p3714
aV\ud1b1\ud14d
p3715
aV\ud22c\ube44\uc18c\ud504\ud2b8
p3716
aV\ud2b8\ub808\uc774\uc2a4
p3717
aV\ud2b8\ub8e8\uc708
p3718
aV\ud2b9\uc218\uac74\uc124
p3719
aV\ud2f0\ube0c\uc774\ub85c\uc9c1
p3720
aV\ud2f0\ube44\uc528
p3721
aV\ud2f0\uc528\ucf00\uc774
p3722
aV\ud2f0\uc5d0\uc2a4\uc774
p3723
aV\ud2f0\uc5d8\uc544\uc774
p3724
aV\ud2f0\ucf00\uc774\ucf00\ubbf8\uce7c
p3725
aV\ud2f0\ud50c\ub799\uc2a4
p3726
aV\ud2f0\ud53c\uc528\uae00\ub85c\ubc8c
p3727
aV\ud305\ud06c\uc6e8\uc5b4
p3728
aV\ud30c\ub098\uc9c4
p3729
aV\ud30c\ub77c\ub2e4\uc774\uc2a4
p3730
aV\ud30c\ub77c\ud14d
p3731
aV\ud30c\ub8e8
p3732
aV\ud30c\ub9c8\ub9ac\uc11c\uce58\ud504\ub85c\ub355\ud2b8
p3733
aV\ud30c\ubc84\ub098\uc778
p3734
aV\ud30c\uc138\ucf54
p3735
aV\ud30c\uc218\ub2f7\ucef4
p3736
aV\ud30c\uc6cc\ub85c\uc9c1\uc2a4
p3737
aV\ud30c\uc774\uc624\ub9c1\ud06c
p3738
aV\ud30c\uc778\ub514\uc564\uc528
p3739
aV\ud30c\uc778\ub514\uc9c0\ud138
p3740
aV\ud30c\uc778\ud14c\ud06c\ub2c9\uc2a4
p3741
aV\ud30c\uc778\ud14d
p3742
aV\ud30c\uce94OPC
p3743
aV\ud30c\ud2b8\ub860
p3744
aV\ud30c\ud2f0\uac8c\uc784\uc988
p3745
aV\ud310\ud0c0\uc9c0\uc624
p3746
aV\ud31c\uc2a4\uc6f0\ubc14\uc774\uc624
p3747
aV\ud31c\uc2a4\ud1a0\ub9ac
p3748
aV\ud32c\uc5d4\ud130\ud14c\uc778\uba3c\ud2b8
p3749
aV\ud37c\uc2dc\ud53d\ubc14\uc774\uc624
p3750
aV\ud3a9\ud2b8\ub860
p3751
aV\ud3c9\ud654\uc815\uacf5
p3752
aV\ud3ec\uba54\ud0c8
p3753
aV\ud3ec\ube44\uc2a4\ud2f0\uc564\uc528
p3754
aV\ud3ec\uc2a4\ucf54 ICT
p3755
aV\ud3ec\uc2a4\ucf54\uc5e0\ud14d
p3756
aV\ud3ec\uc2a4\ucf54\ucf10\ud14d
p3757
aV\ud3ec\uc2dc\uc5d0\uc2a4
p3758
aV\ud3ec\uc778\ud2b8\uc544\uc774
p3759
aV\ud3ec\ud2f0\uc2a4
p3760
aV\ud3f4\ub9ac\ube44\uc804
p3761
aV\ud478\ub4dc\uc6f0
p3762
aV\ud478\ub978\uae30\uc220
p3763
aV\ud478\ub978\uc800\ucd95\uc740\ud589
p3764
aV\ud48d\uac15
p3765
aV\ud48d\uad6d\uc8fc\uc815
p3766
aV\ud504\ub7fc\ud30c\uc2a4\ud2b8
p3767
aV\ud504\ub85c\ud14d
p3768
aV\ud504\ub9ac\uc5e0\uc2a4
p3769
aV\ud504\ub9ac\uc820
p3770
aV\ud50c\ub79c\ud2f0\ub137
p3771
aV\ud50c\ub808\uc774\uc704\ub4dc
p3772
aV\ud50c\ub809\uc2a4\ucef4
p3773
aV\ud53c\ub378\ub9ad\uc2a4
p3774
aV\ud53c\uc528\ub514\ub809\ud2b8
p3775
aV\ud53c\uc564\uc774\uc194\ub8e8\uc158
p3776
aV\ud53c\uc5d0\uc2a4\uc5e0\uc528
p3777
aV\ud53c\uc5d0\uc2a4\ucf00\uc774
p3778
aV\ud53c\uc5d0\uc2a4\ud14d
p3779
aV\ud53c\uc5d4\ud2f0
p3780
aV\ud53c\uc5d8\uc5d0\uc774
p3781
aV\ud53c\uc81c\uc774\uba54\ud0c8
p3782
aV\ud53c\uc81c\uc774\uc804\uc790
p3783
aV\ud53d\uc140\ud50c\ub7ec\uc2a4
p3784
aV\ud544\ub9c1\ud06c
p3785
aV\ud558\ub098\ub9c8\uc774\ud06c\ub860
p3786
aV\ud558\ub098\uba38\uc2a4\ud2b82\ud638\uc2a4\ud329
p3787
aV\ud558\ub098\uba38\uc2a4\ud2b83\ud638\uc2a4\ud329
p3788
aV\ud558\ub098\uba38\uc2a4\ud2b84\ud638\uc2a4\ud329
p3789
aV\ud558\ub098\uba38\uc2a4\ud2b85\ud638\uc2a4\ud329
p3790
aV\ud558\ub9bc
p3791
aV\ud558\ub9bc\ud640\ub529\uc2a4
p3792
aV\ud558\uc774\ub85c\ub2c9
p3793
aV\ud558\uc774\ub85d\ucf54\ub9ac\uc544
p3794
aV\ud558\uc774\ube44\uc83c\uc2dc\uc2a4\ud15c
p3795
aV\ud558\uc774\uc148
p3796
aV\ud558\uc774\uc18c\ub2c9
p3797
aV\ud558\uc774\uc38c
p3798
aV\ud558\uc774\uc81c2\ud638\uc2a4\ud329
p3799
aV\ud558\uc774\uc81c3\ud638\uc2a4\ud329
p3800
aV\ud558\uc774\ud14d\ud31c
p3801
aV\ud558\uce20
p3802
aV\ud55c\uad6d2\ud638\uc2a4\ud329
p3803
aV\ud55c\uad6d\uac00\uad6c
p3804
aV\ud55c\uad6d\uacbd\uc81cTV
p3805
aV\ud55c\uad6d\uae30\uc5c5\ud3c9\uac00
p3806
aV\ud55c\uad6d\uc0ac\uc774\ubc84\uacb0\uc81c
p3807
aV\ud55c\uad6d\uc120\uc7ac
p3808
aV\ud55c\uad6d\uc54c\ucf5c
p3809
aV\ud55c\uad6d\uc790\uc6d0\ud22c\uc790\uac1c\ubc1c
p3810
aV\ud55c\uad6d\uc804\uc790\uae08\uc735
p3811
aV\ud55c\uad6d\uc804\uc790\uc778\uc99d
p3812
aV\ud55c\uad6d\uc815\ubc00\uae30\uacc4
p3813
aV\ud55c\uad6d\uc815\ubcf4\uacf5\ud559
p3814
aV\ud55c\uad6d\uc815\ubcf4\uc778\uc99d
p3815
aV\ud55c\uad6d\uc815\ubcf4\ud1b5\uc2e0
p3816
aV\ud55c\uad6d\uce90\ud53c\ud0c8
p3817
aV\ud55c\uad6d\ucef4\ud4e8\ud130
p3818
aV\ud55c\uad6d\ud050\ube45
p3819
aV\ud55c\uad6d\ud14c\ud06c\ub180\ub85c\uc9c0
p3820
aV\ud55c\uad6d\ud1a0\uc9c0\uc2e0\ud0c1
p3821
aV\ud55c\uad6d\ud329\ud0a4\uc9c0
p3822
aV\ud55c\uae00\uacfc\ucef4\ud4e8\ud130
p3823
aV\ud55c\ub124\ud2b8
p3824
aV\ud55c\ub77cIMS
p3825
aV\ud55c\ube5b\uc18c\ud504\ud2b8
p3826
aV\ud55c\uc194\ub125\uc2a4\uc9c0
p3827
aV\ud55c\uc194\uc2e0\ud14d
p3828
aV\ud55c\uc194\uc778\ud2f0\ud050\ube0c
p3829
aV\ud55c\uc2a4\ubc14\uc774\uc624\uba54\ub4dc
p3830
aV\ud55c\uc591\ub514\uc9c0\ud14d
p3831
aV\ud55c\uc591\uc774\uc5d4\uc9c0
p3832
aV\ud55c\uc591\ud558\uc774\ud0c0\uc624
p3833
aV\ud55c\uc77c\ub124\ud2b8\uc6cd\uc2a4
p3834
aV\ud55c\uc77c\ub2e8\uc870
p3835
aV\ud55c\uc77c\uc0ac\ub8cc
p3836
aV\ud55c\uc77c\uc9c4\uacf5
p3837
aV\ud55c\uc77c\ud654\ud559
p3838
aV\ud55c\uc9c4\ud53c\uc564\uc528
p3839
aV\ud55c\ucc3d\uc0b0\uc5c5
p3840
aV\ud55c\ucef4\uc9c0\uc5e0\ub514
p3841
aV\ud55c\ud0d1
p3842
aV\ud55c\ud654ACPC\uc2a4\ud329
p3843
aV\ud55c\ud654MGI\uc2a4\ud329
p3844
aV\ud55c\ud654\uc5d0\uc774\uc2a4\uc2a4\ud3291\ud638
p3845
aV\ud55c\ud654\uc5d0\uc774\uc2a4\uc2a4\ud3292\ud638
p3846
aV\ud574\ub355\ud30c\uc6cc\uc6e8\uc774
p3847
aV\ud574\uc131\uc0b0\uc5c5
p3848
aV\ud574\uc131\uc635\ud2f1\uc2a4
p3849
aV\ud589\ub0a8\uc790\uae30
p3850
aV\ud5e4\uc2a4\ubcf8
p3851
aV\ud604\ub300\uacf5\uc5c5
p3852
aV\ud604\ub300\ub4dc\ub9bc3\ud638\uc2a4\ud329
p3853
aV\ud604\ub300\ub4dc\ub9bc\uc2a4\ud3292\ud638
p3854
aV\ud604\ub300\uc544\uc774\ube44\ud2f0
p3855
aV\ud604\ub300\uc5d0\uc774\ube14\uc2a4\ud3291\ud638
p3856
aV\ud604\ub300\uc815\ubcf4\uae30\uc220
p3857
aV\ud604\ub300\ud1b5\uc2e0
p3858
aV\ud604\uc6b0\uc0b0\uc5c5
p3859
aV\ud604\uc9c4\uc18c\uc7ac
p3860
aV\ud648\uc13c\ud0c0
p3861
aV\ud648\uce90\uc2a4\ud2b8
p3862
aV\ud654\uc131
p3863
aV\ud654\uc2e0\uc815\uacf5
p3864
aV\ud654\uc2e0\ud14c\ud06c
p3865
aV\ud654\uc77c\uc57d\ud488
p3866
aV\ud654\uc9c4
p3867
aV\ud6a8\uc131\uc624\uc564\ube44
p3868
aV\ud718\ub2c9\uc2a4\uc18c\uc7ac
p3869
aV\ud734\ub9e5\uc2a4
p3870
aV\ud734\ub9e5\uc2a4\ud640\ub529\uc2a4
p3871
aV\ud734\uba54\ub515\uc2a4
p3872
aV\ud734\ube44\uce20
p3873
aV\ud734\uc628\uc2a4
p3874
aV\ud765\uad6c\uc11d\uc720
p3875
aV\ud765\uad6d
p3876
aV\ud765\uad6d\uc5d0\ud504\uc5d4\ube44
p3877
aV\ud76c\ub9bc
p3878
aV\uad00\uc545\uc0b0\uc5c5
p3879
aV\uad6c\ub984\ucef4\ud37c\ub2c8
p3880
aV\uadf8\ub9b0\ud50c\ub7ec\uc2a4
p3881
aV\uae08\uc624\ud558\uc774\ud14d
p3882
aV\ub098\ub178\ubc14\uc774\uc624\uc2dc\uc2a4
p3883
aV\ub098\uc774\ucf54
p3884
aV\ub124\ucd94\ub7f4FNP
p3885
aV\ub2c9\uc2a4\ud14c\ud06c
p3886
aV\ub2e4\ub9b0
p3887
aV\ub300\ub3d9\uace0\ub824\uc0bc
p3888
aV\ub300\uc8fc\uc774\uc5d4\ud2f0
p3889
aV\ub370\uc774\ud130\uc2a4\ud2b8\ub9bc\uc988
p3890
aV\ub370\uce74\uc2dc\uc2a4\ud15c
p3891
aV\ub4c0\ucf10\ubc14\uc774\uc624
p3892
aV\ub4dc\ub9bc\ud2f0\uc5d4\ud130\ud14c\uc778\uba3c\ud2b8
p3893
aV\ub514\uc9c0\ucea1
p3894
aV\ub514\ud53c\uc564\ucf00\uc774
p3895
aV\ub798\ubabd\ub798\uc778
p3896
aV\ub9ac\ub4dc
p3897
aV\ub9e4\uc9c1\ub9c8\uc774\ud06c\ub85c
p3898
aV\ubc14\uc774\uc624\ub9ac\ub354\uc2a4
p3899
aV\ubc14\uc774\uc624\ucf54\uc544
p3900
aV\ube44\ub098\ud14d
p3901
aV\ube44\uc564\uc5d0\uc2a4\ubbf8\ub514\uc5b4
p3902
aV\ube44\uc5d4\ub514\uc0dd\ud65c\uac74\uac15
p3903
aV\uc138\uc2e0\ubc84\ud314\ub85c
p3904
aV\uc138\uc885\uba38\ud2f0\ub9ac\uc5bc\uc988
p3905
aV\uc138\ud654\ud53c\uc564\uc528
p3906
aV\uc18c\ud504\ud2b8\ucea0\ud504
p3907
aV\uc194\ud2b8\uc6cd\uc2a4
p3908
aV\uc218\ud504\ub85c
p3909
aV\uc36c\ud14c\ud06c
p3910
aV\uc528\uc544\uc774\uc5d0\uc2a4
p3911
aV\uc528\uc557
p3912
aV\uc528\uc774\ub7a9
p3913
aV\uc528\ud2f0\ub124\ud2b8\uc6cd\uc2a4
p3914
aV\uc544\uc2dc\uc544\uc885\ubb18
p3915
aV\uc544\uc774\uc9c4
p3916
aV\uc544\uc774\ucf00\uc774\uc138\ubbf8\ucf58
p3917
aV\uc54c\uc5d4\ud22c\ud14c\ud06c\ub180\ub85c\uc9c0
p3918
aV\uc5d0\ub4c0\ucf00\uc774\uc158\ud30c\ud2b8\ub108
p3919
aV\uc5d0\uc2a4\uc5d0\uc774\ud2f0\uc774\uc5d4\uc9c0
p3920
aV\uc5d0\uc2a4\uc5d4\ud53c\uc81c\ub124\ud2f1\uc2a4
p3921
aV\uc5d0\uc774\ube44\uc628
p3922
aV\uc5d0\ud504\uc564\uac00\uc774\ub4dc
p3923
aV\uc5d1\uc2dc\ucf58
p3924
aV\uc5d4\uc5d0\uc2a4\ucef4\ud37c\ub2c8
p3925
aV\uc5d4\uc9c0\ucf10\uc0dd\uba85\uacfc\ud559
p3926
aV\uc5d8\uc564\ucf00\uc774\ubc14\uc774\uc624
p3927
aV\uc5d8\ud53c\ucf00\uc774
p3928
aV\uc5e0\uc9c0\uba54\ub4dc
p3929
aV\uc608\uc2a4\ud2f0
p3930
aV\uc610\ub85c\ud398\uc774
p3931
aV\uc635\ud1a0\ud329
p3932
aV\uc6d0\ud14d
p3933
aV\uc704\uc6d4\ub4dc
p3934
aV\uc720\ub2c8\uc628\ucee4\ubba4\ub2c8\ud2f0
p3935
aV\uc720\ub2c8\ud3ec\uc778\ud2b8
p3936
aV\uc720\ub514\ud53c
p3937
aV\uc720\ube44\uc628
p3938
aV\uc720\ud22c\ubc14\uc774\uc624
p3939
aV\uc774\uae40\ud504\ub85c\ub355\uc158
p3940
aV\uc774\uc5d4\ub4dc\ub514
p3941
aV\uc774\uc5d8\ud53c
p3942
aV\uc774\ud478\ub978
p3943
aV\uc815\ub2e4\uc6b4
p3944
aV\uc81c\ub180\ub8e8\uc158
p3945
aV\uc9c0\ud2f0\uc9c0\uc6f0\ub2c8\uc2a4
p3946
aV\uccad\uad11\uc885\uac74
p3947
aV\ucf54\uc14b
p3948
aV\ud050\uc5e0\uc528
p3949
aV\ud0dc\uc591\uae30\uacc4
p3950
aV\ud14c\ub77c\ud14d
p3951
aV\ud234\uc820
p3952
aV\ud2f8\ub860
p3953
aV\ud310\ub3c4\ub77c\ud2f0\ube44
p3954
aV\ud4e8\uccd0\ucf10
p3955
aV\ud504\ub809\ucf54
p3956
aV\ud50c\ub7fc\ub77c\uc778\uc0dd\uba85\uacfc\ud559
p3957
aV\ud53c\ub178\ud14d
p3958
aV\ud53c\uc5e0\ub514\uc544\uce74\ub370\ubbf8
p3959
aV\ud53c\uc5e0\uc5d0\uc2a4
p3960
aV\ud558\ub098\uc77c\ub809\ucf64
p3961
aV\ud55c\uc8fc\uae08\uc18d
p3962
aV\ud55c\uc911\uc5d4\uc2dc\uc5d0\uc2a4
p3963
aV\ud578\ub514\uc18c\ud504\ud2b8
p3964
aV\ud604\uc131\ubc14\uc774\ud0c8
p3965
aVKRX:095570
p3966
aVKOSDAQ:060310
p3967
aFnan
aVKRX:068400
p3968
aVKRX:006840
p3969
aVKRX:027410
p3970
aVKRX:138930
p3971
aVKRX:001460
p3972
aVKRX:001040
p3973
aVKRX:079160
p3974
aVKRX:000120
p3975
aVKRX:011150
p3976
aVKRX:097950
p3977
aVKRX:037560
p3978
aVKRX:000590
p3979
aVKRX:139130
p3980
aVKRX:004840
p3981
aVKRX:155660
p3982
aVKRX:069730
p3983
aVKRX:017940
p3984
aVKRX:007700
p3985
aVKRX:114090
p3986
aVKRX:078930
p3987
aVKRX:006360
p3988
aVKRX:001250
p3989
aVKRX:007070
p3990
aVKRX:035000
p3991
aVKRX:001500
p3992
aVKRX:011420
p3993
aVKRX:175330
p3994
aVKRX:001060
p3995
aVKRX:096760
p3996
aVKRX:105560
p3997
aVKRX:002550
p3998
aVKRX:009440
p3999
aVKRX:119650
p4000
aVKRX:092220
p4001
aVKRX:109070
p4002
aVKRX:001390
p4003
aVKRX:001940
p4004
aVKRX:083420
p4005
aVKRX:025000
p4006
aVKRX:092230
p4007
aVKRX:000040
p4008
aVKRX:044450
p4009
aVKRX:030210
p4010
aVKRX:058850
p4011
aVKRX:093050
p4012
aVKRX:003550
p4013
aVKRX:034220
p4014
aVKRX:001120
p4015
aVKRX:068870
p4016
aVKRX:051900
p4017
aVKRX:032640
p4018
aVKRX:011070
p4019
aVKRX:066570
p4020
aVKRX:108670
p4021
aVKRX:051910
p4022
aVKRX:006260
p4023
aVKRX:000680
p4024
aVKRX:010120
p4025
aVKRX:023150
p4026
aVKRX:035420
p4027
aVKRX:181710
p4028
aVKRX:005940
p4029
aVKRX:034310
p4030
aVKRX:008260
p4031
aVKRX:010060
p4032
aVKRX:100840
p4033
aVKRX:064960
p4034
aVKRX:003570
p4035
aVKRX:036530
p4036
aVKRX:010950
p4037
aVKRX:034120
p4038
aVKRX:101060
p4039
aVKRX:004060
p4040
aVKRX:001380
p4041
aVKRX:002360
p4042
aVKRX:009160
p4043
aVKRX:034730
p4044
aVKRX:011790
p4045
aVKRX:018670
p4046
aVKRX:001740
p4047
aVKRX:096770
p4048
aVKRX:001510
p4049
aVKRX:006120
p4050
aVKRX:017670
p4051
aVKRX:000660
p4052
aVKRX:011810
p4053
aVKRX:077970
p4054
aVKRX:071970
p4055
aVKRX:002710
p4056
aVKRX:024070
p4057
aVKRX:037270
p4058
aVKRX:000500
p4059
aVKRX:035250
p4060
aVKRX:000860
p4061
aVKRX:008020
p4062
aVKRX:002100
p4063
aVKRX:009450
p4064
aVKRX:012320
p4065
aVKRX:000050
p4066
aVKRX:214390
p4067
aVKRX:012610
p4068
aVKRX:009140
p4069
aVKRX:013580
p4070
aVKRX:012200
p4071
aVKRX:004200
p4072
aVKRX:002140
p4073
aVKRX:010130
p4074
aVKRX:002240
p4075
aVKRX:009810
p4076
aVKRX:001290
p4077
aVKRX:009290
p4078
aVKRX:017040
p4079
aVKRX:017900
p4080
aVKRX:037710
p4081
aVKRX:192530
p4082
aVKRX:140910
p4083
aVKRX:030610
p4084
aVKRX:007690
p4085
aVKRX:005320
p4086
aVKRX:001140
p4087
aVKRX:002720
p4088
aVKRX:014530
p4089
aVKRX:014280
p4090
aVKRX:008870
p4091
aVKRX:001570
p4092
aVKRX:002990
p4093
aVKRX:011780
p4094
aVKRX:001210
p4095
aVKRX:073240
p4096
aVKRX:092440
p4097
aVKRX:000270
p4098
aVKRX:024110
p4099
aVKRX:004540
p4100
aVKRX:007460
p4101
aVKRX:001260
p4102
aVKRX:008350
p4103
aVKRX:004270
p4104
aVKRX:003920
p4105
aVKRX:002070
p4106
aVKRX:025860
p4107
aVKRX:005720
p4108
aVKRX:002350
p4109
aVKRX:110570
p4110
aVKRX:090350
p4111
aVKRX:000320
p4112
aVKRX:006280
p4113
aVKRX:005250
p4114
aVKRX:004370
p4115
aVKRX:072710
p4116
aVKRX:023590
p4117
aVKRX:020120
p4118
aVKRX:015590
p4119
aVKRX:019680
p4120
aVKRX:006370
p4121
aVKRX:004130
p4122
aVKRX:008060
p4123
aVKRX:000490
p4124
aVKRX:008110
p4125
aVKRX:005750
p4126
aVKRX:000210
p4127
aVKRX:006570
p4128
aVKRX:001680
p4129
aVKRX:084690
p4130
aVKRX:128820
p4131
aVKRX:117580
p4132
aVKRX:005620
p4133
aVKRX:016710
p4134
aVKRX:003540
p4135
aVKRX:009190
p4136
aVKRX:014160
p4137
aVKRX:047040
p4138
aVKRX:009320
p4139
aVKRX:047050
p4140
aVKRX:042660
p4141
aVKRX:006800
p4142
aVKRX:003090
p4143
aVKRX:069620
p4144
aVKRX:000430
p4145
aVKRX:006340
p4146
aVKRX:003220
p4147
aVKRX:024890
p4148
aVKRX:000300
p4149
aVKRX:002880
p4150
aVKRX:012800
p4151
aVKRX:015230
p4152
aVKRX:001070
p4153
aVKRX:006650
p4154
aVKRX:001440
p4155
aVKRX:084010
p4156
aVKRX:001790
p4157
aVKRX:001130
p4158
aVKRX:003490
p4159
aVKRX:005880
p4160
aVKRX:003830
p4161
aVKRX:016090
p4162
aVKRX:069460
p4163
aVKRX:084870
p4164
aVKRX:012510
p4165
aVKRX:004830
p4166
aVKRX:024900
p4167
aVKRX:008000
p4168
aVKRX:002150
p4169
aVKRX:001620
p4170
aVKRX:001230
p4171
aVKRX:023450
p4172
aVKRX:004140
p4173
aVKRX:007590
p4174
aVKRX:012030
p4175
aVKRX:005960
p4176
aVKRX:016380
p4177
aVKRX:016610
p4178
aVKRX:000990
p4179
aVKRX:005830
p4180
aVKRX:083350
p4181
aVKRX:083360
p4182
aVKRX:083370
p4183
aVKRX:083380
p4184
aVKRX:083390
p4185
aVKRX:002210
p4186
aVKRX:102260
p4187
aVKRX:005190
p4188
aVKRX:000640
p4189
aVKRX:058730
p4190
aVKRX:170900
p4191
aVKRX:008040
p4192
aVKRX:028100
p4193
aVKRX:007340
p4194
aVKRX:001520
p4195
aVKRX:084670
p4196
aVKRX:030790
p4197
aVKRX:002900
p4198
aVKRX:082640
p4199
aVKRX:008970
p4200
aVKRX:003580
p4201
aVKRX:049770
p4202
aVKRX:018500
p4203
aVKRX:006040
p4204
aVKRX:030720
p4205
aVKRX:014820
p4206
aVKRX:163560
p4207
aVKRX:001530
p4208
aVKRX:004890
p4209
aVKRX:019300
p4210
aVKRX:000020
p4211
aVKRX:000150
p4212
aVKRX:011160
p4213
aVKRX:082740
p4214
aVKRX:042670
p4215
aVKRX:034020
p4216
aVKRX:024090
p4217
aVKRX:003160
p4218
aVKRX:092200
p4219
aVKRX:013570
p4220
aVKRX:210540
p4221
aVKRX:026890
p4222
aVKRX:115390
p4223
aVKRX:032350
p4224
aVKRX:000400
p4225
aVKRX:023530
p4226
aVKRX:004990
p4227
aVKRX:005300
p4228
aVKRX:011170
p4229
aVKRX:002270
p4230
aVKRX:071840
p4231
aVKRX:027740
p4232
aVKRX:204320
p4233
aVKRX:001080
p4234
aVKRX:088980
p4235
aVKRX:094800
p4236
aVKRX:138040
p4237
aVKRX:008560
p4238
aVKRX:000060
p4239
aVKRX:017180
p4240
aVKRX:012690
p4241
aVKRX:005360
p4242
aVKRX:009680
p4243
aVKRX:009580
p4244
aVKRX:009200
p4245
aVKRX:033920
p4246
aVKRX:008420
p4247
aVKRX:025560
p4248
aVKRX:007120
p4249
aVKRX:085620
p4250
aVKRX:037620
p4251
aVKRX:002840
p4252
aVKRX:107590
p4253
aVKRX:134380
p4254
aVKRX:003650
p4255
aVKRX:155900
p4256
aVKRX:092630
p4257
aVKRX:003610
p4258
aVKRX:001340
p4259
aVKRX:014580
p4260
aVKRX:035150
p4261
aVKRX:002410
p4262
aVKRX:096300
p4263
aVKRX:007210
p4264
aVKRX:002760
p4265
aVKRX:003850
p4266
aVKRX:004740
p4267
aVKRX:000890
p4268
aVKRX:003000
p4269
aVKRX:001270
p4270
aVKRX:026940
p4271
aVKRX:015350
p4272
aVKRX:011390
p4273
aVKRX:005030
p4274
aVKRX:100220
p4275
aVKRX:005180
p4276
aVKRX:003960
p4277
aVKRX:007160
p4278
aVKRX:014710
p4279
aVKRX:006090
p4280
aVKRX:079660
p4281
aVKRX:005090
p4282
aVKRX:005610
p4283
aVKRX:001470
p4284
aVKRX:006400
p4285
aVKRX:006660
p4286
aVKRX:000830
p4287
aVKRX:032830
p4288
aVKRX:018260
p4289
aVKRX:028050
p4290
aVKRX:009150
p4291
aVKRX:005930
p4292
aVKRX:004000
p4293
aVKRX:001360
p4294
aVKRX:010140
p4295
aVKRX:016360
p4296
aVKRX:068290
p4297
aVKRX:029780
p4298
aVKRX:000810
p4299
aVKRX:006110
p4300
aVKRX:145990
p4301
aVKRX:003230
p4302
aVKRX:003940
p4303
aVKRX:002170
p4304
aVKRX:000070
p4305
aVKRX:002810
p4306
aVKRX:005680
p4307
aVKRX:003720
p4308
aVKRX:023000
p4309
aVKRX:004380
p4310
aVKRX:002450
p4311
aVKRX:000520
p4312
aVKRX:009770
p4313
aVKRX:005500
p4314
aVKRX:004690
p4315
aVKRX:001880
p4316
aVKRX:010960
p4317
aVKRX:004450
p4318
aVKRX:009470
p4319
aVKRX:011230
p4320
aVKRX:001820
p4321
aVKRX:000390
p4322
aVKRX:013700
p4323
aVKRX:041650
p4324
aVKRX:075180
p4325
aVKRX:007540
p4326
aVKRX:007860
p4327
aVKRX:017390
p4328
aVKRX:004410
p4329
aVKRX:021050
p4330
aVKRX:008490
p4331
aVKRX:007610
p4332
aVKRX:136490
p4333
aVKRX:002820
p4334
aVKRX:014910
p4335
aVKRX:003080
p4336
aVKRX:004980
p4337
aVKRX:011300
p4338
aVKRX:005980
p4339
aVKRX:000180
p4340
aVKRX:002420
p4341
aVKRX:004360
p4342
aVKRX:004490
p4343
aVKRX:001430
p4344
aVKRX:003030
p4345
aVKRX:019440
p4346
aVKRX:058650
p4347
aVKRX:013000
p4348
aVKRX:091090
p4349
aVKRX:021820
p4350
aVKRX:067830
p4351
aVKRX:033530
p4352
aVKRX:027970
p4353
aVKRX:145210
p4354
aVKRX:004430
p4355
aVKRX:017550
p4356
aVKRX:003060
p4357
aVKRX:016590
p4358
aVKRX:029530
p4359
aVKRX:004970
p4360
aVKRX:011930
p4361
aVKRX:104120
p4362
aVKRX:104110
p4363
aVKRX:005390
p4364
aVKRX:004170
p4365
aVKRX:035510
p4366
aVKRX:034300
p4367
aVKRX:031430
p4368
aVKRX:031440
p4369
aVKRX:006880
p4370
aVKRX:005800
p4371
aVKRX:001720
p4372
aVKRX:025620
p4373
aVKRX:009270
p4374
aVKRX:002700
p4375
aVKRX:019170
p4376
aVKRX:002870
p4377
aVKRX:005450
p4378
aVKRX:055550
p4379
aVKRX:001770
p4380
aVKRX:004080
p4381
aVKRX:102280
p4382
aVKRX:047400
p4383
aVKRX:003410
p4384
aVKRX:003620
p4385
aVKRX:004770
p4386
aVKRX:004920
p4387
aVKRX:112610
p4388
aVKRX:008700
p4389
aVKRX:090430
p4390
aVKRX:002790
p4391
aVKRX:090370
p4392
aVKRX:002030
p4393
aVKRX:183190
p4394
aVKRX:002310
p4395
aVKRX:083570
p4396
aVKRX:020560
p4397
aVKRX:083580
p4398
aVKRX:083590
p4399
aVKRX:083600
p4400
aVKRX:083610
p4401
aVKRX:083620
p4402
aVKRX:122900
p4403
aVKRX:010780
p4404
aVKRX:003560
p4405
aVKRX:033660
p4406
aVKRX:101140
p4407
aVKRX:001780
p4408
aVKRX:002250
p4409
aVKRX:161000
p4410
aVKRX:011090
p4411
aVKRX:093240
p4412
aVKRX:005850
p4413
aVKRX:012750
p4414
aVKRX:123700
p4415
aVKRX:025530
p4416
aVKRX:210980
p4417
aVKRX:023960
p4418
aVKRX:078520
p4419
aVKRX:015260
p4420
aVKRX:036570
p4421
aVKRX:138250
p4422
aVKRX:085310
p4423
aVKRX:004250
p4424
aVKRX:069640
p4425
aVKRX:014440
p4426
aVKRX:111770
p4427
aVKRX:009970
p4428
aVKRX:003520
p4429
aVKRX:000670
p4430
aVKRX:006740
p4431
aVKRX:012280
p4432
aVKRX:012160
p4433
aVKRX:015360
p4434
aVKRX:007310
p4435
aVKRX:002630
p4436
aVKRX:001800
p4437
aVKRX:010600
p4438
aVKRX:004720
p4439
aVKRX:118000
p4440
aVKRX:000030
p4441
aVKRX:010050
p4442
aVKRX:006980
p4443
aVKRX:017370
p4444
aVKRX:105840
p4445
aVKRX:049800
p4446
aVKRX:016880
p4447
aVKRX:095720
p4448
aVKRX:103130
p4449
aVKRX:005820
p4450
aVKRX:008600
p4451
aVKRX:033270
p4452
aVKRX:014830
p4453
aVKRX:000910
p4454
aVKRX:011330
p4455
aVKRX:077500
p4456
aVKRX:002920
p4457
aVKRX:000700
p4458
aVKRX:003470
p4459
aVKRX:011690
p4460
aVKRX:072130
p4461
aVKRX:000220
p4462
aVKRX:001200
p4463
aVKRX:000100
p4464
aVKRX:003460
p4465
aVKRX:008730
p4466
aVKRX:008250
p4467
aVKRX:025820
p4468
aVKRX:214320
p4469
aVKRX:139480
p4470
aVKRX:007660
p4471
aVKRX:005950
p4472
aVKRX:015020
p4473
aVKRX:093230
p4474
aVKRX:074610
p4475
aVKRX:102460
p4476
aVKRX:084680
p4477
aVKRX:138440
p4478
aVKRX:000760
p4479
aVKRX:014990
p4480
aVKRX:006490
p4481
aVKRX:023800
p4482
aVKRX:034590
p4483
aVKRX:129260
p4484
aVKRX:023810
p4485
aVKRX:000230
p4486
aVKRX:013360
p4487
aVKRX:003120
p4488
aVKRX:003200
p4489
aVKRX:007110
p4490
aVKRX:007570
p4491
aVKRX:008500
p4492
aVKRX:081000
p4493
aVKRX:020760
p4494
aVKRX:020150
p4495
aVKRX:103590
p4496
aVKRX:015860
p4497
aVKRX:033240
p4498
aVKRX:000950
p4499
aVKRX:030000
p4500
aVKRX:028260
p4501
aVKRX:002620
p4502
aVKRX:001560
p4503
aVKRX:006220
p4504
aVKRX:004910
p4505
aVKRX:004700
p4506
aVKRX:001550
p4507
aVKRX:000480
p4508
aVKRX:120030
p4509
aVKRX:018470
p4510
aVKRX:002600
p4511
aVKRX:185750
p4512
aVKRX:063160
p4513
aVKRX:001630
p4514
aVKRX:044380
p4515
aVKRX:900050
p4516
aVKRX:007630
p4517
aVKRX:013870
p4518
aVKRX:071320
p4519
aVKRX:010580
p4520
aVKRX:088790
p4521
aVKRX:003780
p4522
aVKRX:010640
p4523
aVKRX:100250
p4524
aVKRX:051630
p4525
aVKRX:011000
p4526
aVKRX:002780
p4527
aVKRX:009310
p4528
aVKRX:000650
p4529
aVKRX:012600
p4530
aVKRX:033250
p4531
aVKRX:006380
p4532
aVKRX:021960
p4533
aVKRX:002380
p4534
aVKRX:029460
p4535
aVKRX:009070
p4536
aVKRX:145270
p4537
aVKRX:030200
p4538
aVKRX:058860
p4539
aVKRX:053210
p4540
aVKRX:033780
p4541
aVKRX:900140
p4542
aVKRX:090970
p4543
aVKRX:090980
p4544
aVKRX:090990
p4545
aVKRX:091000
p4546
aVKRX:007810
p4547
aVKRX:003690
p4548
aVKRX:192820
p4549
aVKRX:044820
p4550
aVKRX:005070
p4551
aVKRX:005420
p4552
aVKRX:071950
p4553
aVKRX:002020
p4554
aVKRX:003070
p4555
aVKRX:144620
p4556
aVKRX:120110
p4557
aVKRX:138490
p4558
aVKRX:021240
p4559
aVKRX:121550
p4560
aVKRX:031820
p4561
aVKRX:192400
p4562
aVKRX:005740
p4563
aVKRX:012170
p4564
aVKRX:039490
p4565
aVKRX:015890
p4566
aVKRX:006890
p4567
aVKRX:003240
p4568
aVKRX:011280
p4569
aVKRX:004100
p4570
aVKRX:009410
p4571
aVKRX:001420
p4572
aVKRX:007980
p4573
aVKRX:078000
p4574
aVKRX:214420
p4575
aVKRX:140890
p4576
aVKRX:019180
p4577
aVKRX:004870
p4578
aVKRX:008900
p4579
aVKRX:134790
p4580
aVKRX:005690
p4581
aVKRX:036580
p4582
aVKRX:028670
p4583
aVKRX:010820
p4584
aVKRX:016800
p4585
aVKRX:001020
p4586
aVKRX:950010
p4587
aVKRX:090080
p4588
aVKRX:010770
p4589
aVKRX:005490
p4590
aVKRX:058430
p4591
aVKRX:051310
p4592
aVKRX:017810
p4593
aVKRX:103140
p4594
aVKRX:005810
p4595
aVKRX:033180
p4596
aVKRX:086790
p4597
aVKRX:099340
p4598
aVKRX:099350
p4599
aVKRX:039130
p4600
aVKRX:172580
p4601
aVKRX:139200
p4602
aVKRX:153360
p4603
aVKRX:159650
p4604
aVKRX:071090
p4605
aVKRX:019490
p4606
aVKRX:000080
p4607
aVKRX:000140
p4608
aVKRX:152550
p4609
aVKRX:036460
p4610
aVKRX:005430
p4611
aVKRX:071050
p4612
aVKRX:010040
p4613
aVKRX:025540
p4614
aVKRX:004090
p4615
aVKRX:002200
p4616
aVKRX:002960
p4617
aVKRX:002000
p4618
aVKRX:015760
p4619
aVKRX:006200
p4620
aVKRX:002300
p4621
aVKRX:023350
p4622
aVKRX:025890
p4623
aVKRX:000970
p4624
aVKRX:104700
p4625
aVKRX:017960
p4626
aVKRX:161890
p4627
aVKRX:024720
p4628
aVKRX:161390
p4629
aVKRX:000240
p4630
aVKRX:007280
p4631
aVKRX:168490
p4632
aVKRX:010100
p4633
aVKRX:047810
p4634
aVKRX:123690
p4635
aVKRX:003350
p4636
aVKRX:011500
p4637
aVKRX:002390
p4638
aVKRX:014790
p4639
aVKRX:060980
p4640
aVKRX:053690
p4641
aVKRX:042700
p4642
aVKRX:008930
p4643
aVKRX:128940
p4644
aVKRX:009240
p4645
aVKRX:020000
p4646
aVKRX:003680
p4647
aVKRX:105630
p4648
aVKRX:016450
p4649
aVKRX:009180
p4650
aVKRX:007190
p4651
aVKRX:213500
p4652
aVKRX:014680
p4653
aVKRX:004710
p4654
aVKRX:010420
p4655
aVKRX:004150
p4656
aVKRX:025750
p4657
aVKRX:004960
p4658
aVKRX:011700
p4659
aVKRX:001750
p4660
aVKRX:018880
p4661
aVKRX:009420
p4662
aVKRX:014130
p4663
aVKRX:003300
p4664
aVKRX:200880
p4665
aVKRX:002220
p4666
aVKRX:051600
p4667
aVKRX:052690
p4668
aVKRX:130660
p4669
aVKRX:002320
p4670
aVKRX:097230
p4671
aVKRX:003480
p4672
aVKRX:180640
p4673
aVKRX:117930
p4674
aVKRX:005110
p4675
aVKRX:009460
p4676
aVKRX:000880
p4677
aVKRX:027390
p4678
aVKRX:088350
p4679
aVKRX:000370
p4680
aVKRX:009830
p4681
aVKRX:012450
p4682
aVKRX:003530
p4683
aVKRX:025850
p4684
aVKRX:015540
p4685
aVKRX:089470
p4686
aVKRX:000720
p4687
aVKRX:005440
p4688
aVKRX:086280
p4689
aVKRX:064350
p4690
aVKRX:079430
p4691
aVKRX:012330
p4692
aVKRX:010620
p4693
aVKRX:069960
p4694
aVKRX:004560
p4695
aVKRX:012630
p4696
aVKRX:011200
p4697
aVKRX:006390
p4698
aVKRX:004310
p4699
aVKRX:126560
p4700
aVKRX:017800
p4701
aVKRX:011210
p4702
aVKRX:005380
p4703
aVKRX:004020
p4704
aVKRX:011760
p4705
aVKRX:009540
p4706
aVKRX:003450
p4707
aVKRX:011720
p4708
aVKRX:001450
p4709
aVKRX:057050
p4710
aVKRX:003010
p4711
aVKRX:008770
p4712
aVKRX:002460
p4713
aVKRX:013520
p4714
aVKRX:006060
p4715
aVKRX:010690
p4716
aVKRX:133820
p4717
aVKRX:010660
p4718
aVKRX:000850
p4719
aVKRX:016580
p4720
aVKRX:032560
p4721
aVKRX:004800
p4722
aVKRX:094280
p4723
aVKRX:093370
p4724
aVKRX:081660
p4725
aVKRX:005870
p4726
aVKRX:079980
p4727
aVKRX:005010
p4728
aVKRX:069260
p4729
aVKRX:000540
p4730
aVKRX:003280
p4731
aVKOSDAQ:054620
p4732
aVKOSDAQ:090470
p4733
aVKOSDAQ:032040
p4734
aVKOSDAQ:130960
p4735
aVKOSDAQ:035760
p4736
aVKOSDAQ:051500
p4737
aVKOSDAQ:058820
p4738
aVKOSDAQ:023460
p4739
aVKOSDAQ:065770
p4740
aVKOSDAQ:068790
p4741
aVKOSDAQ:037370
p4742
aVKOSDAQ:079190
p4743
aVKOSDAQ:083450
p4744
aVKOSDAQ:028150
p4745
aVKOSDAQ:053870
p4746
aVKOSDAQ:078150
p4747
aVKOSDAQ:036640
p4748
aVKOSDAQ:204840
p4749
aVKOSDAQ:095340
p4750
aVKOSDAQ:099520
p4751
aVKOSDAQ:067290
p4752
aVKOSDAQ:035900
p4753
aVKOSDAQ:024120
p4754
aVKOSDAQ:021320
p4755
aVKOSDAQ:036670
p4756
aVKOSDAQ:068060
p4757
aVKOSDAQ:151860
p4758
aVKOSDAQ:046440
p4759
aVKOSDAQ:035600
p4760
aVKOSDAQ:060720
p4761
aVKOSDAQ:083470
p4762
aVKOSDAQ:122450
p4763
aVKOSDAQ:058400
p4764
aVKOSDAQ:114450
p4765
aVKOSDAQ:036030
p4766
aVKOSDAQ:043610
p4767
aVKOSDAQ:060370
p4768
aVKOSDAQ:079950
p4769
aVKOSDAQ:159910
p4770
aVKOSDAQ:086960
p4771
aVKOSDAQ:065150
p4772
aVKOSDAQ:160550
p4773
aVKOSDAQ:030190
p4774
aVKOSDAQ:036490
p4775
aVKOSDAQ:024940
p4776
aVKOSDAQ:091340
p4777
aVKOSDAQ:950110
p4778
aVKOSDAQ:019550
p4779
aVKOSDAQ:046140
p4780
aVKOSDAQ:099220
p4781
aVKOSDAQ:040610
p4782
aVKOSDAQ:049470
p4783
aVKOSDAQ:052300
p4784
aVKOSDAQ:090730
p4785
aVKOSDAQ:207930
p4786
aVKOSDAQ:219550
p4787
aVKOSDAQ:057500
p4788
aVKOSDAQ:178920
p4789
aVKOSDAQ:066270
p4790
aVKOSDAQ:048550
p4791
aVKOSDAQ:051980
p4792
aVKOSDAQ:036540
p4793
aVKOSDAQ:032540
p4794
aVKOSDAQ:048770
p4795
aVKOSDAQ:057030
p4796
aVKOSDAQ:040300
p4797
aVKOSDAQ:051390
p4798
aVKOSDAQ:052220
p4799
aVKOSDAQ:079940
p4800
aVKOSDAQ:078890
p4801
aVKOSDAQ:030270
p4802
aVKOSDAQ:192410
p4803
aVKOSDAQ:024840
p4804
aVKOSDAQ:094480
p4805
aVKOSDAQ:063080
p4806
aVKOSDAQ:039240
p4807
aVKOSDAQ:053950
p4808
aVKOSDAQ:011040
p4809
aVKOSDAQ:139050
p4810
aVKOSDAQ:024910
p4811
aVKOSDAQ:089890
p4812
aVKOSDAQ:049720
p4813
aVKOSDAQ:014570
p4814
aVKOSDAQ:098460
p4815
aVKOSDAQ:206660
p4816
aVKOSDAQ:219580
p4817
aVKOSDAQ:215000
p4818
aVKOSDAQ:121440
p4819
aVKOSDAQ:014200
p4820
aVKOSDAQ:026910
p4821
aVKOSDAQ:090150
p4822
aVKOSDAQ:208710
p4823
aVKOSDAQ:222810
p4824
aVKOSDAQ:223040
p4825
aVKOSDAQ:053270
p4826
aVKOSDAQ:066620
p4827
aVKOSDAQ:043650
p4828
aVKOSDAQ:006050
p4829
aVKOSDAQ:060480
p4830
aVKOSDAQ:078130
p4831
aVKOSDAQ:019010
p4832
aVKOSDAQ:900070
p4833
aVKOSDAQ:053260
p4834
aVKOSDAQ:058370
p4835
aVKOSDAQ:130500
p4836
aVKOSDAQ:036190
p4837
aVKOSDAQ:049080
p4838
aVKOSDAQ:035460
p4839
aVKOSDAQ:187790
p4840
aVKOSDAQ:151910
p4841
aVKOSDAQ:121600
p4842
aVKOSDAQ:039860
p4843
aVKOSDAQ:091970
p4844
aVKOSDAQ:051490
p4845
aVKOSDAQ:089600
p4846
aVKOSDAQ:138610
p4847
aVKOSDAQ:130580
p4848
aVKOSDAQ:036800
p4849
aVKOSDAQ:091590
p4850
aVKOSDAQ:168330
p4851
aVKOSDAQ:072770
p4852
aVKOSDAQ:095660
p4853
aVKOSDAQ:104200
p4854
aVKOSDAQ:042420
p4855
aVKOSDAQ:037340
p4856
aVKOSDAQ:085910
p4857
aVKOSDAQ:092730
p4858
aVKOSDAQ:101400
p4859
aVKOSDAQ:153460
p4860
aVKOSDAQ:007390
p4861
aVKOSDAQ:033640
p4862
aVKOSDAQ:087730
p4863
aVKOSDAQ:073070
p4864
aVKOSDAQ:089140
p4865
aVKOSDAQ:065170
p4866
aVKOSDAQ:139670
p4867
aVKOSDAQ:137940
p4868
aVKOSDAQ:092600
p4869
aVKOSDAQ:041140
p4870
aVKOSDAQ:031390
p4871
aVKOSDAQ:142280
p4872
aVKOSDAQ:054050
p4873
aVKOSDAQ:040160
p4874
aVKOSDAQ:069140
p4875
aVKOSDAQ:126870
p4876
aVKOSDAQ:060260
p4877
aVKOSDAQ:012340
p4878
aVKOSDAQ:900100
p4879
aVKOSDAQ:085670
p4880
aVKOSDAQ:053290
p4881
aVKOSDAQ:119860
p4882
aVKOSDAQ:064260
p4883
aVKOSDAQ:093640
p4884
aVKOSDAQ:039560
p4885
aVKOSDAQ:032190
p4886
aVKOSDAQ:068240
p4887
aVKOSDAQ:035720
p4888
aVKOSDAQ:012860
p4889
aVKOSDAQ:020400
p4890
aVKOSDAQ:008830
p4891
aVKOSDAQ:048470
p4892
aVKOSDAQ:004780
p4893
aVKOSDAQ:017650
p4894
aVKOSDAQ:007720
p4895
aVKOSDAQ:078140
p4896
aVKOSDAQ:036480
p4897
aVKOSDAQ:025440
p4898
aVKOSDAQ:027830
p4899
aVKOSDAQ:104040
p4900
aVKOSDAQ:217270
p4901
aVKOSDAQ:020180
p4902
aVKOSDAQ:045390
p4903
aVKOSDAQ:108380
p4904
aVKOSDAQ:006580
p4905
aVKOSDAQ:215480
p4906
aVKOSDAQ:204440
p4907
aVKOSDAQ:215580
p4908
aVKOSDAQ:048910
p4909
aVKOSDAQ:005710
p4910
aVKOSDAQ:120240
p4911
aVKOSDAQ:003310
p4912
aVKOSDAQ:078600
p4913
aVKOSDAQ:065690
p4914
aVKOSDAQ:096350
p4915
aVKOSDAQ:140520
p4916
aVKOSDAQ:131220
p4917
aVKOSDAQ:010170
p4918
aVKOSDAQ:054670
p4919
aVKOSDAQ:023910
p4920
aVKOSDAQ:021040
p4921
aVKOSDAQ:067080
p4922
aVKOSDAQ:213420
p4923
aVKOSDAQ:077360
p4924
aVKOSDAQ:090410
p4925
aVKOSDAQ:194480
p4926
aVKOSDAQ:017680
p4927
aVKOSDAQ:067990
p4928
aVKOSDAQ:100130
p4929
aVKOSDAQ:005160
p4930
aVKOSDAQ:075970
p4931
aVKOSDAQ:086450
p4932
aVKOSDAQ:099410
p4933
aVKOSDAQ:045890
p4934
aVKOSDAQ:207760
p4935
aVKOSDAQ:026960
p4936
aVKOSDAQ:033500
p4937
aVKOSDAQ:025950
p4938
aVKOSDAQ:088130
p4939
aVKOSDAQ:041930
p4940
aVKOSDAQ:038500
p4941
aVKOSDAQ:060380
p4942
aVKOSDAQ:079960
p4943
aVKOSDAQ:104460
p4944
aVKOSDAQ:088910
p4945
aVKOSDAQ:094170
p4946
aVKOSDAQ:013120
p4947
aVKOSDAQ:109860
p4948
aVKOSDAQ:032960
p4949
aVKOSDAQ:023790
p4950
aVKOSDAQ:005290
p4951
aVKOSDAQ:025900
p4952
aVKOSDAQ:078590
p4953
aVKOSDAQ:030350
p4954
aVKOSDAQ:073190
p4955
aVKOSDAQ:066670
p4956
aVKOSDAQ:109740
p4957
aVKOSDAQ:090710
p4958
aVKOSDAQ:131030
p4959
aVKOSDAQ:196490
p4960
aVKOSDAQ:066900
p4961
aVKOSDAQ:127120
p4962
aVKOSDAQ:092070
p4963
aVKOSDAQ:101000
p4964
aVKOSDAQ:134580
p4965
aVKOSDAQ:039840
p4966
aVKOSDAQ:108860
p4967
aVKOSDAQ:079810
p4968
aVKOSDAQ:113810
p4969
aVKOSDAQ:043360
p4970
aVKOSDAQ:106520
p4971
aVKOSDAQ:068930
p4972
aVKOSDAQ:033130
p4973
aVKOSDAQ:033310
p4974
aVKOSDAQ:105740
p4975
aVKOSDAQ:187220
p4976
aVKOSDAQ:131180
p4977
aVKOSDAQ:042510
p4978
aVKOSDAQ:050120
p4979
aVKOSDAQ:171120
p4980
aVKOSDAQ:171010
p4981
aVKOSDAQ:084650
p4982
aVKOSDAQ:141080
p4983
aVKOSDAQ:060300
p4984
aVKOSDAQ:184230
p4985
aVKOSDAQ:038390
p4986
aVKOSDAQ:047440
p4987
aVKOSDAQ:026040
p4988
aVKOSDAQ:090360
p4989
aVKOSDAQ:016170
p4990
aVKOSDAQ:067730
p4991
aVKOSDAQ:071280
p4992
aVKOSDAQ:043710
p4993
aVKOSDAQ:109960
p4994
aVKOSDAQ:038060
p4995
aVKOSDAQ:082800
p4996
aVKOSDAQ:085370
p4997
aVKOSDAQ:060240
p4998
aVKOSDAQ:042940
p4999
aVKOSDAQ:058470
p5000
aVKOSDAQ:039980
p5001
aVKOSDAQ:012700
p5002
aVKOSDAQ:038340
p5003
aVKOSDAQ:131100
p5004
aVKOSDAQ:014470
p5005
aVKOSDAQ:042500
p5006
aVKOSDAQ:098120
p5007
aVKOSDAQ:035480
p5008
aVKOSDAQ:038290
p5009
aVKOSDAQ:005990
p5010
aVKOSDAQ:093520
p5011
aVKOSDAQ:141070
p5012
aVKOSDAQ:072870
p5013
aVKOSDAQ:215200
p5014
aVKOSDAQ:041920
p5015
aVKOSDAQ:086900
p5016
aVKOSDAQ:078160
p5017
aVKOSDAQ:065650
p5018
aVKOSDAQ:140410
p5019
aVKOSDAQ:059210
p5020
aVKOSDAQ:096640
p5021
aVKOSDAQ:149940
p5022
aVKOSDAQ:080160
p5023
aVKOSDAQ:100030
p5024
aVKOSDAQ:101330
p5025
aVKOSDAQ:033200
p5026
aVKOSDAQ:006920
p5027
aVKOSDAQ:001810
p5028
aVKOSDAQ:161570
p5029
aVKOSDAQ:095500
p5030
aVKOSDAQ:215750
p5031
aVKOSDAQ:222420
p5032
aVKOSDAQ:049950
p5033
aVKOSDAQ:059090
p5034
aVKOSDAQ:214180
p5035
aVKOSDAQ:018700
p5036
aVKOSDAQ:035620
p5037
aVKOSDAQ:064520
p5038
aVKOSDAQ:053030
p5039
aVKOSDAQ:084990
p5040
aVKOSDAQ:064550
p5041
aVKOSDAQ:052260
p5042
aVKOSDAQ:038460
p5043
aVKOSDAQ:086040
p5044
aVKOSDAQ:043150
p5045
aVKOSDAQ:046310
p5046
aVKOSDAQ:066110
p5047
aVKOSDAQ:036620
p5048
aVKOSDAQ:019660
p5049
aVKOSDAQ:177350
p5050
aVKOSDAQ:014100
p5051
aVKOSDAQ:006910
p5052
aVKOSDAQ:026260
p5053
aVKOSDAQ:025270
p5054
aVKOSDAQ:008470
p5055
aVKOSDAQ:100120
p5056
aVKOSDAQ:064480
p5057
aVKOSDAQ:033560
p5058
aVKOSDAQ:200780
p5059
aVKOSDAQ:052900
p5060
aVKOSDAQ:141000
p5061
aVKOSDAQ:045970
p5062
aVKOSDAQ:090460
p5063
aVKOSDAQ:083650
p5064
aVKOSDAQ:086670
p5065
aVKOSDAQ:082920
p5066
aVKOSDAQ:054220
p5067
aVKOSDAQ:042370
p5068
aVKOSDAQ:032850
p5069
aVKOSDAQ:093190
p5070
aVKOSDAQ:065450
p5071
aVKOSDAQ:069540
p5072
aVKOSDAQ:072950
p5073
aVKOSDAQ:143240
p5074
aVKOSDAQ:123260
p5075
aVKOSDAQ:016100
p5076
aVKOSDAQ:100090
p5077
aVKOSDAQ:122350
p5078
aVKOSDAQ:014970
p5079
aVKOSDAQ:158380
p5080
aVKOSDAQ:018310
p5081
aVKOSDAQ:053700
p5082
aVKOSDAQ:009620
p5083
aVKOSDAQ:023600
p5084
aVKOSDAQ:111870
p5085
aVKOSDAQ:009300
p5086
aVKOSDAQ:054540
p5087
aVKOSDAQ:065570
p5088
aVKOSDAQ:082660
p5089
aVKOSDAQ:073640
p5090
aVKOSDAQ:032280
p5091
aVKOSDAQ:002290
p5092
aVKOSDAQ:037460
p5093
aVKOSDAQ:032750
p5094
aVKOSDAQ:054090
p5095
aVKOSDAQ:000250
p5096
aVKOSDAQ:024950
p5097
aVKOSDAQ:017480
p5098
aVKOSDAQ:046390
p5099
aVKOSDAQ:027580
p5100
aVKOSDAQ:091580
p5101
aVKOSDAQ:089980
p5102
aVKOSDAQ:042600
p5103
aVKOSDAQ:038070
p5104
aVKOSDAQ:006730
p5105
aVKOSDAQ:079650
p5106
aVKOSDAQ:100660
p5107
aVKOSDAQ:046890
p5108
aVKOSDAQ:036120
p5109
aVKOSDAQ:063170
p5110
aVKOSDAQ:027040
p5111
aVKOSDAQ:018680
p5112
aVKOSDAQ:093920
p5113
aVKOSDAQ:189860
p5114
aVKOSDAQ:122690
p5115
aVKOSDAQ:011370
p5116
aVKOSDAQ:065710
p5117
aVKOSDAQ:033790
p5118
aVKOSDAQ:035890
p5119
aVKOSDAQ:003100
p5120
aVKOSDAQ:123420
p5121
aVKOSDAQ:014620
p5122
aVKOSDAQ:037350
p5123
aVKOSDAQ:081580
p5124
aVKOSDAQ:045300
p5125
aVKOSDAQ:015750
p5126
aVKOSDAQ:080470
p5127
aVKOSDAQ:043260
p5128
aVKOSDAQ:053060
p5129
aVKOSDAQ:017510
p5130
aVKOSDAQ:214310
p5131
aVKOSDAQ:011560
p5132
aVKOSDAQ:096690
p5133
aVKOSDAQ:100700
p5134
aVKOSDAQ:024830
p5135
aVKOSDAQ:036630
p5136
aVKOSDAQ:039310
p5137
aVKOSDAQ:080440
p5138
aVKOSDAQ:067770
p5139
aVKOSDAQ:053450
p5140
aVKOSDAQ:158310
p5141
aVKOSDAQ:049180
p5142
aVKOSDAQ:068270
p5143
aVKOSDAQ:068760
p5144
aVKOSDAQ:053110
p5145
aVKOSDAQ:052190
p5146
aVKOSDAQ:032680
p5147
aVKOSDAQ:054920
p5148
aVKOSDAQ:066910
p5149
aVKOSDAQ:043100
p5150
aVKOSDAQ:070300
p5151
aVKOSDAQ:154040
p5152
aVKOSDAQ:035610
p5153
aVKOSDAQ:036830
p5154
aVKOSDAQ:039230
p5155
aVKOSDAQ:086980
p5156
aVKOSDAQ:084180
p5157
aVKOSDAQ:094840
p5158
aVKOSDAQ:192440
p5159
aVKOSDAQ:099440
p5160
aVKOSDAQ:115570
p5161
aVKOSDAQ:032860
p5162
aVKOSDAQ:087220
p5163
aVKOSDAQ:013810
p5164
aVKOSDAQ:039670
p5165
aVKOSDAQ:049830
p5166
aVKOSDAQ:111610
p5167
aVKOSDAQ:020710
p5168
aVKOSDAQ:033170
p5169
aVKOSDAQ:025320
p5170
aVKOSDAQ:131090
p5171
aVKOSDAQ:001000
p5172
aVKOSDAQ:025870
p5173
aVKOSDAQ:065350
p5174
aVKOSDAQ:086830
p5175
aVKOSDAQ:017000
p5176
aVKOSDAQ:012790
p5177
aVKOSDAQ:138070
p5178
aVKOSDAQ:203650
p5179
aVKOSDAQ:056700
p5180
aVKOSDAQ:187270
p5181
aVKOSDAQ:066430
p5182
aVKOSDAQ:007820
p5183
aVKOSDAQ:108320
p5184
aVKOSDAQ:222800
p5185
aVKOSDAQ:036710
p5186
aVKOSDAQ:160980
p5187
aVKOSDAQ:010280
p5188
aVKOSDAQ:051170
p5189
aVKOSDAQ:037760
p5190
aVKOSDAQ:136510
p5191
aVKOSDAQ:099320
p5192
aVKOSDAQ:049960
p5193
aVKOSDAQ:050890
p5194
aVKOSDAQ:099830
p5195
aVKOSDAQ:066790
p5196
aVKOSDAQ:086200
p5197
aVKOSDAQ:021880
p5198
aVKOSDAQ:115530
p5199
aVKOSDAQ:115480
p5200
aVKOSDAQ:096530
p5201
aVKOSDAQ:900120
p5202
aVKOSDAQ:101240
p5203
aVKOSDAQ:060590
p5204
aVKOSDAQ:036170
p5205
aVKOSDAQ:013990
p5206
aVKOSDAQ:123860
p5207
aVKOSDAQ:050320
p5208
aVKOSDAQ:058220
p5209
aVKOSDAQ:052710
p5210
aVKOSDAQ:074430
p5211
aVKOSDAQ:092040
p5212
aVKOSDAQ:083930
p5213
aVKOSDAQ:149950
p5214
aVKOSDAQ:036010
p5215
aVKOSDAQ:050860
p5216
aVKOSDAQ:067390
p5217
aVKOSDAQ:127710
p5218
aVKOSDAQ:143160
p5219
aVKOSDAQ:054800
p5220
aVKOSDAQ:078780
p5221
aVKOSDAQ:060570
p5222
aVKOSDAQ:099190
p5223
aVKOSDAQ:214430
p5224
aVKOSDAQ:040910
p5225
aVKOSDAQ:068940
p5226
aVKOSDAQ:052860
p5227
aVKOSDAQ:069920
p5228
aVKOSDAQ:038880
p5229
aVKOSDAQ:101390
p5230
aVKOSDAQ:114810
p5231
aVKOSDAQ:031310
p5232
aVKOSDAQ:059100
p5233
aVKOSDAQ:052460
p5234
aVKOSDAQ:119830
p5235
aVKOSDAQ:124500
p5236
aVKOSDAQ:032080
p5237
aVKOSDAQ:059120
p5238
aVKOSDAQ:056730
p5239
aVKOSDAQ:023890
p5240
aVKOSDAQ:067160
p5241
aVKOSDAQ:001540
p5242
aVKOSDAQ:053800
p5243
aVKOSDAQ:131370
p5244
aVKOSDAQ:096610
p5245
aVKOSDAQ:061040
p5246
aVKOSDAQ:196170
p5247
aVKOSDAQ:123750
p5248
aVKOSDAQ:085810
p5249
aVKOSDAQ:117670
p5250
aVKOSDAQ:022220
p5251
aVKOSDAQ:052790
p5252
aVKOSDAQ:131400
p5253
aVKOSDAQ:030960
p5254
aVKOSDAQ:102120
p5255
aVKOSDAQ:067630
p5256
aVKOSDAQ:019990
p5257
aVKOSDAQ:035290
p5258
aVKOSDAQ:025980
p5259
aVKOSDAQ:041440
p5260
aVKOSDAQ:038680
p5261
aVKOSDAQ:121890
p5262
aVKOSDAQ:097780
p5263
aVKOSDAQ:042110
p5264
aVKOSDAQ:065420
p5265
aVKOSDAQ:103230
p5266
aVKOSDAQ:900080
p5267
aVKOSDAQ:101490
p5268
aVKOSDAQ:095910
p5269
aVKOSDAQ:031330
p5270
aVKOSDAQ:060540
p5271
aVKOSDAQ:112240
p5272
aVKOSDAQ:056190
p5273
aVKOSDAQ:080000
p5274
aVKOSDAQ:160600
p5275
aVKOSDAQ:041510
p5276
aVKOSDAQ:096630
p5277
aVKOSDAQ:069510
p5278
aVKOSDAQ:041910
p5279
aVKOSDAQ:039440
p5280
aVKOSDAQ:098660
p5281
aVKOSDAQ:052020
p5282
aVKOSDAQ:050760
p5283
aVKOSDAQ:058610
p5284
aVKOSDAQ:043340
p5285
aVKOSDAQ:054630
p5286
aVKOSDAQ:200710
p5287
aVKOSDAQ:031860
p5288
aVKOSDAQ:003800
p5289
aVKOSDAQ:088800
p5290
aVKOSDAQ:138360
p5291
aVKOSDAQ:028300
p5292
aVKOSDAQ:044780
p5293
aVKOSDAQ:071670
p5294
aVKOSDAQ:045660
p5295
aVKOSDAQ:224110
p5296
aVKOSDAQ:021080
p5297
aVKOSDAQ:089530
p5298
aVKOSDAQ:073570
p5299
aVKOSDAQ:043580
p5300
aVKOSDAQ:038870
p5301
aVKOSDAQ:086520
p5302
aVKOSDAQ:038110
p5303
aVKOSDAQ:073540
p5304
aVKOSDAQ:036810
p5305
aVKOSDAQ:173940
p5306
aVKOSDAQ:065160
p5307
aVKOSDAQ:054940
p5308
aVKOSDAQ:950130
p5309
aVKOSDAQ:205100
p5310
aVKOSDAQ:067570
p5311
aVKOSDAQ:054340
p5312
aVKOSDAQ:095300
p5313
aVKOSDAQ:207720
p5314
aVKOSDAQ:206640
p5315
aVKOSDAQ:198440
p5316
aVKOSDAQ:215790
p5317
aVKOSDAQ:217810
p5318
aVKOSDAQ:218410
p5319
aVKOSDAQ:069410
p5320
aVKOSDAQ:068150
p5321
aVKOSDAQ:048830
p5322
aVKOSDAQ:096870
p5323
aVKOSDAQ:061970
p5324
aVKOSDAQ:138690
p5325
aVKOSDAQ:208140
p5326
aVKOSDAQ:220260
p5327
aVKOSDAQ:066970
p5328
aVKOSDAQ:073110
p5329
aVKOSDAQ:083310
p5330
aVKOSDAQ:037950
p5331
aVKOSDAQ:170920
p5332
aVKOSDAQ:058630
p5333
aVKOSDAQ:019590
p5334
aVKOSDAQ:097520
p5335
aVKOSDAQ:009780
p5336
aVKOSDAQ:123040
p5337
aVKOSDAQ:074150
p5338
aVKOSDAQ:032790
p5339
aVKOSDAQ:033160
p5340
aVKOSDAQ:050540
p5341
aVKOSDAQ:090740
p5342
aVKOSDAQ:193250
p5343
aVKOSDAQ:007530
p5344
aVKOSDAQ:143540
p5345
aVKOSDAQ:036180
p5346
aVKOSDAQ:036560
p5347
aVKOSDAQ:036000
p5348
aVKOSDAQ:053280
p5349
aVKOSDAQ:045060
p5350
aVKOSDAQ:080520
p5351
aVKOSDAQ:039830
p5352
aVKOSDAQ:046120
p5353
aVKOSDAQ:014940
p5354
aVKOSDAQ:065500
p5355
aVKOSDAQ:010470
p5356
aVKOSDAQ:053980
p5357
aVKOSDAQ:052420
p5358
aVKOSDAQ:039200
p5359
aVKOSDAQ:031510
p5360
aVKOSDAQ:048260
p5361
aVKOSDAQ:138080
p5362
aVKOSDAQ:080580
p5363
aVKOSDAQ:067170
p5364
aVKOSDAQ:049480
p5365
aVKOSDAQ:057540
p5366
aVKOSDAQ:057680
p5367
aVKOSDAQ:082210
p5368
aVKOSDAQ:109080
p5369
aVKOSDAQ:052770
p5370
aVKOSDAQ:122990
p5371
aVKOSDAQ:067900
p5372
aVKOSDAQ:155650
p5373
aVKOSDAQ:019210
p5374
aVKOSDAQ:122870
p5375
aVKOSDAQ:079000
p5376
aVKOSDAQ:900180
p5377
aVKOSDAQ:089230
p5378
aVKOSDAQ:114630
p5379
aVKOSDAQ:032820
p5380
aVKOSDAQ:041190
p5381
aVKOSDAQ:115440
p5382
aVKOSDAQ:046970
p5383
aVKOSDAQ:215360
p5384
aVKOSDAQ:072470
p5385
aVKOSDAQ:153490
p5386
aVKOSDAQ:082850
p5387
aVKOSDAQ:037400
p5388
aVKOSDAQ:101170
p5389
aVKOSDAQ:011080
p5390
aVKOSDAQ:194610
p5391
aVKOSDAQ:066590
p5392
aVKOSDAQ:046940
p5393
aVKOSDAQ:052270
p5394
aVKOSDAQ:065680
p5395
aVKOSDAQ:018620
p5396
aVKOSDAQ:032940
p5397
aVKOSDAQ:030530
p5398
aVKOSDAQ:074600
p5399
aVKOSDAQ:104830
p5400
aVKOSDAQ:014190
p5401
aVKOSDAQ:012620
p5402
aVKOSDAQ:008370
p5403
aVKOSDAQ:008290
p5404
aVKOSDAQ:101160
p5405
aVKOSDAQ:095270
p5406
aVKOSDAQ:900130
p5407
aVKOSDAQ:036260
p5408
aVKOSDAQ:065950
p5409
aVKOSDAQ:114190
p5410
aVKOSDAQ:076080
p5411
aVKOSDAQ:196700
p5412
aVKOSDAQ:069080
p5413
aVKOSDAQ:039790
p5414
aVKOSDAQ:044340
p5415
aVKOSDAQ:043220
p5416
aVKOSDAQ:112040
p5417
aVKOSDAQ:038620
p5418
aVKOSDAQ:036090
p5419
aVKOSDAQ:136540
p5420
aVKOSDAQ:097800
p5421
aVKOSDAQ:192390
p5422
aVKOSDAQ:044480
p5423
aVKOSDAQ:036200
p5424
aVKOSDAQ:018000
p5425
aVKOSDAQ:011320
p5426
aVKOSDAQ:086390
p5427
aVKOSDAQ:048430
p5428
aVKOSDAQ:089850
p5429
aVKOSDAQ:032620
p5430
aVKOSDAQ:078070
p5431
aVKOSDAQ:024800
p5432
aVKOSDAQ:054930
p5433
aVKOSDAQ:069330
p5434
aVKOSDAQ:049520
p5435
aVKOSDAQ:204620
p5436
aVKOSDAQ:219960
p5437
aVKOSDAQ:036500
p5438
aVKOSDAQ:195990
p5439
aVKOSDAQ:023410
p5440
aVKOSDAQ:056080
p5441
aVKOSDAQ:215090
p5442
aVKOSDAQ:084370
p5443
aVKOSDAQ:178780
p5444
aVKOSDAQ:044960
p5445
aVKOSDAQ:039020
p5446
aVKOSDAQ:060230
p5447
aVKOSDAQ:067920
p5448
aVKOSDAQ:073490
p5449
aVKOSDAQ:080420
p5450
aVKOSDAQ:088390
p5451
aVKOSDAQ:053350
p5452
aVKOSDAQ:033110
p5453
aVKOSDAQ:041520
p5454
aVKOSDAQ:054210
p5455
aVKOSDAQ:065440
p5456
aVKOSDAQ:115610
p5457
aVKOSDAQ:217600
p5458
aVKOSDAQ:078020
p5459
aVKOSDAQ:080010
p5460
aVKOSDAQ:086890
p5461
aVKOSDAQ:047560
p5462
aVKOSDAQ:900110
p5463
aVKOSDAQ:067010
p5464
aVKOSDAQ:102710
p5465
aVKOSDAQ:094190
p5466
aVKOSDAQ:123570
p5467
aVKOSDAQ:095190
p5468
aVKOSDAQ:091120
p5469
aVKOSDAQ:039030
p5470
aVKOSDAQ:088290
p5471
aVKOSDAQ:033600
p5472
aVKOSDAQ:035810
p5473
aVKOSDAQ:090850
p5474
aVKOSDAQ:058530
p5475
aVKOSDAQ:092130
p5476
aVKOSDAQ:016250
p5477
aVKOSDAQ:096040
p5478
aVKOSDAQ:134060
p5479
aVKOSDAQ:001840
p5480
aVKOSDAQ:024810
p5481
aVKOSDAQ:041830
p5482
aVKOSDAQ:060150
p5483
aVKOSDAQ:033230
p5484
aVKOSDAQ:037330
p5485
aVKOSDAQ:083640
p5486
aVKOSDAQ:049070
p5487
aVKOSDAQ:119610
p5488
aVKOSDAQ:017250
p5489
aVKOSDAQ:108790
p5490
aVKOSDAQ:035080
p5491
aVKOSDAQ:051370
p5492
aVKOSDAQ:023430
p5493
aVKOSDAQ:064290
p5494
aVKOSDAQ:150840
p5495
aVKOSDAQ:048530
p5496
aVKOSDAQ:115310
p5497
aVKOSDAQ:039290
p5498
aVKOSDAQ:036220
p5499
aVKOSDAQ:041020
p5500
aVKOSDAQ:071200
p5501
aVKOSDAQ:101930
p5502
aVKOSDAQ:078940
p5503
aVKOSDAQ:068330
p5504
aVKOSDAQ:058450
p5505
aVKOSDAQ:019540
p5506
aVKOSDAQ:094820
p5507
aVKOSDAQ:049550
p5508
aVKOSDAQ:043910
p5509
aVKOSDAQ:049630
p5510
aVKOSDAQ:065530
p5511
aVKOSDAQ:040420
p5512
aVKOSDAQ:045510
p5513
aVKOSDAQ:065620
p5514
aVKOSDAQ:095700
p5515
aVKOSDAQ:187420
p5516
aVKOSDAQ:123330
p5517
aVKOSDAQ:159580
p5518
aVKOSDAQ:147830
p5519
aVKOSDAQ:033100
p5520
aVKOSDAQ:019570
p5521
aVKOSDAQ:079370
p5522
aVKOSDAQ:054950
p5523
aVKOSDAQ:137950
p5524
aVKOSDAQ:033320
p5525
aVKOSDAQ:126880
p5526
aVKOSDAQ:033050
p5527
aVKOSDAQ:094970
p5528
aVKOSDAQ:058420
p5529
aVKOSDAQ:036420
p5530
aVKOSDAQ:089790
p5531
aVKOSDAQ:052670
p5532
aVKOSDAQ:023440
p5533
aVKOSDAQ:038010
p5534
aVKOSDAQ:080220
p5535
aVKOSDAQ:083660
p5536
aVKOSDAQ:082270
p5537
aVKOSDAQ:041590
p5538
aVKOSDAQ:044060
p5539
aVKOSDAQ:034940
p5540
aVKOSDAQ:101730
p5541
aVKOSDAQ:067000
p5542
aVKOSDAQ:033340
p5543
aVKOSDAQ:036930
p5544
aVKOSDAQ:072020
p5545
aVKOSDAQ:000440
p5546
aVKOSDAQ:054180
p5547
aVKOSDAQ:155960
p5548
aVKOSDAQ:114570
p5549
aVKOSDAQ:051160
p5550
aVKOSDAQ:053050
p5551
aVKOSDAQ:119850
p5552
aVKOSDAQ:065060
p5553
aVKOSDAQ:018290
p5554
aVKOSDAQ:115450
p5555
aVKOSDAQ:018120
p5556
aVKOSDAQ:109820
p5557
aVKOSDAQ:086060
p5558
aVKOSDAQ:036890
p5559
aVKOSDAQ:007370
p5560
aVKOSDAQ:196450
p5561
aVKOSDAQ:085660
p5562
aVKOSDAQ:900040
p5563
aVKOSDAQ:900090
p5564
aVKOSDAQ:094850
p5565
aVKOSDAQ:004650
p5566
aVKOSDAQ:111820
p5567
aVKOSDAQ:096240
p5568
aVKOSDAQ:013720
p5569
aVKOSDAQ:047820
p5570
aVKOSDAQ:094360
p5571
aVKOSDAQ:016920
p5572
aVKOSDAQ:071850
p5573
aVKOSDAQ:066410
p5574
aVKOSDAQ:050110
p5575
aVKOSDAQ:078340
p5576
aVKOSDAQ:044180
p5577
aVKOSDAQ:063440
p5578
aVKOSDAQ:029480
p5579
aVKOSDAQ:043290
p5580
aVKOSDAQ:203690
p5581
aVKOSDAQ:205500
p5582
aVKOSDAQ:208350
p5583
aVKOSDAQ:208640
p5584
aVKOSDAQ:214270
p5585
aVKOSDAQ:222390
p5586
aVKOSDAQ:192250
p5587
aVKOSDAQ:115500
p5588
aVKOSDAQ:089150
p5589
aVKOSDAQ:025880
p5590
aVKOSDAQ:093320
p5591
aVKOSDAQ:065940
p5592
aVKOSDAQ:073010
p5593
aVKOSDAQ:105330
p5594
aVKOSDAQ:039420
p5595
aVKOSDAQ:053810
p5596
aVKOSDAQ:083550
p5597
aVKOSDAQ:032500
p5598
aVKOSDAQ:122800
p5599
aVKOSDAQ:204650
p5600
aVKOSDAQ:214150
p5601
aVKOSDAQ:220630
p5602
aVKOSDAQ:064820
p5603
aVKOSDAQ:024880
p5604
aVKOSDAQ:042040
p5605
aVKOSDAQ:054410
p5606
aVKOSDAQ:089010
p5607
aVKOSDAQ:052400
p5608
aVKOSDAQ:094860
p5609
aVKOSDAQ:046070
p5610
aVKOSDAQ:047770
p5611
aVKOSDAQ:080530
p5612
aVKOSDAQ:078650
p5613
aVKOSDAQ:104540
p5614
aVKOSDAQ:027050
p5615
aVKOSDAQ:101670
p5616
aVKOSDAQ:123410
p5617
aVKOSDAQ:036690
p5618
aVKOSDAQ:049430
p5619
aVKOSDAQ:041960
p5620
aVKOSDAQ:009730
p5621
aVKOSDAQ:069110
p5622
aVKOSDAQ:048870
p5623
aVKOSDAQ:166480
p5624
aVKOSDAQ:038530
p5625
aVKOSDAQ:029960
p5626
aVKOSDAQ:102940
p5627
aVKOSDAQ:056000
p5628
aVKOSDAQ:033290
p5629
aVKOSDAQ:056360
p5630
aVKOSDAQ:121850
p5631
aVKOSDAQ:015710
p5632
aVKOSDAQ:052330
p5633
aVKOSDAQ:126600
p5634
aVKOSDAQ:200130
p5635
aVKOSDAQ:060280
p5636
aVKOSDAQ:040350
p5637
aVKOSDAQ:051780
p5638
aVKOSDAQ:065560
p5639
aVKOSDAQ:182360
p5640
aVKOSDAQ:066310
p5641
aVKOSDAQ:016600
p5642
aVKOSDAQ:067280
p5643
aVKOSDAQ:043590
p5644
aVKOSDAQ:114120
p5645
aVKOSDAQ:083790
p5646
aVKOSDAQ:045520
p5647
aVKOSDAQ:218710
p5648
aVKOSDAQ:054780
p5649
aVKOSDAQ:019770
p5650
aVKOSDAQ:065130
p5651
aVKOSDAQ:023160
p5652
aVKOSDAQ:053620
p5653
aVKOSDAQ:072520
p5654
aVKOSDAQ:044490
p5655
aVKOSDAQ:191420
p5656
aVKOSDAQ:123100
p5657
aVKOSDAQ:182690
p5658
aVKOSDAQ:066700
p5659
aVKOSDAQ:095610
p5660
aVKOSDAQ:131970
p5661
aVKOSDAQ:089030
p5662
aVKOSDAQ:038540
p5663
aVKOSDAQ:054450
p5664
aVKOSDAQ:091440
p5665
aVKOSDAQ:200230
p5666
aVKOSDAQ:051360
p5667
aVKOSDAQ:045340
p5668
aVKOSDAQ:057880
p5669
aVKOSDAQ:108230
p5670
aVKOSDAQ:079970
p5671
aVKOSDAQ:052290
p5672
aVKOSDAQ:105550
p5673
aVKOSDAQ:026150
p5674
aVKOSDAQ:121800
p5675
aVKOSDAQ:033830
p5676
aVKOSDAQ:064760
p5677
aVKOSDAQ:131290
p5678
aVKOSDAQ:062860
p5679
aVKOSDAQ:104480
p5680
aVKOSDAQ:081150
p5681
aVKOSDAQ:130740
p5682
aVKOSDAQ:084730
p5683
aVKOSDAQ:046210
p5684
aVKOSDAQ:034230
p5685
aVKOSDAQ:033540
p5686
aVKOSDAQ:043200
p5687
aVKOSDAQ:214450
p5688
aVKOSDAQ:177830
p5689
aVKOSDAQ:037070
p5690
aVKOSDAQ:150900
p5691
aVKOSDAQ:047310
p5692
aVKOSDAQ:170790
p5693
aVKOSDAQ:049120
p5694
aVKOSDAQ:038950
p5695
aVKOSDAQ:106240
p5696
aVKOSDAQ:131760
p5697
aVKOSDAQ:028040
p5698
aVKOSDAQ:091700
p5699
aVKOSDAQ:194510
p5700
aVKOSDAQ:032800
p5701
aVKOSDAQ:043090
p5702
aVKOSDAQ:027710
p5703
aVKOSDAQ:068050
p5704
aVKOSDAQ:060900
p5705
aVKOSDAQ:087010
p5706
aVKOSDAQ:043370
p5707
aVKOSDAQ:119500
p5708
aVKOSDAQ:016670
p5709
aVKOSDAQ:022100
p5710
aVKOSDAQ:009520
p5711
aVKOSDAQ:003670
p5712
aVKOSDAQ:189690
p5713
aVKOSDAQ:078860
p5714
aVKOSDAQ:141020
p5715
aVKOSDAQ:032980
p5716
aVKOSDAQ:005670
p5717
aVKOSDAQ:094940
p5718
aVKOSDAQ:007330
p5719
aVKOSDAQ:093380
p5720
aVKOSDAQ:023900
p5721
aVKOSDAQ:035200
p5722
aVKOSDAQ:053610
p5723
aVKOSDAQ:053160
p5724
aVKOSDAQ:060910
p5725
aVKOSDAQ:075130
p5726
aVKOSDAQ:023770
p5727
aVKOSDAQ:065270
p5728
aVKOSDAQ:032580
p5729
aVKOSDAQ:051380
p5730
aVKOSDAQ:131390
p5731
aVKOSDAQ:024850
p5732
aVKOSDAQ:031980
p5733
aVKOSDAQ:002230
p5734
aVKOSDAQ:137400
p5735
aVKOSDAQ:082390
p5736
aVKOSDAQ:128660
p5737
aVKOSDAQ:006140
p5738
aVKOSDAQ:087600
p5739
aVKOSDAQ:064800
p5740
aVKOSDAQ:067310
p5741
aVKOSDAQ:208370
p5742
aVKOSDAQ:208870
p5743
aVKOSDAQ:215100
p5744
aVKOSDAQ:218150
p5745
aVKOSDAQ:136480
p5746
aVKOSDAQ:024660
p5747
aVKOSDAQ:149980
p5748
aVKOSDAQ:013030
p5749
aVKOSDAQ:126700
p5750
aVKOSDAQ:200470
p5751
aVKOSDAQ:106080
p5752
aVKOSDAQ:066980
p5753
aVKOSDAQ:205470
p5754
aVKOSDAQ:217500
p5755
aVKOSDAQ:106190
p5756
aVKOSDAQ:066130
p5757
aVKOSDAQ:206400
p5758
aVKOSDAQ:004590
p5759
aVKOSDAQ:039340
p5760
aVKOSDAQ:034950
p5761
aVKOSDAQ:060250
p5762
aVKOSDAQ:025550
p5763
aVKOSDAQ:017890
p5764
aVKOSDAQ:033430
p5765
aVKOSDAQ:063570
p5766
aVKOSDAQ:041460
p5767
aVKOSDAQ:101680
p5768
aVKOSDAQ:039740
p5769
aVKOSDAQ:053300
p5770
aVKOSDAQ:025770
p5771
aVKOSDAQ:023760
p5772
aVKOSDAQ:054040
p5773
aVKOSDAQ:021650
p5774
aVKOSDAQ:053590
p5775
aVKOSDAQ:034830
p5776
aVKOSDAQ:037230
p5777
aVKOSDAQ:030520
p5778
aVKOSDAQ:052600
p5779
aVKOSDAQ:092460
p5780
aVKOSDAQ:047080
p5781
aVKOSDAQ:081970
p5782
aVKOSDAQ:099660
p5783
aVKOSDAQ:070590
p5784
aVKOSDAQ:042520
p5785
aVKOSDAQ:078350
p5786
aVKOSDAQ:045100
p5787
aVKOSDAQ:064090
p5788
aVKOSDAQ:046110
p5789
aVKOSDAQ:024740
p5790
aVKOSDAQ:005860
p5791
aVKOSDAQ:123840
p5792
aVKOSDAQ:007770
p5793
aVKOSDAQ:061460
p5794
aVKOSDAQ:079170
p5795
aVKOSDAQ:077280
p5796
aVKOSDAQ:002680
p5797
aVKOSDAQ:217620
p5798
aVKOSDAQ:215380
p5799
aVKOSDAQ:214680
p5800
aVKOSDAQ:219860
p5801
aVKOSDAQ:102210
p5802
aVKOSDAQ:034810
p5803
aVKOSDAQ:076610
p5804
aVKOSDAQ:008800
p5805
aVKOSDAQ:054300
p5806
aVKOSDAQ:170030
p5807
aVKOSDAQ:221950
p5808
aVKOSDAQ:204630
p5809
aVKOSDAQ:048410
p5810
aVKOSDAQ:204760
p5811
aVKOSDAQ:026180
p5812
aVKOSDAQ:039010
p5813
aVKOSDAQ:092300
p5814
aVKOSDAQ:053660
p5815
aVKOSDAQ:060560
p5816
aVKOSDAQ:064240
p5817
aVKOSDAQ:039610
p5818
aVKOSDAQ:126640
p5819
aVKOSDAQ:086250
p5820
aVKOSDAQ:061250
p5821
aVKOSDAQ:134780
p5822
aVKOSDAQ:097870
p5823
aVKOSDAQ:050090
p5824
aVKOSDAQ:115160
p5825
aVKOSDAQ:028080
p5826
aVKOSDAQ:200670
p5827
aVKOSDAQ:065510
p5828
aVKOSDAQ:084110
p5829
aVKOSDAQ:024060
p5830
aVKOSDAQ:010240
p5831
aVKOSDAQ:189980
p5832
aVKOSDAQ:037440
p5833
aFnan
aFnan
aFnan
aFnan
aFnan
aFnan
aFnan
aFnan
aFnan
aFnan
aFnan
aFnan
aFnan
aFnan
aFnan
aFnan
aFnan
aFnan
aFnan
aFnan
aFnan
aFnan
aFnan
aFnan
aFnan
aFnan
aFnan
aFnan
aFnan
aFnan
aFnan
aFnan
aFnan
aFnan
aFnan
aFnan
aFnan
aFnan
aFnan
aFnan
aFnan
aFnan
aFnan
aFnan
aFnan
aFnan
aFnan
aFnan
aFnan
aFnan
aFnan
aFnan
aFnan
aFnan
aFnan
aFnan
aFnan
aFnan
aFnan
aFnan
aFnan
aFnan
aFnan
aFnan
aFnan
aFnan
aFnan
aFnan
aFnan
aFnan
aFnan
aFnan
aFnan
aFnan
aFnan
aFnan
aFnan
aFnan
aFnan
aFnan
aFnan
aFnan
aFnan
aFnan
aFnan
aFnan
aFnan
aVKOSPI
p5834
aVKOSDAQ
p5835
aVKONEX
p5836
ag5834
ag5834
ag5834
ag5834
ag5834
ag5834
ag5834
ag5834
ag5834
ag5834
ag5834
ag5834
ag5834
ag5834
ag5834
ag5834
ag5834
ag5834
ag5834
ag5834
ag5834
ag5834
ag5834
ag5834
ag5834
ag5834
ag5834
ag5834
ag5834
ag5834
ag5834
ag5834
ag5834
ag5834
ag5834
ag5834
ag5834
ag5834
ag5834
ag5834
ag5834
ag5834
ag5834
ag5834
ag5834
ag5834
ag5834
ag5834
ag5834
ag5834
ag5834
ag5834
ag5834
ag5834
ag5834
ag5834
ag5834
ag5834
ag5834
ag5834
ag5834
ag5834
ag5834
ag5834
ag5834
ag5834
ag5834
ag5834
ag5834
ag5834
ag5834
ag5834
ag5834
ag5834
ag5834
ag5834
ag5834
ag5834
ag5834
ag5834
ag5834
ag5834
ag5834
ag5834
ag5834
ag5834
ag5834
ag5834
ag5834
ag5834
ag5834
ag5834
ag5834
ag5834
ag5834
ag5834
ag5834
ag5834
ag5834
ag5834
ag5834
ag5834
ag5834
ag5834
ag5834
ag5834
ag5834
ag5834
ag5834
ag5834
ag5834
ag5834
ag5834
ag5834
ag5834
ag5834
ag5834
ag5834
ag5834
ag5834
ag5834
ag5834
ag5834
ag5834
ag5834
ag5834
ag5834
ag5834
ag5834
ag5834
ag5834
ag5834
ag5834
ag5834
ag5834
ag5834
ag5834
ag5834
ag5834
ag5834
ag5834
ag5834
ag5834
ag5834
ag5834
ag5834
ag5834
ag5834
ag5834
ag5834
ag5834
ag5834
ag5834
ag5834
ag5834
ag5834
ag5834
ag5834
ag5834
ag5834
ag5834
ag5834
ag5834
ag5834
ag5834
ag5834
ag5834
ag5834
ag5834
ag5834
ag5834
ag5834
ag5834
ag5834
ag5834
ag5834
ag5834
ag5834
ag5834
ag5834
ag5834
ag5834
ag5834
ag5834
ag5834
ag5834
ag5834
ag5834
ag5834
ag5834
ag5834
ag5834
ag5834
ag5834
ag5834
ag5834
ag5834
ag5834
ag5834
ag5834
ag5834
ag5834
ag5834
ag5834
ag5834
ag5834
ag5834
ag5834
ag5834
ag5834
ag5834
ag5834
ag5834
ag5834
ag5834
ag5834
ag5834
ag5834
ag5834
ag5834
ag5834
ag5834
ag5834
ag5834
ag5834
ag5834
ag5834
ag5834
ag5834
ag5834
ag5834
ag5834
ag5834
ag5834
ag5834
ag5834
ag5834
ag5834
ag5834
ag5834
ag5834
ag5834
ag5834
ag5834
ag5834
ag5834
ag5834
ag5834
ag5834
ag5834
ag5834
ag5834
ag5834
ag5834
ag5834
ag5834
ag5834
ag5834
ag5834
ag5834
ag5834
ag5834
ag5834
ag5834
ag5834
ag5834
ag5834
ag5834
ag5834
ag5834
ag5834
ag5834
ag5834
ag5834
ag5834
ag5834
ag5834
ag5834
ag5834
ag5834
ag5834
ag5834
ag5834
ag5834
ag5834
ag5834
ag5834
ag5834
ag5834
ag5834
ag5834
ag5834
ag5834
ag5834
ag5834
ag5834
ag5834
ag5834
ag5834
ag5834
ag5834
ag5834
ag5834
ag5834
ag5834
ag5834
ag5834
ag5834
ag5834
ag5834
ag5834
ag5834
ag5834
ag5834
ag5834
ag5834
ag5834
ag5834
ag5834
ag5834
ag5834
ag5834
ag5834
ag5834
ag5834
ag5834
ag5834
ag5834
ag5834
ag5834
ag5834
ag5834
ag5834
ag5834
ag5834
ag5834
ag5834
ag5834
ag5834
ag5834
ag5834
ag5834
ag5834
ag5834
ag5834
ag5834
ag5834
ag5834
ag5834
ag5834
ag5834
ag5834
ag5834
ag5834
ag5834
ag5834
ag5834
ag5834
ag5834
ag5834
ag5834
ag5834
ag5834
ag5834
ag5834
ag5834
ag5834
ag5834
ag5834
ag5834
ag5834
ag5834
ag5834
ag5834
ag5834
ag5834
ag5834
ag5834
ag5834
ag5834
ag5834
ag5834
ag5834
ag5834
ag5834
ag5834
ag5834
ag5834
ag5834
ag5834
ag5834
ag5834
ag5834
ag5834
ag5834
ag5834
ag5834
ag5834
ag5834
ag5834
ag5834
ag5834
ag5834
ag5834
ag5834
ag5834
ag5834
ag5834
ag5834
ag5834
ag5834
ag5834
ag5834
ag5834
ag5834
ag5834
ag5834
ag5834
ag5834
ag5834
ag5834
ag5834
ag5834
ag5834
ag5834
ag5834
ag5834
ag5834
ag5834
ag5834
ag5834
ag5834
ag5834
ag5834
ag5834
ag5834
ag5834
ag5834
ag5834
ag5834
ag5834
ag5834
ag5834
ag5834
ag5834
ag5834
ag5834
ag5834
ag5834
ag5834
ag5834
ag5834
ag5834
ag5834
ag5834
ag5834
ag5834
ag5834
ag5834
ag5834
ag5834
ag5834
ag5834
ag5834
ag5834
ag5834
ag5834
ag5834
ag5834
ag5834
ag5834
ag5834
ag5834
ag5834
ag5834
ag5834
ag5834
ag5834
ag5834
ag5834
ag5834
ag5834
ag5834
ag5834
ag5834
ag5834
ag5834
ag5834
ag5834
ag5834
ag5834
ag5834
ag5834
ag5834
ag5834
ag5834
ag5834
ag5834
ag5834
ag5834
ag5834
ag5834
ag5834
ag5834
ag5834
ag5834
ag5834
ag5834
ag5834
ag5834
ag5834
ag5834
ag5834
ag5834
ag5834
ag5834
ag5834
ag5834
ag5834
ag5834
ag5834
ag5834
ag5834
ag5834
ag5834
ag5834
ag5834
ag5834
ag5834
ag5834
ag5834
ag5834
ag5834
ag5834
ag5834
ag5834
ag5834
ag5834
ag5834
ag5834
ag5834
ag5834
ag5834
ag5834
ag5834
ag5834
ag5834
ag5834
ag5834
ag5834
ag5834
ag5834
ag5834
ag5834
ag5834
ag5834
ag5834
ag5834
ag5834
ag5834
ag5834
ag5834
ag5834
ag5834
ag5834
ag5834
ag5834
ag5834
ag5834
ag5834
ag5834
ag5834
ag5834
ag5834
ag5834
ag5834
ag5834
ag5834
ag5834
ag5834
ag5834
ag5834
ag5834
ag5834
ag5834
ag5834
ag5834
ag5834
ag5834
ag5834
ag5834
ag5834
ag5834
ag5834
ag5834
ag5834
ag5834
ag5834
ag5834
ag5834
ag5834
ag5834
ag5834
ag5834
ag5834
ag5834
ag5834
ag5834
ag5834
ag5834
ag5834
ag5834
ag5834
ag5834
ag5834
ag5834
ag5834
ag5834
ag5834
ag5834
ag5834
ag5834
ag5834
ag5834
ag5834
ag5834
ag5834
ag5834
ag5834
ag5834
ag5834
ag5834
ag5834
ag5834
ag5834
ag5834
ag5834
ag5834
ag5834
ag5834
ag5834
ag5834
ag5834
ag5834
ag5834
ag5834
ag5834
ag5834
ag5834
ag5834
ag5834
ag5834
ag5834
ag5834
ag5834
ag5834
ag5834
ag5834
ag5834
ag5834
ag5834
ag5834
ag5834
ag5834
ag5834
ag5834
ag5834
ag5834
ag5834
ag5834
ag5834
ag5834
ag5834
ag5834
ag5834
ag5834
ag5834
ag5834
ag5834
ag5834
ag5834
ag5834
ag5834
ag5834
ag5834
ag5834
ag5834
ag5834
ag5834
ag5834
ag5834
ag5834
ag5834
ag5834
ag5834
ag5834
ag5834
ag5834
ag5834
ag5834
ag5834
ag5834
ag5834
ag5834
ag5834
ag5834
ag5834
ag5834
ag5834
ag5834
ag5834
ag5834
ag5834
ag5834
ag5834
ag5834
ag5834
ag5834
ag5834
ag5834
ag5834
ag5834
ag5834
ag5834
ag5834
ag5834
ag5834
ag5834
ag5834
ag5834
ag5834
ag5834
ag5834
ag5834
ag5834
ag5834
ag5834
ag5834
ag5834
ag5834
ag5834
ag5834
ag5834
ag5834
ag5834
ag5834
ag5834
ag5834
ag5834
ag5834
ag5834
ag5834
ag5834
ag5834
ag5834
ag5834
ag5834
ag5834
ag5834
ag5834
ag5834
ag5834
ag5834
ag5834
ag5835
ag5835
ag5835
ag5835
ag5835
ag5835
ag5835
ag5835
ag5835
ag5835
ag5835
ag5835
ag5835
ag5835
ag5835
ag5835
ag5835
ag5835
ag5835
ag5835
ag5835
ag5835
ag5835
ag5835
ag5835
ag5835
ag5835
ag5835
ag5835
ag5835
ag5835
ag5835
ag5835
ag5835
ag5835
ag5835
ag5835
ag5835
ag5835
ag5835
ag5835
ag5835
ag5835
ag5835
ag5835
ag5835
ag5835
ag5835
ag5835
ag5835
ag5835
ag5835
ag5835
ag5835
ag5835
ag5835
ag5835
ag5835
ag5835
ag5835
ag5835
ag5835
ag5835
ag5835
ag5835
ag5835
ag5835
ag5835
ag5835
ag5835
ag5835
ag5835
ag5835
ag5835
ag5835
ag5835
ag5835
ag5835
ag5835
ag5835
ag5835
ag5835
ag5835
ag5835
ag5835
ag5835
ag5835
ag5835
ag5835
ag5835
ag5835
ag5835
ag5835
ag5835
ag5835
ag5835
ag5835
ag5835
ag5835
ag5835
ag5835
ag5835
ag5835
ag5835
ag5835
ag5835
ag5835
ag5835
ag5835
ag5835
ag5835
ag5835
ag5835
ag5835
ag5835
ag5835
ag5835
ag5835
ag5835
ag5835
ag5835
ag5835
ag5835
ag5835
ag5835
ag5835
ag5835
ag5835
ag5835
ag5835
ag5835
ag5835
ag5835
ag5835
ag5835
ag5835
ag5835
ag5835
ag5835
ag5835
ag5835
ag5835
ag5835
ag5835
ag5835
ag5835
ag5835
ag5835
ag5835
ag5835
ag5835
ag5835
ag5835
ag5835
ag5835
ag5835
ag5835
ag5835
ag5835
ag5835
ag5835
ag5835
ag5835
ag5835
ag5835
ag5835
ag5835
ag5835
ag5835
ag5835
ag5835
ag5835
ag5835
ag5835
ag5835
ag5835
ag5835
ag5835
ag5835
ag5835
ag5835
ag5835
ag5835
ag5835
ag5835
ag5835
ag5835
ag5835
ag5835
ag5835
ag5835
ag5835
ag5835
ag5835
ag5835
ag5835
ag5835
ag5835
ag5835
ag5835
ag5835
ag5835
ag5835
ag5835
ag5835
ag5835
ag5835
ag5835
ag5835
ag5835
ag5835
ag5835
ag5835
ag5835
ag5835
ag5835
ag5835
ag5835
ag5835
ag5835
ag5835
ag5835
ag5835
ag5835
ag5835
ag5835
ag5835
ag5835
ag5835
ag5835
ag5835
ag5835
ag5835
ag5835
ag5835
ag5835
ag5835
ag5835
ag5835
ag5835
ag5835
ag5835
ag5835
ag5835
ag5835
ag5835
ag5835
ag5835
ag5835
ag5835
ag5835
ag5835
ag5835
ag5835
ag5835
ag5835
ag5835
ag5835
ag5835
ag5835
ag5835
ag5835
ag5835
ag5835
ag5835
ag5835
ag5835
ag5835
ag5835
ag5835
ag5835
ag5835
ag5835
ag5835
ag5835
ag5835
ag5835
ag5835
ag5835
ag5835
ag5835
ag5835
ag5835
ag5835
ag5835
ag5835
ag5835
ag5835
ag5835
ag5835
ag5835
ag5835
ag5835
ag5835
ag5835
ag5835
ag5835
ag5835
ag5835
ag5835
ag5835
ag5835
ag5835
ag5835
ag5835
ag5835
ag5835
ag5835
ag5835
ag5835
ag5835
ag5835
ag5835
ag5835
ag5835
ag5835
ag5835
ag5835
ag5835
ag5835
ag5835
ag5835
ag5835
ag5835
ag5835
ag5835
ag5835
ag5835
ag5835
ag5835
ag5835
ag5835
ag5835
ag5835
ag5835
ag5835
ag5835
ag5835
ag5835
ag5835
ag5835
ag5835
ag5835
ag5835
ag5835
ag5835
ag5835
ag5835
ag5835
ag5835
ag5835
ag5835
ag5835
ag5835
ag5835
ag5835
ag5835
ag5835
ag5835
ag5835
ag5835
ag5835
ag5835
ag5835
ag5835
ag5835
ag5835
ag5835
ag5835
ag5835
ag5835
ag5835
ag5835
ag5835
ag5835
ag5835
ag5835
ag5835
ag5835
ag5835
ag5835
ag5835
ag5835
ag5835
ag5835
ag5835
ag5835
ag5835
ag5835
ag5835
ag5835
ag5835
ag5835
ag5835
ag5835
ag5835
ag5835
ag5835
ag5835
ag5835
ag5835
ag5835
ag5835
ag5835
ag5835
ag5835
ag5835
ag5835
ag5835
ag5835
ag5835
ag5835
ag5835
ag5835
ag5835
ag5835
ag5835
ag5835
ag5835
ag5835
ag5835
ag5835
ag5835
ag5835
ag5835
ag5835
ag5835
ag5835
ag5835
ag5835
ag5835
ag5835
ag5835
ag5835
ag5835
ag5835
ag5835
ag5835
ag5835
ag5835
ag5835
ag5835
ag5835
ag5835
ag5835
ag5835
ag5835
ag5835
ag5835
ag5835
ag5835
ag5835
ag5835
ag5835
ag5835
ag5835
ag5835
ag5835
ag5835
ag5835
ag5835
ag5835
ag5835
ag5835
ag5835
ag5835
ag5835
ag5835
ag5835
ag5835
ag5835
ag5835
ag5835
ag5835
ag5835
ag5835
ag5835
ag5835
ag5835
ag5835
ag5835
ag5835
ag5835
ag5835
ag5835
ag5835
ag5835
ag5835
ag5835
ag5835
ag5835
ag5835
ag5835
ag5835
ag5835
ag5835
ag5835
ag5835
ag5835
ag5835
ag5835
ag5835
ag5835
ag5835
ag5835
ag5835
ag5835
ag5835
ag5835
ag5835
ag5835
ag5835
ag5835
ag5835
ag5835
ag5835
ag5835
ag5835
ag5835
ag5835
ag5835
ag5835
ag5835
ag5835
ag5835
ag5835
ag5835
ag5835
ag5835
ag5835
ag5835
ag5835
ag5835
ag5835
ag5835
ag5835
ag5835
ag5835
ag5835
ag5835
ag5835
ag5835
ag5835
ag5835
ag5835
ag5835
ag5835
ag5835
ag5835
ag5835
ag5835
ag5835
ag5835
ag5835
ag5835
ag5835
ag5835
ag5835
ag5835
ag5835
ag5835
ag5835
ag5835
ag5835
ag5835
ag5835
ag5835
ag5835
ag5835
ag5835
ag5835
ag5835
ag5835
ag5835
ag5835
ag5835
ag5835
ag5835
ag5835
ag5835
ag5835
ag5835
ag5835
ag5835
ag5835
ag5835
ag5835
ag5835
ag5835
ag5835
ag5835
ag5835
ag5835
ag5835
ag5835
ag5835
ag5835
ag5835
ag5835
ag5835
ag5835
ag5835
ag5835
ag5835
ag5835
ag5835
ag5835
ag5835
ag5835
ag5835
ag5835
ag5835
ag5835
ag5835
ag5835
ag5835
ag5835
ag5835
ag5835
ag5835
ag5835
ag5835
ag5835
ag5835
ag5835
ag5835
ag5835
ag5835
ag5835
ag5835
ag5835
ag5835
ag5835
ag5835
ag5835
ag5835
ag5835
ag5835
ag5835
ag5835
ag5835
ag5835
ag5835
ag5835
ag5835
ag5835
ag5835
ag5835
ag5835
ag5835
ag5835
ag5835
ag5835
ag5835
ag5835
ag5835
ag5835
ag5835
ag5835
ag5835
ag5835
ag5835
ag5835
ag5835
ag5835
ag5835
ag5835
ag5835
ag5835
ag5835
ag5835
ag5835
ag5835
ag5835
ag5835
ag5835
ag5835
ag5835
ag5835
ag5835
ag5835
ag5835
ag5835
ag5835
ag5835
ag5835
ag5835
ag5835
ag5835
ag5835
ag5835
ag5835
ag5835
ag5835
ag5835
ag5835
ag5835
ag5835
ag5835
ag5835
ag5835
ag5835
ag5835
ag5835
ag5835
ag5835
ag5835
ag5835
ag5835
ag5835
ag5835
ag5835
ag5835
ag5835
ag5835
ag5835
ag5835
ag5835
ag5835
ag5835
ag5835
ag5835
ag5835
ag5835
ag5835
ag5835
ag5835
ag5835
ag5835
ag5835
ag5835
ag5835
ag5835
ag5835
ag5835
ag5835
ag5835
ag5835
ag5835
ag5835
ag5835
ag5835
ag5835
ag5835
ag5835
ag5835
ag5835
ag5835
ag5835
ag5835
ag5835
ag5835
ag5835
ag5835
ag5835
ag5835
ag5835
ag5835
ag5835
ag5835
ag5835
ag5835
ag5835
ag5835
ag5835
ag5835
ag5835
ag5835
ag5835
ag5835
ag5835
ag5835
ag5835
ag5835
ag5835
ag5835
ag5835
ag5835
ag5835
ag5835
ag5835
ag5835
ag5835
ag5835
ag5835
ag5835
ag5835
ag5835
ag5835
ag5835
ag5835
ag5835
ag5835
ag5835
ag5835
ag5835
ag5835
ag5835
ag5835
ag5835
ag5835
ag5835
ag5835
ag5835
ag5835
ag5835
ag5835
ag5835
ag5835
ag5835
ag5835
ag5835
ag5835
ag5835
ag5835
ag5835
ag5835
ag5835
ag5835
ag5835
ag5835
ag5835
ag5835
ag5835
ag5835
ag5835
ag5835
ag5835
ag5835
ag5835
ag5835
ag5835
ag5835
ag5835
ag5835
ag5835
ag5835
ag5835
ag5835
ag5835
ag5835
ag5835
ag5835
ag5835
ag5835
ag5835
ag5835
ag5835
ag5835
ag5835
ag5835
ag5835
ag5835
ag5835
ag5835
ag5835
ag5835
ag5835
ag5835
ag5835
ag5835
ag5835
ag5835
ag5835
ag5835
ag5835
ag5835
ag5835
ag5835
ag5835
ag5835
ag5835
ag5835
ag5835
ag5835
ag5835
ag5835
ag5835
ag5835
ag5835
ag5835
ag5835
ag5835
ag5835
ag5835
ag5835
ag5835
ag5835
ag5835
ag5835
ag5835
ag5835
ag5835
ag5835
ag5835
ag5835
ag5835
ag5835
ag5835
ag5835
ag5835
ag5835
ag5835
ag5835
ag5835
ag5835
ag5835
ag5835
ag5835
ag5835
ag5835
ag5835
ag5835
ag5835
ag5835
ag5835
ag5835
ag5835
ag5835
ag5835
ag5835
ag5835
ag5835
ag5835
ag5835
ag5835
ag5835
ag5835
ag5835
ag5835
ag5835
ag5835
ag5835
ag5835
ag5835
ag5835
ag5835
ag5835
ag5835
ag5835
ag5835
ag5835
ag5835
ag5835
ag5835
ag5835
ag5835
ag5835
ag5835
ag5835
ag5835
ag5835
ag5835
ag5835
ag5835
ag5835
ag5835
ag5835
ag5835
ag5835
ag5835
ag5835
ag5835
ag5835
ag5835
ag5835
ag5835
ag5835
ag5835
ag5835
ag5835
ag5835
ag5835
ag5835
ag5835
ag5835
ag5835
ag5835
ag5835
ag5835
ag5835
ag5835
ag5835
ag5835
ag5835
ag5835
ag5835
ag5835
ag5835
ag5835
ag5835
ag5835
ag5835
ag5835
ag5835
ag5835
ag5835
ag5835
ag5835
ag5835
ag5835
ag5835
ag5835
ag5835
ag5835
ag5835
ag5835
ag5835
ag5835
ag5835
ag5835
ag5835
ag5835
ag5835
ag5835
ag5835
ag5835
ag5835
ag5835
ag5835
ag5835
ag5835
ag5835
ag5835
ag5835
ag5835
ag5835
ag5835
ag5835
ag5835
ag5835
ag5835
ag5835
ag5835
ag5835
ag5835
ag5835
ag5835
ag5835
ag5835
ag5835
ag5835
ag5835
ag5835
ag5835
ag5835
ag5835
ag5835
ag5835
ag5835
ag5835
ag5835
ag5835
ag5835
ag5835
ag5835
ag5835
ag5835
ag5835
ag5835
ag5835
ag5835
ag5835
ag5835
ag5835
ag5835
ag5835
ag5835
ag5835
ag5835
ag5835
ag5835
ag5835
ag5835
ag5835
ag5835
ag5835
ag5835
ag5835
ag5835
ag5835
ag5835
ag5835
ag5835
ag5835
ag5835
ag5835
ag5835
ag5835
ag5835
ag5835
ag5835
ag5835
ag5835
ag5835
ag5835
ag5835
ag5835
ag5835
ag5835
ag5835
ag5835
ag5836
ag5836
ag5836
ag5836
ag5836
ag5836
ag5836
ag5836
ag5836
ag5836
ag5836
ag5836
ag5836
ag5836
ag5836
ag5836
ag5836
ag5836
ag5836
ag5836
ag5836
ag5836
ag5836
ag5836
ag5836
ag5836
ag5836
ag5836
ag5836
ag5836
ag5836
ag5836
ag5836
ag5836
ag5836
ag5836
ag5836
ag5836
ag5836
ag5836
ag5836
ag5836
ag5836
ag5836
ag5836
ag5836
ag5836
ag5836
ag5836
ag5836
ag5836
ag5836
ag5836
ag5836
ag5836
ag5836
ag5836
ag5836
ag5836
ag5836
ag5836
ag5836
ag5836
ag5836
ag5836
ag5836
ag5836
ag5836
ag5836
ag5836
ag5836
ag5836
ag5836
ag5836
ag5836
ag5836
ag5836
ag5836
ag5836
ag5836
ag5836
ag5836
ag5836
ag5836
ag5836
ag5836
ag5836
atp5837
ba(lp5838
g15
(g16
(dp5839
g18
g19
(g20
(I0
tp5840
g22
tp5841
Rp5842
(I1
(I4
tp5843
g29
I00
(lp5844
g33
ag34
ag35
ag36
atp5845
bsg38
Nstp5846
Rp5847
a(dp5848
S'0.14.1'
p5849
(dp5850
S'axes'
p5851
g14
sS'blocks'
p5852
(lp5853
(dp5854
S'mgr_locs'
p5855
c__builtin__
slice
p5856
(I0
I4
I1
tp5857
Rp5858
sS'values'
p5859
g51
sasstp5860
bsb.